ARM GAS  C:\Users\Dell\AppData\Local\Temp\ccFHrQg5.s 			page 1


   1              		.syntax unified
   2              		.cpu cortex-m3
   3              		.fpu softvfp
   4              		.eabi_attribute 20, 1
   5              		.eabi_attribute 21, 1
   6              		.eabi_attribute 23, 3
   7              		.eabi_attribute 24, 1
   8              		.eabi_attribute 25, 1
   9              		.eabi_attribute 26, 1
  10              		.eabi_attribute 30, 1
  11              		.eabi_attribute 34, 1
  12              		.eabi_attribute 18, 4
  13              		.thumb
  14              		.syntax unified
  15              		.file	"display.c"
  16              		.text
  17              	.Ltext0:
  18              		.cfi_sections	.debug_frame
  19              		.section	.text.display_DmaInit,"ax",%progbits
  20              		.align	2
  21              		.thumb
  22              		.thumb_func
  23              		.type	display_DmaInit, %function
  24              	display_DmaInit:
  25              	.LFB0:
  26              		.file 1 "Generated_Source\\PSoC5\\display.c"
   1:Generated_Source\PSoC5/display.c **** /*******************************************************************************
   2:Generated_Source\PSoC5/display.c **** * File Name: display.c
   3:Generated_Source\PSoC5/display.c **** * Version 1.10
   4:Generated_Source\PSoC5/display.c **** *
   5:Generated_Source\PSoC5/display.c **** * Description:
   6:Generated_Source\PSoC5/display.c **** *  This file contains the setup, control and status commands for the 
   7:Generated_Source\PSoC5/display.c **** *  LED Driver component.
   8:Generated_Source\PSoC5/display.c **** *
   9:Generated_Source\PSoC5/display.c **** * Note:
  10:Generated_Source\PSoC5/display.c **** *  None
  11:Generated_Source\PSoC5/display.c **** *
  12:Generated_Source\PSoC5/display.c **** ********************************************************************************
  13:Generated_Source\PSoC5/display.c **** * Copyright 2013-2015, Cypress Semiconductor Corporation.  All rights reserved.
  14:Generated_Source\PSoC5/display.c **** * You may use this file only in accordance with the license, terms, conditions,
  15:Generated_Source\PSoC5/display.c **** * disclaimers, and limitations in the end user license agreement accompanying
  16:Generated_Source\PSoC5/display.c **** * the software package with which this file was provided.
  17:Generated_Source\PSoC5/display.c **** ********************************************************************************/
  18:Generated_Source\PSoC5/display.c **** 
  19:Generated_Source\PSoC5/display.c **** #include "display.h"
  20:Generated_Source\PSoC5/display.c **** #include <display_DMA_Com_dma.h>
  21:Generated_Source\PSoC5/display.c **** #include <display_DMA_Seg_dma.h>
  22:Generated_Source\PSoC5/display.c **** #if (display_BRIGHTNESS_EN == display_ENABLED)
  23:Generated_Source\PSoC5/display.c ****     #include <display_DMA_BC_dma.h>
  24:Generated_Source\PSoC5/display.c **** #endif /* (display_BRIGHTNESS_EN == display_ENABLED) */
  25:Generated_Source\PSoC5/display.c **** 
  26:Generated_Source\PSoC5/display.c **** /* Function prototypes */
  27:Generated_Source\PSoC5/display.c **** static void display_DmaInit(void) ;
  28:Generated_Source\PSoC5/display.c **** static void display_DmaEnable(void) ;
  29:Generated_Source\PSoC5/display.c **** static void display_DmaDisable(void) ;
  30:Generated_Source\PSoC5/display.c **** 
  31:Generated_Source\PSoC5/display.c **** /* Used to hold the common line output sequence */
ARM GAS  C:\Users\Dell\AppData\Local\Temp\ccFHrQg5.s 			page 2


  32:Generated_Source\PSoC5/display.c **** #if(display_COM_DRIVE == display_HIGH)
  33:Generated_Source\PSoC5/display.c ****     static uint8 display_comBuffer[16] = {0x00u, 0x01u, 0x00u, 0x02u, 0x00u, 0x04u, 0x00u, 0x08u,
  34:Generated_Source\PSoC5/display.c ****                                                     0x00u, 0x10u, 0x00u, 0x20u, 0x00u, 0x40u, 0x00u
  35:Generated_Source\PSoC5/display.c **** #else
  36:Generated_Source\PSoC5/display.c ****     static uint8 display_comBuffer[16] = {0xFFu, 0xFEu, 0xFFu, 0xFDu, 0xFFu, 0xFBu, 0xFFu, 0xF7u,
  37:Generated_Source\PSoC5/display.c ****                                                     0xFFu, 0xEFu, 0xFFu, 0xDFu, 0xFFu, 0xBFu, 0xFFu
  38:Generated_Source\PSoC5/display.c **** #endif /* (display_COM_DRIVE == display_HIGH) */
  39:Generated_Source\PSoC5/display.c **** 
  40:Generated_Source\PSoC5/display.c **** /* Buffers used to hold the display(segment) values to be transferred to the control registers */
  41:Generated_Source\PSoC5/display.c **** uint8 display_segLBuffer[display_NUM_COM];
  42:Generated_Source\PSoC5/display.c **** #if (display_NUM_SEG > 8u) 
  43:Generated_Source\PSoC5/display.c ****     uint8 display_segMBuffer[display_NUM_COM];
  44:Generated_Source\PSoC5/display.c **** #endif /* (display_NUM_SEG > 8u) */
  45:Generated_Source\PSoC5/display.c **** #if (display_NUM_SEG > 16u) 
  46:Generated_Source\PSoC5/display.c ****     uint8 display_segHBuffer[display_NUM_COM];
  47:Generated_Source\PSoC5/display.c **** #endif /* (display_NUM_SEG > 16u) */
  48:Generated_Source\PSoC5/display.c **** 
  49:Generated_Source\PSoC5/display.c **** #if (display_BRIGHTNESS_EN == display_ENABLED)
  50:Generated_Source\PSoC5/display.c ****     /* The brightness register used to hold the brightness levels for each common */
  51:Generated_Source\PSoC5/display.c ****     static uint8 display_brightnessReg[display_NUM_COM];
  52:Generated_Source\PSoC5/display.c **** #endif /* (display_BRIGHTNESS_EN == display_ENABLED) */
  53:Generated_Source\PSoC5/display.c **** 
  54:Generated_Source\PSoC5/display.c **** /* DMA channel and TD declaractions */
  55:Generated_Source\PSoC5/display.c **** static uint8 display_dmaComChannel;
  56:Generated_Source\PSoC5/display.c **** static uint8 display_dmaComTd[display_TWO_NUM_COM];
  57:Generated_Source\PSoC5/display.c **** 
  58:Generated_Source\PSoC5/display.c **** static uint8 display_dmaSegChannel;
  59:Generated_Source\PSoC5/display.c **** static uint8 display_dmaSegLTd[display_NUM_COM];
  60:Generated_Source\PSoC5/display.c **** 
  61:Generated_Source\PSoC5/display.c **** #if (display_BRIGHTNESS_EN == display_ENABLED)
  62:Generated_Source\PSoC5/display.c ****     static uint8 display_dmaBCChannel;
  63:Generated_Source\PSoC5/display.c ****     static uint8 display_dmaBCTd;
  64:Generated_Source\PSoC5/display.c **** #endif /* (display_BRIGHTNESS_EN == display_ENABLED) */
  65:Generated_Source\PSoC5/display.c **** 
  66:Generated_Source\PSoC5/display.c **** uint8 display_initVar = 0u;
  67:Generated_Source\PSoC5/display.c **** uint8 display_enableVar = 0u;
  68:Generated_Source\PSoC5/display.c **** 
  69:Generated_Source\PSoC5/display.c **** 
  70:Generated_Source\PSoC5/display.c **** /*******************************************************************************
  71:Generated_Source\PSoC5/display.c **** * Function Name: display_DmaInit
  72:Generated_Source\PSoC5/display.c **** ********************************************************************************
  73:Generated_Source\PSoC5/display.c **** *
  74:Generated_Source\PSoC5/display.c **** * Summary: 
  75:Generated_Source\PSoC5/display.c **** *  Initializes the DMAs for transferring from the buffer register arrays to 
  76:Generated_Source\PSoC5/display.c **** *  the control registers.
  77:Generated_Source\PSoC5/display.c **** *
  78:Generated_Source\PSoC5/display.c **** * Parameters:
  79:Generated_Source\PSoC5/display.c **** *  None
  80:Generated_Source\PSoC5/display.c **** *
  81:Generated_Source\PSoC5/display.c **** * Return:
  82:Generated_Source\PSoC5/display.c **** *  None
  83:Generated_Source\PSoC5/display.c **** *
  84:Generated_Source\PSoC5/display.c **** * Side Effects: 
  85:Generated_Source\PSoC5/display.c **** *  None
  86:Generated_Source\PSoC5/display.c **** *
  87:Generated_Source\PSoC5/display.c **** *******************************************************************************/
  88:Generated_Source\PSoC5/display.c **** static void display_DmaInit(void) 
ARM GAS  C:\Users\Dell\AppData\Local\Temp\ccFHrQg5.s 			page 3


  89:Generated_Source\PSoC5/display.c **** {
  27              		.loc 1 89 0
  28              		.cfi_startproc
  29              		@ args = 0, pretend = 0, frame = 0
  30              		@ frame_needed = 0, uses_anonymous_args = 0
  31 0000 10B5     		push	{r4, lr}
  32              		.cfi_def_cfa_offset 8
  33              		.cfi_offset 4, -8
  34              		.cfi_offset 14, -4
  90:Generated_Source\PSoC5/display.c ****     uint8  i;
  91:Generated_Source\PSoC5/display.c ****     
  92:Generated_Source\PSoC5/display.c ****     /* Segment TDs for Seg_Driver_M and Seg_Driver_H control registers */
  93:Generated_Source\PSoC5/display.c ****     #if (display_NUM_SEG > 8u)
  94:Generated_Source\PSoC5/display.c ****         static uint8 display_dmaSegMTd[display_NUM_COM];
  95:Generated_Source\PSoC5/display.c ****     #endif /* (display_NUM_SEG > 8u) */
  96:Generated_Source\PSoC5/display.c ****     #if (display_NUM_SEG > 16u)
  97:Generated_Source\PSoC5/display.c ****         static uint8 display_dmaSegHTd[display_NUM_COM];
  98:Generated_Source\PSoC5/display.c ****     #endif /* (display_NUM_SEG > 16u) */
  99:Generated_Source\PSoC5/display.c **** 
 100:Generated_Source\PSoC5/display.c ****     /************************* DMA configuration for the Commons *************************/
 101:Generated_Source\PSoC5/display.c ****     /* Common DMA channel */
 102:Generated_Source\PSoC5/display.c ****     display_dmaComChannel = display_DMA_Com_DmaInitialize(1u, 1u, 
  35              		.loc 1 102 0
  36 0002 4FF48043 		mov	r3, #16384
  37 0006 41F6FF72 		movw	r2, #8191
  38 000a 0121     		movs	r1, #1
  39 000c 0846     		mov	r0, r1
  40 000e FFF7FEFF 		bl	display_DMA_Com_DmaInitialize
  41              	.LVL0:
  42 0012 504B     		ldr	r3, .L22
  43 0014 1870     		strb	r0, [r3]
 103:Generated_Source\PSoC5/display.c ****                                         HI16(display_SRAM_BASE), HI16(display_CONTROL_REG_BASE));
 104:Generated_Source\PSoC5/display.c **** 
 105:Generated_Source\PSoC5/display.c ****     /* Check if the channel is valid */                                                            
 106:Generated_Source\PSoC5/display.c ****     if(display_dmaComChannel != DMA_INVALID_CHANNEL)
  44              		.loc 1 106 0
  45 0016 FF28     		cmp	r0, #255
  46 0018 08D1     		bne	.L19
  47 001a 3FE0     		b	.L3
  48              	.LVL1:
  49              	.L4:
 107:Generated_Source\PSoC5/display.c ****     {
 108:Generated_Source\PSoC5/display.c ****         /* Allocate the common TDs */
 109:Generated_Source\PSoC5/display.c ****         for(i = 0u; i < display_TWO_NUM_COM; i++)
 110:Generated_Source\PSoC5/display.c ****         {
 111:Generated_Source\PSoC5/display.c ****             display_dmaComTd[i] = CyDmaTdAllocate();
  50              		.loc 1 111 0 discriminator 3
  51 001c FFF7FEFF 		bl	CyDmaTdAllocate
  52              	.LVL2:
  53 0020 4C4B     		ldr	r3, .L22
  54 0022 2344     		add	r3, r3, r4
  55 0024 1871     		strb	r0, [r3, #4]
 109:Generated_Source\PSoC5/display.c ****         {
  56              		.loc 1 109 0 discriminator 3
  57 0026 0134     		adds	r4, r4, #1
  58              	.LVL3:
  59 0028 E4B2     		uxtb	r4, r4
ARM GAS  C:\Users\Dell\AppData\Local\Temp\ccFHrQg5.s 			page 4


  60              	.LVL4:
  61 002a 00E0     		b	.L2
  62              	.LVL5:
  63              	.L19:
  64 002c 0024     		movs	r4, #0
  65              	.L2:
  66              	.LVL6:
 109:Generated_Source\PSoC5/display.c ****         {
  67              		.loc 1 109 0 is_stmt 0 discriminator 1
  68 002e 032C     		cmp	r4, #3
  69 0030 F4D9     		bls	.L4
  70 0032 0024     		movs	r4, #0
  71              	.LVL7:
  72 0034 19E0     		b	.L5
  73              	.LVL8:
  74              	.L8:
 112:Generated_Source\PSoC5/display.c ****         }
 113:Generated_Source\PSoC5/display.c ****         
 114:Generated_Source\PSoC5/display.c ****         /* Set configuration for the Common TDs */
 115:Generated_Source\PSoC5/display.c ****         for(i = 0u;  i < (display_TWO_NUM_COM - 1u); i++)
 116:Generated_Source\PSoC5/display.c ****         {
 117:Generated_Source\PSoC5/display.c ****             /* Separate configurations for odd and even TDs */
 118:Generated_Source\PSoC5/display.c ****             if((uint8)(i & 1u) == 0u)
  75              		.loc 1 118 0 is_stmt 1
  76 0036 14F0010F 		tst	r4, #1
  77 003a 0AD1     		bne	.L6
 119:Generated_Source\PSoC5/display.c ****             {
 120:Generated_Source\PSoC5/display.c ****                 /* Set configuration for the Common TDs */
 121:Generated_Source\PSoC5/display.c ****                 (void) CyDmaTdSetConfiguration(display_dmaComTd[i], 1u, 
  78              		.loc 1 121 0
  79 003c 454A     		ldr	r2, .L22
  80 003e 1019     		adds	r0, r2, r4
 122:Generated_Source\PSoC5/display.c ****                                                 display_dmaComTd[i+1u],
  81              		.loc 1 122 0
  82 0040 631C     		adds	r3, r4, #1
 121:Generated_Source\PSoC5/display.c ****                                                 display_dmaComTd[i+1u],
  83              		.loc 1 121 0
  84 0042 1A44     		add	r2, r2, r3
  85 0044 0123     		movs	r3, #1
  86 0046 1279     		ldrb	r2, [r2, #4]	@ zero_extendqisi2
  87 0048 1946     		mov	r1, r3
  88 004a 0079     		ldrb	r0, [r0, #4]	@ zero_extendqisi2
  89 004c FFF7FEFF 		bl	CyDmaTdSetConfiguration
  90              	.LVL9:
  91 0050 09E0     		b	.L7
  92              	.L6:
 123:Generated_Source\PSoC5/display.c ****                                                 TD_INC_SRC_ADR | display_DMA_Com__TD_TERMOUT_EN);
 124:Generated_Source\PSoC5/display.c ****             }
 125:Generated_Source\PSoC5/display.c ****             else
 126:Generated_Source\PSoC5/display.c ****             {
 127:Generated_Source\PSoC5/display.c ****                 /* Set configuration for the Common TDs */
 128:Generated_Source\PSoC5/display.c ****                 (void) CyDmaTdSetConfiguration(display_dmaComTd[i], 1u,
  93              		.loc 1 128 0
  94 0052 404A     		ldr	r2, .L22
  95 0054 1019     		adds	r0, r2, r4
 129:Generated_Source\PSoC5/display.c ****                                                 display_dmaComTd[i+1u], TD_INC_SRC_ADR);
  96              		.loc 1 129 0
ARM GAS  C:\Users\Dell\AppData\Local\Temp\ccFHrQg5.s 			page 5


  97 0056 631C     		adds	r3, r4, #1
 128:Generated_Source\PSoC5/display.c ****                                                 display_dmaComTd[i+1u], TD_INC_SRC_ADR);
  98              		.loc 1 128 0
  99 0058 1A44     		add	r2, r2, r3
 100 005a 0123     		movs	r3, #1
 101 005c 1279     		ldrb	r2, [r2, #4]	@ zero_extendqisi2
 102 005e 1946     		mov	r1, r3
 103 0060 0079     		ldrb	r0, [r0, #4]	@ zero_extendqisi2
 104 0062 FFF7FEFF 		bl	CyDmaTdSetConfiguration
 105              	.LVL10:
 106              	.L7:
 115:Generated_Source\PSoC5/display.c ****         {
 107              		.loc 1 115 0 discriminator 2
 108 0066 0134     		adds	r4, r4, #1
 109              	.LVL11:
 110 0068 E4B2     		uxtb	r4, r4
 111              	.LVL12:
 112              	.L5:
 115:Generated_Source\PSoC5/display.c ****         {
 113              		.loc 1 115 0 is_stmt 0 discriminator 1
 114 006a 022C     		cmp	r4, #2
 115 006c E3D9     		bls	.L8
 130:Generated_Source\PSoC5/display.c ****             }
 131:Generated_Source\PSoC5/display.c ****         }
 132:Generated_Source\PSoC5/display.c ****         /* Set the wraparound Common TD configuration */
 133:Generated_Source\PSoC5/display.c ****         (void) CyDmaTdSetConfiguration(display_dmaComTd[display_TWO_NUM_COM - 1u], 
 116              		.loc 1 133 0 is_stmt 1
 117 006e 3948     		ldr	r0, .L22
 118 0070 0123     		movs	r3, #1
 119 0072 0279     		ldrb	r2, [r0, #4]	@ zero_extendqisi2
 120 0074 1946     		mov	r1, r3
 121 0076 C079     		ldrb	r0, [r0, #7]	@ zero_extendqisi2
 122 0078 FFF7FEFF 		bl	CyDmaTdSetConfiguration
 123              	.LVL13:
 134:Generated_Source\PSoC5/display.c ****                                         1u, display_dmaComTd[0u], TD_INC_SRC_ADR);
 135:Generated_Source\PSoC5/display.c ****         
 136:Generated_Source\PSoC5/display.c ****         /* Set the lower addresses of the common TDs */
 137:Generated_Source\PSoC5/display.c ****         for(i = 0u; i < display_TWO_NUM_COM; i++)
 124              		.loc 1 137 0
 125 007c 0024     		movs	r4, #0
 126 007e 0BE0     		b	.L9
 127              	.LVL14:
 128              	.L10:
 138:Generated_Source\PSoC5/display.c ****         {
 139:Generated_Source\PSoC5/display.c ****             (void) CyDmaTdSetAddress(display_dmaComTd[i],
 129              		.loc 1 139 0 discriminator 3
 130 0080 344B     		ldr	r3, .L22
 131 0082 2344     		add	r3, r3, r4
 140:Generated_Source\PSoC5/display.c ****                                         LO16((uint32) &display_comBuffer[i]),
 132              		.loc 1 140 0 discriminator 3
 133 0084 3449     		ldr	r1, .L22+4
 134 0086 2144     		add	r1, r1, r4
 139:Generated_Source\PSoC5/display.c ****                                         LO16((uint32) &display_comBuffer[i]),
 135              		.loc 1 139 0 discriminator 3
 136 0088 46F27A42 		movw	r2, #25722
 137 008c 89B2     		uxth	r1, r1
 138 008e 1879     		ldrb	r0, [r3, #4]	@ zero_extendqisi2
ARM GAS  C:\Users\Dell\AppData\Local\Temp\ccFHrQg5.s 			page 6


 139 0090 FFF7FEFF 		bl	CyDmaTdSetAddress
 140              	.LVL15:
 137:Generated_Source\PSoC5/display.c ****         {
 141              		.loc 1 137 0 discriminator 3
 142 0094 0134     		adds	r4, r4, #1
 143              	.LVL16:
 144 0096 E4B2     		uxtb	r4, r4
 145              	.LVL17:
 146              	.L9:
 137:Generated_Source\PSoC5/display.c ****         {
 147              		.loc 1 137 0 is_stmt 0 discriminator 1
 148 0098 032C     		cmp	r4, #3
 149 009a F1D9     		bls	.L10
 150              	.LVL18:
 151              	.L3:
 141:Generated_Source\PSoC5/display.c ****                                         LO16((uint32) display_COM_CONTROL_PTR));
 142:Generated_Source\PSoC5/display.c ****         }    
 143:Generated_Source\PSoC5/display.c ****     }
 144:Generated_Source\PSoC5/display.c ****     
 145:Generated_Source\PSoC5/display.c ****     
 146:Generated_Source\PSoC5/display.c ****     /*********************** DMA configuration for the Segments ***********************/
 147:Generated_Source\PSoC5/display.c ****     /* Get the DMA channels for the segments */
 148:Generated_Source\PSoC5/display.c ****     display_dmaSegChannel = display_DMA_Seg_DmaInitialize(1u, 1u, 
 152              		.loc 1 148 0 is_stmt 1
 153 009c 4FF48043 		mov	r3, #16384
 154 00a0 41F6FF72 		movw	r2, #8191
 155 00a4 0121     		movs	r1, #1
 156 00a6 0846     		mov	r0, r1
 157 00a8 FFF7FEFF 		bl	display_DMA_Seg_DmaInitialize
 158              	.LVL19:
 159 00ac 294B     		ldr	r3, .L22
 160 00ae 1872     		strb	r0, [r3, #8]
 149:Generated_Source\PSoC5/display.c ****                                         HI16(display_SRAM_BASE), HI16(display_CONTROL_REG_BASE));
 150:Generated_Source\PSoC5/display.c ****     
 151:Generated_Source\PSoC5/display.c ****     /* Check if the segment channel is valid */
 152:Generated_Source\PSoC5/display.c ****     if(display_dmaSegChannel != DMA_INVALID_CHANNEL)
 161              		.loc 1 152 0
 162 00b0 FF28     		cmp	r0, #255
 163 00b2 08D1     		bne	.L20
 164 00b4 30E0     		b	.L12
 165              	.LVL20:
 166              	.L13:
 153:Generated_Source\PSoC5/display.c ****     {
 154:Generated_Source\PSoC5/display.c ****         /* Allocate separate Tds for segments to implement the chain */
 155:Generated_Source\PSoC5/display.c ****         for(i = 0u; i < display_NUM_COM; i++)
 156:Generated_Source\PSoC5/display.c ****         {
 157:Generated_Source\PSoC5/display.c ****             display_dmaSegLTd[i] = CyDmaTdAllocate();
 167              		.loc 1 157 0 discriminator 3
 168 00b6 FFF7FEFF 		bl	CyDmaTdAllocate
 169              	.LVL21:
 170 00ba 264B     		ldr	r3, .L22
 171 00bc 2344     		add	r3, r3, r4
 172 00be 1873     		strb	r0, [r3, #12]
 155:Generated_Source\PSoC5/display.c ****         {
 173              		.loc 1 155 0 discriminator 3
 174 00c0 0134     		adds	r4, r4, #1
 175              	.LVL22:
ARM GAS  C:\Users\Dell\AppData\Local\Temp\ccFHrQg5.s 			page 7


 176 00c2 E4B2     		uxtb	r4, r4
 177              	.LVL23:
 178 00c4 00E0     		b	.L11
 179              	.LVL24:
 180              	.L20:
 181 00c6 0024     		movs	r4, #0
 182              	.L11:
 183              	.LVL25:
 155:Generated_Source\PSoC5/display.c ****         {
 184              		.loc 1 155 0 is_stmt 0 discriminator 1
 185 00c8 012C     		cmp	r4, #1
 186 00ca F4D9     		bls	.L13
 187 00cc 0023     		movs	r3, #0
 188 00ce 0AE0     		b	.L14
 189              	.LVL26:
 190              	.L15:
 158:Generated_Source\PSoC5/display.c ****             #if (display_NUM_SEG > 8u)
 159:Generated_Source\PSoC5/display.c ****                 display_dmaSegMTd[i] = CyDmaTdAllocate();
 160:Generated_Source\PSoC5/display.c ****             #endif /* (display_NUM_SEG > 8u) */
 161:Generated_Source\PSoC5/display.c ****             #if (display_NUM_SEG > 16u)
 162:Generated_Source\PSoC5/display.c ****                 display_dmaSegHTd[i] = CyDmaTdAllocate();
 163:Generated_Source\PSoC5/display.c ****             #endif /* (display_NUM_SEG > 16u) */
 164:Generated_Source\PSoC5/display.c ****         }
 165:Generated_Source\PSoC5/display.c ****         
 166:Generated_Source\PSoC5/display.c ****         /* Set the configuration for the Segment TDs */
 167:Generated_Source\PSoC5/display.c ****         for(i = 0u; i < (display_NUM_COM - 1u); i++)
 168:Generated_Source\PSoC5/display.c ****         {
 169:Generated_Source\PSoC5/display.c ****             #if (display_NUM_SEG <= 8u)
 170:Generated_Source\PSoC5/display.c ****                 (void) CyDmaTdSetConfiguration(display_dmaSegLTd[i], 1u, display_dmaSegLTd[i+1u],
 191              		.loc 1 170 0 is_stmt 1 discriminator 3
 192 00d0 204A     		ldr	r2, .L22
 193 00d2 D018     		adds	r0, r2, r3
 194 00d4 5C1C     		adds	r4, r3, #1
 195 00d6 2244     		add	r2, r2, r4
 196 00d8 0523     		movs	r3, #5
 197              	.LVL27:
 198 00da 127B     		ldrb	r2, [r2, #12]	@ zero_extendqisi2
 199 00dc 0121     		movs	r1, #1
 200 00de 007B     		ldrb	r0, [r0, #12]	@ zero_extendqisi2
 201 00e0 FFF7FEFF 		bl	CyDmaTdSetConfiguration
 202              	.LVL28:
 167:Generated_Source\PSoC5/display.c ****         {
 203              		.loc 1 167 0 discriminator 3
 204 00e4 E3B2     		uxtb	r3, r4
 205              	.LVL29:
 206              	.L14:
 167:Generated_Source\PSoC5/display.c ****         {
 207              		.loc 1 167 0 is_stmt 0 discriminator 1
 208 00e6 002B     		cmp	r3, #0
 209 00e8 F2D0     		beq	.L15
 171:Generated_Source\PSoC5/display.c ****                                                 TD_INC_SRC_ADR | display_DMA_Seg__TD_TERMOUT_EN);
 172:Generated_Source\PSoC5/display.c ****             #else    
 173:Generated_Source\PSoC5/display.c ****                 (void) CyDmaTdSetConfiguration(display_dmaSegLTd[i], 1u, display_dmaSegMTd[i],
 174:Generated_Source\PSoC5/display.c ****                                                 TD_INC_SRC_ADR | TD_AUTO_EXEC_NEXT);
 175:Generated_Source\PSoC5/display.c **** 
 176:Generated_Source\PSoC5/display.c ****                 #if (display_NUM_SEG <= 16u)
 177:Generated_Source\PSoC5/display.c ****                     (void) CyDmaTdSetConfiguration(display_dmaSegMTd[i], 1u, display_dmaSegLTd[i+1u
ARM GAS  C:\Users\Dell\AppData\Local\Temp\ccFHrQg5.s 			page 8


 178:Generated_Source\PSoC5/display.c ****                                                     TD_INC_SRC_ADR | display_DMA_Seg__TD_TERMOUT_EN
 179:Generated_Source\PSoC5/display.c ****                 #else    
 180:Generated_Source\PSoC5/display.c ****                     (void) CyDmaTdSetConfiguration(display_dmaSegMTd[i], 1u, display_dmaSegHTd[i],
 181:Generated_Source\PSoC5/display.c ****                                                     TD_INC_SRC_ADR | TD_AUTO_EXEC_NEXT);
 182:Generated_Source\PSoC5/display.c ****                     (void) CyDmaTdSetConfiguration(display_dmaSegHTd[i], 1u, display_dmaSegLTd[i+1u
 183:Generated_Source\PSoC5/display.c ****                                                     TD_INC_SRC_ADR | display_DMA_Seg__TD_TERMOUT_EN
 184:Generated_Source\PSoC5/display.c ****                 #endif /* display_NUM_SEG <= 16u */
 185:Generated_Source\PSoC5/display.c ****             #endif /* display_NUM_SEG <= 8u */
 186:Generated_Source\PSoC5/display.c ****         }
 187:Generated_Source\PSoC5/display.c ****         
 188:Generated_Source\PSoC5/display.c ****         /* Set the wraparound Segment TD configurations */
 189:Generated_Source\PSoC5/display.c ****         #if (display_NUM_SEG <= 8u)
 190:Generated_Source\PSoC5/display.c ****             (void) CyDmaTdSetConfiguration(display_dmaSegLTd[display_NUM_COM - 1u],
 210              		.loc 1 190 0 is_stmt 1
 211 00ea 1A48     		ldr	r0, .L22
 212 00ec 0523     		movs	r3, #5
 213              	.LVL30:
 214 00ee 027B     		ldrb	r2, [r0, #12]	@ zero_extendqisi2
 215 00f0 0121     		movs	r1, #1
 216 00f2 407B     		ldrb	r0, [r0, #13]	@ zero_extendqisi2
 217 00f4 FFF7FEFF 		bl	CyDmaTdSetConfiguration
 218              	.LVL31:
 191:Generated_Source\PSoC5/display.c ****                                             1u, display_dmaSegLTd[0u], 
 192:Generated_Source\PSoC5/display.c ****                                             TD_INC_SRC_ADR | display_DMA_Seg__TD_TERMOUT_EN);
 193:Generated_Source\PSoC5/display.c ****         #else    
 194:Generated_Source\PSoC5/display.c ****             (void) CyDmaTdSetConfiguration(display_dmaSegLTd[display_NUM_COM - 1u],
 195:Generated_Source\PSoC5/display.c ****                                             1u, display_dmaSegMTd[display_NUM_COM - 1u],
 196:Generated_Source\PSoC5/display.c ****                                             TD_INC_SRC_ADR | TD_AUTO_EXEC_NEXT);
 197:Generated_Source\PSoC5/display.c ****             #if (display_NUM_SEG <= 16u)
 198:Generated_Source\PSoC5/display.c ****                 (void) CyDmaTdSetConfiguration(display_dmaSegMTd[display_NUM_COM - 1u],
 199:Generated_Source\PSoC5/display.c ****                                                 1u, display_dmaSegLTd[0u], 
 200:Generated_Source\PSoC5/display.c ****                                                 TD_INC_SRC_ADR | display_DMA_Seg__TD_TERMOUT_EN);
 201:Generated_Source\PSoC5/display.c ****             #else    
 202:Generated_Source\PSoC5/display.c ****                 (void) CyDmaTdSetConfiguration(display_dmaSegMTd[display_NUM_COM - 1u],
 203:Generated_Source\PSoC5/display.c ****                                                 1u, display_dmaSegHTd[display_NUM_COM - 1u], 
 204:Generated_Source\PSoC5/display.c ****                                                 TD_INC_SRC_ADR | TD_AUTO_EXEC_NEXT);
 205:Generated_Source\PSoC5/display.c ****                 (void) CyDmaTdSetConfiguration(display_dmaSegHTd[display_NUM_COM - 1u],
 206:Generated_Source\PSoC5/display.c ****                                                 1u, display_dmaSegLTd[0u], 
 207:Generated_Source\PSoC5/display.c ****                                                 TD_INC_SRC_ADR | display_DMA_Seg__TD_TERMOUT_EN);
 208:Generated_Source\PSoC5/display.c ****             #endif /* (display_NUM_SEG <= 16u) */
 209:Generated_Source\PSoC5/display.c ****         #endif /* (display_NUM_SEG <= 8u) */
 210:Generated_Source\PSoC5/display.c ****         
 211:Generated_Source\PSoC5/display.c ****         /* The lower addresses for the segment TDs */
 212:Generated_Source\PSoC5/display.c ****         for(i = 0u; i < display_NUM_COM; i++)
 219              		.loc 1 212 0
 220 00f8 0024     		movs	r4, #0
 221 00fa 0BE0     		b	.L16
 222              	.LVL32:
 223              	.L17:
 213:Generated_Source\PSoC5/display.c ****         {
 214:Generated_Source\PSoC5/display.c ****             (void) CyDmaTdSetAddress(display_dmaSegLTd[i],
 224              		.loc 1 214 0 discriminator 3
 225 00fc 154B     		ldr	r3, .L22
 226 00fe 2344     		add	r3, r3, r4
 215:Generated_Source\PSoC5/display.c ****                                             LO16((uint32) &display_segLBuffer[i]),
 227              		.loc 1 215 0 discriminator 3
 228 0100 1649     		ldr	r1, .L22+8
ARM GAS  C:\Users\Dell\AppData\Local\Temp\ccFHrQg5.s 			page 9


 229 0102 2144     		add	r1, r1, r4
 214:Generated_Source\PSoC5/display.c ****                                             LO16((uint32) &display_segLBuffer[i]),
 230              		.loc 1 214 0 discriminator 3
 231 0104 46F27B42 		movw	r2, #25723
 232 0108 89B2     		uxth	r1, r1
 233 010a 187B     		ldrb	r0, [r3, #12]	@ zero_extendqisi2
 234 010c FFF7FEFF 		bl	CyDmaTdSetAddress
 235              	.LVL33:
 212:Generated_Source\PSoC5/display.c ****         {
 236              		.loc 1 212 0 discriminator 3
 237 0110 0134     		adds	r4, r4, #1
 238              	.LVL34:
 239 0112 E4B2     		uxtb	r4, r4
 240              	.LVL35:
 241              	.L16:
 212:Generated_Source\PSoC5/display.c ****         {
 242              		.loc 1 212 0 is_stmt 0 discriminator 1
 243 0114 012C     		cmp	r4, #1
 244 0116 F1D9     		bls	.L17
 245              	.LVL36:
 246              	.L12:
 216:Generated_Source\PSoC5/display.c ****                                             LO16((uint32) display_SEG_L_CONTROL_PTR));
 217:Generated_Source\PSoC5/display.c ****             #if (display_NUM_SEG > 8u)
 218:Generated_Source\PSoC5/display.c ****                 (void) CyDmaTdSetAddress(display_dmaSegMTd[i],
 219:Generated_Source\PSoC5/display.c ****                                             LO16((uint32) &display_segMBuffer[i]),
 220:Generated_Source\PSoC5/display.c ****                                             LO16((uint32) display_SEG_M_CONTROL_PTR));
 221:Generated_Source\PSoC5/display.c ****             #endif /* (display_NUM_SEG > 8u) */
 222:Generated_Source\PSoC5/display.c ****             #if (display_NUM_SEG > 16u)
 223:Generated_Source\PSoC5/display.c ****                 (void) CyDmaTdSetAddress(display_dmaSegHTd[i], 
 224:Generated_Source\PSoC5/display.c ****                                             LO16((uint32) &display_segHBuffer[i]),
 225:Generated_Source\PSoC5/display.c ****                                             LO16((uint32) display_SEG_H_CONTROL_PTR));
 226:Generated_Source\PSoC5/display.c ****             #endif /* (display_NUM_SEG > 16u) */
 227:Generated_Source\PSoC5/display.c ****         }
 228:Generated_Source\PSoC5/display.c ****     }
 229:Generated_Source\PSoC5/display.c ****     
 230:Generated_Source\PSoC5/display.c ****     
 231:Generated_Source\PSoC5/display.c ****     /******************** DMA configuration for Brightness control *********************/
 232:Generated_Source\PSoC5/display.c ****     
 233:Generated_Source\PSoC5/display.c ****     #if (display_BRIGHTNESS_EN == display_ENABLED)
 234:Generated_Source\PSoC5/display.c ****         /* Get the DMA channels */
 235:Generated_Source\PSoC5/display.c ****         display_dmaBCChannel = display_DMA_BC_DmaInitialize(1u, 1u, 
 247              		.loc 1 235 0 is_stmt 1
 248 0118 4FF48043 		mov	r3, #16384
 249 011c 41F6FF72 		movw	r2, #8191
 250 0120 0121     		movs	r1, #1
 251 0122 0846     		mov	r0, r1
 252 0124 FFF7FEFF 		bl	display_DMA_BC_DmaInitialize
 253              	.LVL37:
 254 0128 0A4B     		ldr	r3, .L22
 255 012a 9873     		strb	r0, [r3, #14]
 236:Generated_Source\PSoC5/display.c ****                                         HI16(display_SRAM_BASE), HI16(display_CONTROL_REG_BASE));
 237:Generated_Source\PSoC5/display.c ****             
 238:Generated_Source\PSoC5/display.c ****         /* Check if the channels are valid */
 239:Generated_Source\PSoC5/display.c ****         if(display_dmaBCChannel != DMA_INVALID_CHANNEL)
 256              		.loc 1 239 0
 257 012c FF28     		cmp	r0, #255
 258 012e 10D0     		beq	.L1
ARM GAS  C:\Users\Dell\AppData\Local\Temp\ccFHrQg5.s 			page 10


 240:Generated_Source\PSoC5/display.c ****         {
 241:Generated_Source\PSoC5/display.c ****             display_dmaBCTd = CyDmaTdAllocate();
 259              		.loc 1 241 0
 260 0130 FFF7FEFF 		bl	CyDmaTdAllocate
 261              	.LVL38:
 262 0134 0246     		mov	r2, r0
 263 0136 074C     		ldr	r4, .L22
 264 0138 E073     		strb	r0, [r4, #15]
 242:Generated_Source\PSoC5/display.c ****             
 243:Generated_Source\PSoC5/display.c ****             /* Set the TD configuration for the brightness DMA */
 244:Generated_Source\PSoC5/display.c ****             (void) CyDmaTdSetConfiguration(display_dmaBCTd, display_NUM_COM,
 265              		.loc 1 244 0
 266 013a 0123     		movs	r3, #1
 267 013c 0221     		movs	r1, #2
 268 013e FFF7FEFF 		bl	CyDmaTdSetConfiguration
 269              	.LVL39:
 245:Generated_Source\PSoC5/display.c ****                                         display_dmaBCTd, TD_INC_SRC_ADR);
 246:Generated_Source\PSoC5/display.c ****             
 247:Generated_Source\PSoC5/display.c ****             /* Lower address for the brightness Td */
 248:Generated_Source\PSoC5/display.c ****             (void) CyDmaTdSetAddress(display_dmaBCTd, LO16((uint32) &display_brightnessReg[0u]),
 270              		.loc 1 248 0
 271 0142 04F11001 		add	r1, r4, #16
 272 0146 46F22452 		movw	r2, #25892
 273 014a 89B2     		uxth	r1, r1
 274 014c E07B     		ldrb	r0, [r4, #15]	@ zero_extendqisi2
 275 014e FFF7FEFF 		bl	CyDmaTdSetAddress
 276              	.LVL40:
 277              	.L1:
 278 0152 10BD     		pop	{r4, pc}
 279              	.L23:
 280              		.align	2
 281              	.L22:
 282 0154 00000000 		.word	.LANCHOR0
 283 0158 00000000 		.word	.LANCHOR1
 284 015c 00000000 		.word	display_segLBuffer
 285              		.cfi_endproc
 286              	.LFE0:
 287              		.size	display_DmaInit, .-display_DmaInit
 288              		.section	.text.display_DmaEnable,"ax",%progbits
 289              		.align	2
 290              		.thumb
 291              		.thumb_func
 292              		.type	display_DmaEnable, %function
 293              	display_DmaEnable:
 294              	.LFB1:
 249:Generated_Source\PSoC5/display.c ****                                                                LO16((uint32)display_COMPARE_PTR));
 250:Generated_Source\PSoC5/display.c ****         }
 251:Generated_Source\PSoC5/display.c ****     #endif /* (display_BRIGHTNESS_EN == display_ENABLED) */
 252:Generated_Source\PSoC5/display.c **** }
 253:Generated_Source\PSoC5/display.c **** 
 254:Generated_Source\PSoC5/display.c **** 
 255:Generated_Source\PSoC5/display.c **** /*******************************************************************************
 256:Generated_Source\PSoC5/display.c **** * Function Name: display_DmaEnable
 257:Generated_Source\PSoC5/display.c **** ********************************************************************************
 258:Generated_Source\PSoC5/display.c **** *
 259:Generated_Source\PSoC5/display.c **** * Summary: 
 260:Generated_Source\PSoC5/display.c **** *  Enables the DMAs for transferring from the buffer register arrays to the
ARM GAS  C:\Users\Dell\AppData\Local\Temp\ccFHrQg5.s 			page 11


 261:Generated_Source\PSoC5/display.c **** *  control registers.
 262:Generated_Source\PSoC5/display.c **** *
 263:Generated_Source\PSoC5/display.c **** * Parameters:
 264:Generated_Source\PSoC5/display.c **** *  None
 265:Generated_Source\PSoC5/display.c **** *
 266:Generated_Source\PSoC5/display.c **** * Return: 
 267:Generated_Source\PSoC5/display.c **** *  None
 268:Generated_Source\PSoC5/display.c **** *
 269:Generated_Source\PSoC5/display.c **** * Side Effects: 
 270:Generated_Source\PSoC5/display.c **** *  None
 271:Generated_Source\PSoC5/display.c **** *
 272:Generated_Source\PSoC5/display.c **** *******************************************************************************/
 273:Generated_Source\PSoC5/display.c **** static void display_DmaEnable(void) 
 274:Generated_Source\PSoC5/display.c **** {
 295              		.loc 1 274 0
 296              		.cfi_startproc
 297              		@ args = 0, pretend = 0, frame = 0
 298              		@ frame_needed = 0, uses_anonymous_args = 0
 299 0000 10B5     		push	{r4, lr}
 300              		.cfi_def_cfa_offset 8
 301              		.cfi_offset 4, -8
 302              		.cfi_offset 14, -4
 275:Generated_Source\PSoC5/display.c ****     /* Initialize the TDs to the respective channels */
 276:Generated_Source\PSoC5/display.c ****     (void) CyDmaChSetInitialTd(display_dmaComChannel, display_dmaComTd[0u]);
 303              		.loc 1 276 0
 304 0002 0D4C     		ldr	r4, .L26
 305 0004 2179     		ldrb	r1, [r4, #4]	@ zero_extendqisi2
 306 0006 2078     		ldrb	r0, [r4]	@ zero_extendqisi2
 307 0008 FFF7FEFF 		bl	CyDmaChSetInitialTd
 308              	.LVL41:
 277:Generated_Source\PSoC5/display.c ****     (void) CyDmaChSetInitialTd(display_dmaSegChannel, display_dmaSegLTd[0u]);
 309              		.loc 1 277 0
 310 000c 217B     		ldrb	r1, [r4, #12]	@ zero_extendqisi2
 311 000e 207A     		ldrb	r0, [r4, #8]	@ zero_extendqisi2
 312 0010 FFF7FEFF 		bl	CyDmaChSetInitialTd
 313              	.LVL42:
 278:Generated_Source\PSoC5/display.c ****     #if (display_BRIGHTNESS_EN == display_ENABLED)
 279:Generated_Source\PSoC5/display.c ****         (void) CyDmaChSetInitialTd(display_dmaBCChannel, display_dmaBCTd);
 314              		.loc 1 279 0
 315 0014 E17B     		ldrb	r1, [r4, #15]	@ zero_extendqisi2
 316 0016 A07B     		ldrb	r0, [r4, #14]	@ zero_extendqisi2
 317 0018 FFF7FEFF 		bl	CyDmaChSetInitialTd
 318              	.LVL43:
 280:Generated_Source\PSoC5/display.c ****     #endif /* (display_BRIGHTNESS_EN == display_ENABLED) */
 281:Generated_Source\PSoC5/display.c ****     
 282:Generated_Source\PSoC5/display.c ****     /* Enable all channels */
 283:Generated_Source\PSoC5/display.c ****     (void) CyDmaChEnable(display_dmaComChannel, 1u);
 319              		.loc 1 283 0
 320 001c 0121     		movs	r1, #1
 321 001e 2078     		ldrb	r0, [r4]	@ zero_extendqisi2
 322 0020 FFF7FEFF 		bl	CyDmaChEnable
 323              	.LVL44:
 284:Generated_Source\PSoC5/display.c ****     (void) CyDmaChEnable(display_dmaSegChannel, 1u);
 324              		.loc 1 284 0
 325 0024 0121     		movs	r1, #1
 326 0026 207A     		ldrb	r0, [r4, #8]	@ zero_extendqisi2
 327 0028 FFF7FEFF 		bl	CyDmaChEnable
ARM GAS  C:\Users\Dell\AppData\Local\Temp\ccFHrQg5.s 			page 12


 328              	.LVL45:
 285:Generated_Source\PSoC5/display.c ****     #if (display_BRIGHTNESS_EN == display_ENABLED)
 286:Generated_Source\PSoC5/display.c ****         (void) CyDmaChEnable(display_dmaBCChannel, 1u);
 329              		.loc 1 286 0
 330 002c 0121     		movs	r1, #1
 331 002e A07B     		ldrb	r0, [r4, #14]	@ zero_extendqisi2
 332 0030 FFF7FEFF 		bl	CyDmaChEnable
 333              	.LVL46:
 334 0034 10BD     		pop	{r4, pc}
 335              	.L27:
 336 0036 00BF     		.align	2
 337              	.L26:
 338 0038 00000000 		.word	.LANCHOR0
 339              		.cfi_endproc
 340              	.LFE1:
 341              		.size	display_DmaEnable, .-display_DmaEnable
 342              		.section	.text.display_DmaDisable,"ax",%progbits
 343              		.align	2
 344              		.thumb
 345              		.thumb_func
 346              		.type	display_DmaDisable, %function
 347              	display_DmaDisable:
 348              	.LFB2:
 287:Generated_Source\PSoC5/display.c ****     #endif /* (display_BRIGHTNESS_EN == display_ENABLED) */
 288:Generated_Source\PSoC5/display.c **** }
 289:Generated_Source\PSoC5/display.c **** 
 290:Generated_Source\PSoC5/display.c **** 
 291:Generated_Source\PSoC5/display.c **** /*******************************************************************************
 292:Generated_Source\PSoC5/display.c **** * Function Name: display_DmaDisable
 293:Generated_Source\PSoC5/display.c **** ********************************************************************************
 294:Generated_Source\PSoC5/display.c **** *
 295:Generated_Source\PSoC5/display.c **** * Summary: 
 296:Generated_Source\PSoC5/display.c **** *  Disables the DMAs for transferring from register array to the control 
 297:Generated_Source\PSoC5/display.c **** *  register.
 298:Generated_Source\PSoC5/display.c **** *
 299:Generated_Source\PSoC5/display.c **** * Parameters:
 300:Generated_Source\PSoC5/display.c **** *  None
 301:Generated_Source\PSoC5/display.c **** *
 302:Generated_Source\PSoC5/display.c **** * Return: 
 303:Generated_Source\PSoC5/display.c **** *  None
 304:Generated_Source\PSoC5/display.c **** *
 305:Generated_Source\PSoC5/display.c **** * Side Effects: 
 306:Generated_Source\PSoC5/display.c **** *  None
 307:Generated_Source\PSoC5/display.c **** *
 308:Generated_Source\PSoC5/display.c **** *******************************************************************************/
 309:Generated_Source\PSoC5/display.c **** static void display_DmaDisable(void) 
 310:Generated_Source\PSoC5/display.c **** {
 349              		.loc 1 310 0
 350              		.cfi_startproc
 351              		@ args = 0, pretend = 0, frame = 8
 352              		@ frame_needed = 0, uses_anonymous_args = 0
 353 0000 70B5     		push	{r4, r5, r6, lr}
 354              		.cfi_def_cfa_offset 16
 355              		.cfi_offset 4, -16
 356              		.cfi_offset 5, -12
 357              		.cfi_offset 6, -8
 358              		.cfi_offset 14, -4
ARM GAS  C:\Users\Dell\AppData\Local\Temp\ccFHrQg5.s 			page 13


 359 0002 82B0     		sub	sp, sp, #8
 360              		.cfi_def_cfa_offset 24
 311:Generated_Source\PSoC5/display.c ****     uint8 i;
 312:Generated_Source\PSoC5/display.c ****     uint8 channel;
 313:Generated_Source\PSoC5/display.c ****     uint8 dmaChannelList[display_CHANNEL_LIMIT];
 314:Generated_Source\PSoC5/display.c ****     
 315:Generated_Source\PSoC5/display.c ****     dmaChannelList[0u] = display_dmaComChannel;
 361              		.loc 1 315 0
 362 0004 174B     		ldr	r3, .L34
 363 0006 1A78     		ldrb	r2, [r3]	@ zero_extendqisi2
 364 0008 8DF80420 		strb	r2, [sp, #4]
 316:Generated_Source\PSoC5/display.c ****     dmaChannelList[1u] = display_dmaSegChannel;
 365              		.loc 1 316 0
 366 000c 1A7A     		ldrb	r2, [r3, #8]	@ zero_extendqisi2
 367 000e 8DF80520 		strb	r2, [sp, #5]
 317:Generated_Source\PSoC5/display.c ****     #if (display_BRIGHTNESS_EN == display_ENABLED)
 318:Generated_Source\PSoC5/display.c ****         dmaChannelList[2u] = display_dmaBCChannel;
 368              		.loc 1 318 0
 369 0012 9B7B     		ldrb	r3, [r3, #14]	@ zero_extendqisi2
 370 0014 8DF80630 		strb	r3, [sp, #6]
 371              	.LVL47:
 319:Generated_Source\PSoC5/display.c ****     #endif /* (display_BRIGHTNESS_EN == display_ENABLED) */
 320:Generated_Source\PSoC5/display.c **** 
 321:Generated_Source\PSoC5/display.c ****     for(i = 0u; i < display_CHANNEL_LIMIT; i++)
 372              		.loc 1 321 0
 373 0018 0026     		movs	r6, #0
 374 001a 1EE0     		b	.L29
 375              	.LVL48:
 376              	.L32:
 322:Generated_Source\PSoC5/display.c ****     {
 323:Generated_Source\PSoC5/display.c ****         channel = dmaChannelList[i];
 377              		.loc 1 323 0
 378 001c 02AB     		add	r3, sp, #8
 379 001e 3344     		add	r3, r3, r6
 380 0020 13F8045C 		ldrb	r5, [r3, #-4]	@ zero_extendqisi2
 381              	.LVL49:
 324:Generated_Source\PSoC5/display.c ****         (void) CyDmaChDisable(channel);
 382              		.loc 1 324 0
 383 0024 2846     		mov	r0, r5
 384 0026 FFF7FEFF 		bl	CyDmaChDisable
 385              	.LVL50:
 325:Generated_Source\PSoC5/display.c ****         
 326:Generated_Source\PSoC5/display.c ****         display_Com_Driver_Write(display_CLEAR);
 386              		.loc 1 326 0
 387 002a FF20     		movs	r0, #255
 388 002c FFF7FEFF 		bl	display_Com_Driver_Write
 389              	.LVL51:
 390              	.L30:
 327:Generated_Source\PSoC5/display.c ****         
 328:Generated_Source\PSoC5/display.c ****         /* Clear any potential DMA requests and re-reset TD pointers */
 329:Generated_Source\PSoC5/display.c ****         while(0u != (CY_DMA_CH_STRUCT_PTR[channel].basic_status[0u] & CY_DMA_STATUS_TD_ACTIVE))
 391              		.loc 1 329 0 discriminator 1
 392 0030 0D4C     		ldr	r4, .L34+4
 393 0032 04EB0514 		add	r4, r4, r5, lsl #4
 394 0036 237A     		ldrb	r3, [r4, #8]	@ zero_extendqisi2
 395 0038 13F0020F 		tst	r3, #2
 396 003c F8D1     		bne	.L30
ARM GAS  C:\Users\Dell\AppData\Local\Temp\ccFHrQg5.s 			page 14


 330:Generated_Source\PSoC5/display.c ****         {
 331:Generated_Source\PSoC5/display.c ****             ; /* Wait for to be cleared */
 332:Generated_Source\PSoC5/display.c ****         }
 333:Generated_Source\PSoC5/display.c **** 
 334:Generated_Source\PSoC5/display.c ****         (void) CyDmaChSetRequest(channel, CY_DMA_CPU_TERM_CHAIN);
 397              		.loc 1 334 0
 398 003e 0421     		movs	r1, #4
 399 0040 2846     		mov	r0, r5
 400 0042 FFF7FEFF 		bl	CyDmaChSetRequest
 401              	.LVL52:
 335:Generated_Source\PSoC5/display.c ****         (void) CyDmaChEnable    (channel, 1u);
 402              		.loc 1 335 0
 403 0046 0121     		movs	r1, #1
 404 0048 2846     		mov	r0, r5
 405 004a FFF7FEFF 		bl	CyDmaChEnable
 406              	.LVL53:
 407              	.L31:
 336:Generated_Source\PSoC5/display.c **** 
 337:Generated_Source\PSoC5/display.c ****         while(0u != (CY_DMA_CH_STRUCT_PTR[channel].basic_cfg[0u] & CY_DMA_STATUS_CHAIN_ACTIVE))
 408              		.loc 1 337 0 discriminator 1
 409 004e 2378     		ldrb	r3, [r4]	@ zero_extendqisi2
 410 0050 13F0010F 		tst	r3, #1
 411 0054 FBD1     		bne	.L31
 321:Generated_Source\PSoC5/display.c ****     {
 412              		.loc 1 321 0 discriminator 2
 413 0056 0136     		adds	r6, r6, #1
 414              	.LVL54:
 415 0058 F6B2     		uxtb	r6, r6
 416              	.LVL55:
 417              	.L29:
 321:Generated_Source\PSoC5/display.c ****     {
 418              		.loc 1 321 0 is_stmt 0 discriminator 1
 419 005a 022E     		cmp	r6, #2
 420 005c DED9     		bls	.L32
 338:Generated_Source\PSoC5/display.c ****         {
 339:Generated_Source\PSoC5/display.c ****             ; /* Wait for to be cleared */
 340:Generated_Source\PSoC5/display.c ****         }
 341:Generated_Source\PSoC5/display.c ****     }
 342:Generated_Source\PSoC5/display.c **** }
 421              		.loc 1 342 0 is_stmt 1
 422 005e 02B0     		add	sp, sp, #8
 423              		.cfi_def_cfa_offset 16
 424              		@ sp needed
 425 0060 70BD     		pop	{r4, r5, r6, pc}
 426              	.LVL56:
 427              	.L35:
 428 0062 00BF     		.align	2
 429              	.L34:
 430 0064 00000000 		.word	.LANCHOR0
 431 0068 10700040 		.word	1073770512
 432              		.cfi_endproc
 433              	.LFE2:
 434              		.size	display_DmaDisable, .-display_DmaDisable
 435              		.section	.text.display_Enable,"ax",%progbits
 436              		.align	2
 437              		.global	display_Enable
 438              		.thumb
ARM GAS  C:\Users\Dell\AppData\Local\Temp\ccFHrQg5.s 			page 15


 439              		.thumb_func
 440              		.type	display_Enable, %function
 441              	display_Enable:
 442              	.LFB4:
 343:Generated_Source\PSoC5/display.c **** 
 344:Generated_Source\PSoC5/display.c **** 
 345:Generated_Source\PSoC5/display.c **** /*******************************************************************************
 346:Generated_Source\PSoC5/display.c **** * Function Name: display_Init
 347:Generated_Source\PSoC5/display.c **** ********************************************************************************
 348:Generated_Source\PSoC5/display.c **** *
 349:Generated_Source\PSoC5/display.c **** * Summary: 
 350:Generated_Source\PSoC5/display.c **** *  Performs initialization required for the component to operate.
 351:Generated_Source\PSoC5/display.c **** *
 352:Generated_Source\PSoC5/display.c **** * Parameters:
 353:Generated_Source\PSoC5/display.c **** *  None
 354:Generated_Source\PSoC5/display.c **** *
 355:Generated_Source\PSoC5/display.c **** * Return: 
 356:Generated_Source\PSoC5/display.c **** *  None
 357:Generated_Source\PSoC5/display.c **** *
 358:Generated_Source\PSoC5/display.c **** * Side Effects: 
 359:Generated_Source\PSoC5/display.c **** *  This action clears the display.
 360:Generated_Source\PSoC5/display.c **** *
 361:Generated_Source\PSoC5/display.c **** *******************************************************************************/
 362:Generated_Source\PSoC5/display.c **** void display_Init(void) 
 363:Generated_Source\PSoC5/display.c **** {
 364:Generated_Source\PSoC5/display.c ****     static uint8 display_dmaInitDone = 0u;
 365:Generated_Source\PSoC5/display.c ****     #if (display_BRIGHTNESS_EN == display_ENABLED)
 366:Generated_Source\PSoC5/display.c ****         uint8 i;
 367:Generated_Source\PSoC5/display.c ****     #endif /* (display_BRIGHTNESS_EN == display_ENABLED) */
 368:Generated_Source\PSoC5/display.c ****     
 369:Generated_Source\PSoC5/display.c ****     /* Start fresh by clearing the display */
 370:Generated_Source\PSoC5/display.c ****     display_ClearDisplayAll();
 371:Generated_Source\PSoC5/display.c ****     
 372:Generated_Source\PSoC5/display.c ****     /* Initialize the DMAs */
 373:Generated_Source\PSoC5/display.c ****     if(0u == display_dmaInitDone)
 374:Generated_Source\PSoC5/display.c ****     {
 375:Generated_Source\PSoC5/display.c ****         display_DmaInit();
 376:Generated_Source\PSoC5/display.c ****         display_dmaInitDone = 1u;
 377:Generated_Source\PSoC5/display.c ****     }
 378:Generated_Source\PSoC5/display.c ****     
 379:Generated_Source\PSoC5/display.c ****     /* Set the brightness to full */
 380:Generated_Source\PSoC5/display.c ****     #if (display_BRIGHTNESS_EN == display_ENABLED)
 381:Generated_Source\PSoC5/display.c ****         for(i = 0u; i<(display_NUM_COM); i++)
 382:Generated_Source\PSoC5/display.c ****         {
 383:Generated_Source\PSoC5/display.c ****             display_brightnessReg[i] = display_INIT_BRIGHT;
 384:Generated_Source\PSoC5/display.c ****         }
 385:Generated_Source\PSoC5/display.c ****     #endif /* (display_BRIGHTNESS_EN == display_ENABLED) */
 386:Generated_Source\PSoC5/display.c **** }
 387:Generated_Source\PSoC5/display.c **** 
 388:Generated_Source\PSoC5/display.c **** 
 389:Generated_Source\PSoC5/display.c **** /*******************************************************************************
 390:Generated_Source\PSoC5/display.c **** * Function Name: display_Enable
 391:Generated_Source\PSoC5/display.c **** ********************************************************************************
 392:Generated_Source\PSoC5/display.c **** *
 393:Generated_Source\PSoC5/display.c **** * Summary: 
 394:Generated_Source\PSoC5/display.c **** *  Turns on the display.
 395:Generated_Source\PSoC5/display.c **** *
ARM GAS  C:\Users\Dell\AppData\Local\Temp\ccFHrQg5.s 			page 16


 396:Generated_Source\PSoC5/display.c **** * Parameters:
 397:Generated_Source\PSoC5/display.c **** *  None
 398:Generated_Source\PSoC5/display.c **** *
 399:Generated_Source\PSoC5/display.c **** * Return: 
 400:Generated_Source\PSoC5/display.c **** *  None
 401:Generated_Source\PSoC5/display.c **** *
 402:Generated_Source\PSoC5/display.c **** * Side Effects: 
 403:Generated_Source\PSoC5/display.c **** *  None
 404:Generated_Source\PSoC5/display.c **** *
 405:Generated_Source\PSoC5/display.c **** *******************************************************************************/
 406:Generated_Source\PSoC5/display.c **** void display_Enable(void) 
 407:Generated_Source\PSoC5/display.c **** {
 443              		.loc 1 407 0
 444              		.cfi_startproc
 445              		@ args = 0, pretend = 0, frame = 0
 446              		@ frame_needed = 0, uses_anonymous_args = 0
 447 0000 08B5     		push	{r3, lr}
 448              		.cfi_def_cfa_offset 8
 449              		.cfi_offset 3, -8
 450              		.cfi_offset 14, -4
 408:Generated_Source\PSoC5/display.c ****     /* Enable the DMAs */
 409:Generated_Source\PSoC5/display.c ****     display_DmaEnable();
 451              		.loc 1 409 0
 452 0002 FFF7FEFF 		bl	display_DmaEnable
 453              	.LVL57:
 410:Generated_Source\PSoC5/display.c ****  
 411:Generated_Source\PSoC5/display.c ****     #if (display_BRIGHTNESS_EN == display_ENABLED)
 412:Generated_Source\PSoC5/display.c ****        /* Initialize to zero */
 413:Generated_Source\PSoC5/display.c ****        display_COUNTER_REG = 0x00u;
 454              		.loc 1 413 0
 455 0006 0023     		movs	r3, #0
 456 0008 044A     		ldr	r2, .L38
 457 000a 1370     		strb	r3, [r2]
 414:Generated_Source\PSoC5/display.c ****        display_COMPARE_REG = 0x00u;
 458              		.loc 1 414 0
 459 000c 1032     		adds	r2, r2, #16
 460 000e 1370     		strb	r3, [r2]
 415:Generated_Source\PSoC5/display.c ****        
 416:Generated_Source\PSoC5/display.c ****         /* Enable the PWM for brightness control */
 417:Generated_Source\PSoC5/display.c ****        display_CONTROL_REG = display_CTRL_ENABLE;
 461              		.loc 1 417 0
 462 0010 0123     		movs	r3, #1
 463 0012 5032     		adds	r2, r2, #80
 464 0014 1370     		strb	r3, [r2]
 418:Generated_Source\PSoC5/display.c ****     #endif /* (display_BRIGHTNESS_EN == display_ENABLED) */
 419:Generated_Source\PSoC5/display.c ****     
 420:Generated_Source\PSoC5/display.c ****     display_enableVar = display_CTRL_ENABLE;
 465              		.loc 1 420 0
 466 0016 024A     		ldr	r2, .L38+4
 467 0018 9374     		strb	r3, [r2, #18]
 468 001a 08BD     		pop	{r3, pc}
 469              	.L39:
 470              		.align	2
 471              	.L38:
 472 001c 14650040 		.word	1073767700
 473 0020 00000000 		.word	.LANCHOR0
 474              		.cfi_endproc
ARM GAS  C:\Users\Dell\AppData\Local\Temp\ccFHrQg5.s 			page 17


 475              	.LFE4:
 476              		.size	display_Enable, .-display_Enable
 477              		.section	.text.display_SetDisplayRAM,"ax",%progbits
 478              		.align	2
 479              		.global	display_SetDisplayRAM
 480              		.thumb
 481              		.thumb_func
 482              		.type	display_SetDisplayRAM, %function
 483              	display_SetDisplayRAM:
 484              	.LFB7:
 421:Generated_Source\PSoC5/display.c **** }
 422:Generated_Source\PSoC5/display.c **** 
 423:Generated_Source\PSoC5/display.c **** 
 424:Generated_Source\PSoC5/display.c **** /*******************************************************************************
 425:Generated_Source\PSoC5/display.c **** * Function Name: display_Start
 426:Generated_Source\PSoC5/display.c **** ********************************************************************************
 427:Generated_Source\PSoC5/display.c **** *
 428:Generated_Source\PSoC5/display.c **** * Summary:
 429:Generated_Source\PSoC5/display.c **** *  Configures the hardware (DMA and optional PWM) and enables the LED
 430:Generated_Source\PSoC5/display.c **** *  display. Whatever is currently in the display RAM will be displayed on the 
 431:Generated_Source\PSoC5/display.c **** *  LED display. The display RAM is an array of 1 to 24 bytes called 
 432:Generated_Source\PSoC5/display.c **** *  LED_Driver_1_SegmentRam[].
 433:Generated_Source\PSoC5/display.c **** *
 434:Generated_Source\PSoC5/display.c **** * Parameters:
 435:Generated_Source\PSoC5/display.c **** *  None
 436:Generated_Source\PSoC5/display.c **** *
 437:Generated_Source\PSoC5/display.c **** * Return:
 438:Generated_Source\PSoC5/display.c **** *  None
 439:Generated_Source\PSoC5/display.c **** *
 440:Generated_Source\PSoC5/display.c **** * Side effects: 
 441:Generated_Source\PSoC5/display.c **** *  None
 442:Generated_Source\PSoC5/display.c **** *
 443:Generated_Source\PSoC5/display.c **** *******************************************************************************/
 444:Generated_Source\PSoC5/display.c **** void display_Start(void) 
 445:Generated_Source\PSoC5/display.c **** {
 446:Generated_Source\PSoC5/display.c ****     if(0u == display_initVar)
 447:Generated_Source\PSoC5/display.c ****     {
 448:Generated_Source\PSoC5/display.c ****         display_Init();
 449:Generated_Source\PSoC5/display.c ****         display_initVar = 1u;
 450:Generated_Source\PSoC5/display.c ****     }
 451:Generated_Source\PSoC5/display.c **** 
 452:Generated_Source\PSoC5/display.c ****     display_Enable();
 453:Generated_Source\PSoC5/display.c **** }
 454:Generated_Source\PSoC5/display.c **** 
 455:Generated_Source\PSoC5/display.c **** 
 456:Generated_Source\PSoC5/display.c **** /*******************************************************************************
 457:Generated_Source\PSoC5/display.c **** * Function Name: display_Stop
 458:Generated_Source\PSoC5/display.c **** ********************************************************************************
 459:Generated_Source\PSoC5/display.c **** *
 460:Generated_Source\PSoC5/display.c **** * Summary:
 461:Generated_Source\PSoC5/display.c **** *  Clears the display SRAM, disables all DMA channels and the stops the PWM
 462:Generated_Source\PSoC5/display.c **** *  (if enabled in the customizer).
 463:Generated_Source\PSoC5/display.c **** *
 464:Generated_Source\PSoC5/display.c **** * Parameters:
 465:Generated_Source\PSoC5/display.c **** *  None
 466:Generated_Source\PSoC5/display.c **** *
 467:Generated_Source\PSoC5/display.c **** * Return:
ARM GAS  C:\Users\Dell\AppData\Local\Temp\ccFHrQg5.s 			page 18


 468:Generated_Source\PSoC5/display.c **** *  None
 469:Generated_Source\PSoC5/display.c **** *
 470:Generated_Source\PSoC5/display.c **** * Side effects:
 471:Generated_Source\PSoC5/display.c **** *  None
 472:Generated_Source\PSoC5/display.c **** *
 473:Generated_Source\PSoC5/display.c **** *******************************************************************************/
 474:Generated_Source\PSoC5/display.c **** void display_Stop(void) 
 475:Generated_Source\PSoC5/display.c **** {
 476:Generated_Source\PSoC5/display.c ****     #if (display_BRIGHTNESS_EN == display_ENABLED)
 477:Generated_Source\PSoC5/display.c ****         /* Disable the PWM */
 478:Generated_Source\PSoC5/display.c ****         display_CONTROL_REG = display_CTRL_DISABLE;
 479:Generated_Source\PSoC5/display.c ****     #endif /* (display_BRIGHTNESS_EN == display_ENABLED) */
 480:Generated_Source\PSoC5/display.c ****     
 481:Generated_Source\PSoC5/display.c ****     display_DmaDisable();
 482:Generated_Source\PSoC5/display.c ****     display_ClearDisplayAll();
 483:Generated_Source\PSoC5/display.c ****     
 484:Generated_Source\PSoC5/display.c ****     display_enableVar  = display_CTRL_DISABLE;
 485:Generated_Source\PSoC5/display.c **** }
 486:Generated_Source\PSoC5/display.c **** 
 487:Generated_Source\PSoC5/display.c **** 
 488:Generated_Source\PSoC5/display.c **** /*******************************************************************************
 489:Generated_Source\PSoC5/display.c **** * Function Name: display_SetDisplayRAM
 490:Generated_Source\PSoC5/display.c **** ********************************************************************************
 491:Generated_Source\PSoC5/display.c **** *
 492:Generated_Source\PSoC5/display.c **** * Summary:
 493:Generated_Source\PSoC5/display.c **** *  Writes 'value' directly into the display RAM. It is not necessary to use 
 494:Generated_Source\PSoC5/display.c **** *  this API to manipulate the display RAM, you can also access the display 
 495:Generated_Source\PSoC5/display.c **** *  RAM directly by writing to display_segLBuffer,
 496:Generated_Source\PSoC5/display.c **** *  display_segMBuffer, display_segHBuffer.
 497:Generated_Source\PSoC5/display.c **** *
 498:Generated_Source\PSoC5/display.c **** * Parameters:
 499:Generated_Source\PSoC5/display.c **** *  uint8 value: Desired value to write into the display RAM. A '1' enables the
 500:Generated_Source\PSoC5/display.c **** *               segment, a '0' disables the segment.
 501:Generated_Source\PSoC5/display.c **** *  uint8 position: Position of the display that is modified.
 502:Generated_Source\PSoC5/display.c **** *
 503:Generated_Source\PSoC5/display.c **** * Return:
 504:Generated_Source\PSoC5/display.c **** *  None
 505:Generated_Source\PSoC5/display.c **** *
 506:Generated_Source\PSoC5/display.c **** * Side effects:
 507:Generated_Source\PSoC5/display.c **** *  None
 508:Generated_Source\PSoC5/display.c **** *
 509:Generated_Source\PSoC5/display.c **** *******************************************************************************/
 510:Generated_Source\PSoC5/display.c **** void display_SetDisplayRAM(uint8 value, uint8 position) 
 511:Generated_Source\PSoC5/display.c **** {
 485              		.loc 1 511 0
 486              		.cfi_startproc
 487              		@ args = 0, pretend = 0, frame = 0
 488              		@ frame_needed = 0, uses_anonymous_args = 0
 489              		@ link register save eliminated.
 490              	.LVL58:
 512:Generated_Source\PSoC5/display.c ****     uint8 relPosition;
 513:Generated_Source\PSoC5/display.c ****     
 514:Generated_Source\PSoC5/display.c ****     if(position < display_NUM_COM)
 491              		.loc 1 514 0
 492 0000 0129     		cmp	r1, #1
 493 0002 02D8     		bhi	.L40
 494              	.LVL59:
ARM GAS  C:\Users\Dell\AppData\Local\Temp\ccFHrQg5.s 			page 19


 515:Generated_Source\PSoC5/display.c ****     {
 516:Generated_Source\PSoC5/display.c ****         relPosition = position;
 517:Generated_Source\PSoC5/display.c ****         #if(display_SEG_DRIVE == display_HIGH)
 518:Generated_Source\PSoC5/display.c ****             display_segLBuffer[relPosition] = value;
 519:Generated_Source\PSoC5/display.c ****         #else
 520:Generated_Source\PSoC5/display.c ****             display_segLBuffer[relPosition] = ((uint8) ~value);
 495              		.loc 1 520 0
 496 0004 C043     		mvns	r0, r0
 497              	.LVL60:
 498 0006 014B     		ldr	r3, .L42
 499 0008 5854     		strb	r0, [r3, r1]
 500              	.LVL61:
 501              	.L40:
 502 000a 7047     		bx	lr
 503              	.L43:
 504              		.align	2
 505              	.L42:
 506 000c 00000000 		.word	display_segLBuffer
 507              		.cfi_endproc
 508              	.LFE7:
 509              		.size	display_SetDisplayRAM, .-display_SetDisplayRAM
 510              		.section	.text.display_SetRC,"ax",%progbits
 511              		.align	2
 512              		.global	display_SetRC
 513              		.thumb
 514              		.thumb_func
 515              		.type	display_SetRC, %function
 516              	display_SetRC:
 517              	.LFB8:
 521:Generated_Source\PSoC5/display.c ****         #endif /* display_SEG_DRIVE == display_HIGH */
 522:Generated_Source\PSoC5/display.c ****     }    
 523:Generated_Source\PSoC5/display.c ****     else if (position < display_TWO_NUM_COM)
 524:Generated_Source\PSoC5/display.c ****     {
 525:Generated_Source\PSoC5/display.c ****         #if (display_NUM_SEG > 8u)
 526:Generated_Source\PSoC5/display.c ****             relPosition = position - display_NUM_COM;
 527:Generated_Source\PSoC5/display.c ****             #if(display_SEG_DRIVE == display_HIGH)
 528:Generated_Source\PSoC5/display.c ****                 display_segMBuffer[relPosition] = value;
 529:Generated_Source\PSoC5/display.c ****             #else
 530:Generated_Source\PSoC5/display.c ****                 display_segMBuffer[relPosition] = ((uint8) ~value);
 531:Generated_Source\PSoC5/display.c ****             #endif /* display_SEG_DRIVE == display_HIGH */
 532:Generated_Source\PSoC5/display.c ****         #endif /* (display_NUM_SEG > 8u) */
 533:Generated_Source\PSoC5/display.c ****     }
 534:Generated_Source\PSoC5/display.c ****     else
 535:Generated_Source\PSoC5/display.c ****     {
 536:Generated_Source\PSoC5/display.c ****         #if (display_NUM_SEG > 16u)
 537:Generated_Source\PSoC5/display.c ****             relPosition = position - display_TWO_NUM_COM;
 538:Generated_Source\PSoC5/display.c ****             if(relPosition < display_NUM_COM)
 539:Generated_Source\PSoC5/display.c ****             {
 540:Generated_Source\PSoC5/display.c ****                 #if(display_SEG_DRIVE == display_HIGH)
 541:Generated_Source\PSoC5/display.c ****                     display_segHBuffer[relPosition] = value;
 542:Generated_Source\PSoC5/display.c ****                 #else
 543:Generated_Source\PSoC5/display.c ****                     display_segMBuffer[relPosition] = ((uint8) ~value);
 544:Generated_Source\PSoC5/display.c ****                 #endif /* display_SEG_DRIVE == display_HIGH */
 545:Generated_Source\PSoC5/display.c ****             }
 546:Generated_Source\PSoC5/display.c ****         #endif /* (display_NUM_SEG > 16u) */
 547:Generated_Source\PSoC5/display.c ****     }
 548:Generated_Source\PSoC5/display.c **** }
ARM GAS  C:\Users\Dell\AppData\Local\Temp\ccFHrQg5.s 			page 20


 549:Generated_Source\PSoC5/display.c **** 
 550:Generated_Source\PSoC5/display.c **** 
 551:Generated_Source\PSoC5/display.c **** /*******************************************************************************
 552:Generated_Source\PSoC5/display.c **** * Function Name: display_SetRC
 553:Generated_Source\PSoC5/display.c **** ********************************************************************************
 554:Generated_Source\PSoC5/display.c **** *
 555:Generated_Source\PSoC5/display.c **** * Summary:
 556:Generated_Source\PSoC5/display.c **** *  Sets the bit in the display RAM corresponding to the LED in the designated
 557:Generated_Source\PSoC5/display.c **** *  row and column. Rows are the segments and columns are the commons.
 558:Generated_Source\PSoC5/display.c **** *
 559:Generated_Source\PSoC5/display.c **** * Parameters:
 560:Generated_Source\PSoC5/display.c **** *  uint8 row: Row value 0 to 23.
 561:Generated_Source\PSoC5/display.c **** *  uint8 col: Column between 0 and 7.
 562:Generated_Source\PSoC5/display.c **** *
 563:Generated_Source\PSoC5/display.c **** * Return:
 564:Generated_Source\PSoC5/display.c **** *  None
 565:Generated_Source\PSoC5/display.c **** *
 566:Generated_Source\PSoC5/display.c **** * Side effects:
 567:Generated_Source\PSoC5/display.c **** *  None
 568:Generated_Source\PSoC5/display.c **** *
 569:Generated_Source\PSoC5/display.c **** *******************************************************************************/
 570:Generated_Source\PSoC5/display.c **** void display_SetRC(uint8 row, uint8 column) 
 571:Generated_Source\PSoC5/display.c **** {
 518              		.loc 1 571 0
 519              		.cfi_startproc
 520              		@ args = 0, pretend = 0, frame = 0
 521              		@ frame_needed = 0, uses_anonymous_args = 0
 522              		@ link register save eliminated.
 523              	.LVL62:
 572:Generated_Source\PSoC5/display.c ****     uint8 rowSeg;
 573:Generated_Source\PSoC5/display.c ****     
 574:Generated_Source\PSoC5/display.c ****     if(column < display_NUM_COM)
 524              		.loc 1 574 0
 525 0000 0129     		cmp	r1, #1
 526 0002 09D8     		bhi	.L44
 575:Generated_Source\PSoC5/display.c ****     {
 576:Generated_Source\PSoC5/display.c ****         if(row < 8u)
 527              		.loc 1 576 0
 528 0004 0728     		cmp	r0, #7
 529 0006 07D8     		bhi	.L44
 530              	.LVL63:
 577:Generated_Source\PSoC5/display.c ****         {
 578:Generated_Source\PSoC5/display.c ****             rowSeg = row;
 579:Generated_Source\PSoC5/display.c ****             #if(display_SEG_DRIVE == display_HIGH)
 580:Generated_Source\PSoC5/display.c ****                 display_segLBuffer[column] |= ((uint8)((uint8)0x01u << rowSeg));
 581:Generated_Source\PSoC5/display.c ****             #else
 582:Generated_Source\PSoC5/display.c ****                 display_segLBuffer[column] &= ((uint8)~((uint8)((uint8)0x01u << rowSeg)));
 531              		.loc 1 582 0
 532 0008 0123     		movs	r3, #1
 533 000a 03FA00F0 		lsl	r0, r3, r0
 534              	.LVL64:
 535 000e 034A     		ldr	r2, .L46
 536 0010 535C     		ldrb	r3, [r2, r1]	@ zero_extendqisi2
 537 0012 23EA0000 		bic	r0, r3, r0
 538 0016 5054     		strb	r0, [r2, r1]
 539              	.LVL65:
 540              	.L44:
ARM GAS  C:\Users\Dell\AppData\Local\Temp\ccFHrQg5.s 			page 21


 541 0018 7047     		bx	lr
 542              	.L47:
 543 001a 00BF     		.align	2
 544              	.L46:
 545 001c 00000000 		.word	display_segLBuffer
 546              		.cfi_endproc
 547              	.LFE8:
 548              		.size	display_SetRC, .-display_SetRC
 549              		.section	.text.display_ClearRC,"ax",%progbits
 550              		.align	2
 551              		.global	display_ClearRC
 552              		.thumb
 553              		.thumb_func
 554              		.type	display_ClearRC, %function
 555              	display_ClearRC:
 556              	.LFB9:
 583:Generated_Source\PSoC5/display.c ****             #endif /* display_SEG_DRIVE == display_HIGH */
 584:Generated_Source\PSoC5/display.c ****         }
 585:Generated_Source\PSoC5/display.c ****         else if (row < 16u)
 586:Generated_Source\PSoC5/display.c ****         {
 587:Generated_Source\PSoC5/display.c ****             #if (display_NUM_SEG > 8u) 
 588:Generated_Source\PSoC5/display.c ****                 rowSeg = row - 8u;
 589:Generated_Source\PSoC5/display.c ****                 #if(display_SEG_DRIVE == display_HIGH)
 590:Generated_Source\PSoC5/display.c ****                     display_segMBuffer[column] |= ((uint8)((uint8)0x01u << rowSeg));
 591:Generated_Source\PSoC5/display.c ****                 #else
 592:Generated_Source\PSoC5/display.c ****                     display_segMBuffer[column] &= ((uint8)~((uint8)((uint8)0x01u << rowSeg)));
 593:Generated_Source\PSoC5/display.c ****                 #endif /* display_SEG_DRIVE == display_HIGH */
 594:Generated_Source\PSoC5/display.c ****             #endif /* (display_NUM_SEG > 8u) */
 595:Generated_Source\PSoC5/display.c ****         }
 596:Generated_Source\PSoC5/display.c ****         else
 597:Generated_Source\PSoC5/display.c ****         {
 598:Generated_Source\PSoC5/display.c ****             #if (display_NUM_SEG > 16u)
 599:Generated_Source\PSoC5/display.c ****                 rowSeg = row - 16u;
 600:Generated_Source\PSoC5/display.c ****                 #if(display_SEG_DRIVE == display_HIGH)
 601:Generated_Source\PSoC5/display.c ****                     display_segHBuffer[column] |= ((uint8)((uint8)0x01u << rowSeg));
 602:Generated_Source\PSoC5/display.c ****                 #else
 603:Generated_Source\PSoC5/display.c ****                     display_segHBuffer[column] &= ((uint8)~((uint8)((uint8)0x01u << rowSeg)));
 604:Generated_Source\PSoC5/display.c ****                 #endif /* display_SEG_DRIVE == display_HIGH */
 605:Generated_Source\PSoC5/display.c ****             #endif /* (display_NUM_SEG > 16u) */
 606:Generated_Source\PSoC5/display.c ****         }
 607:Generated_Source\PSoC5/display.c ****     }
 608:Generated_Source\PSoC5/display.c **** }
 609:Generated_Source\PSoC5/display.c **** 
 610:Generated_Source\PSoC5/display.c **** 
 611:Generated_Source\PSoC5/display.c **** /*******************************************************************************
 612:Generated_Source\PSoC5/display.c **** * Function Name: display_ClearRC
 613:Generated_Source\PSoC5/display.c **** ********************************************************************************
 614:Generated_Source\PSoC5/display.c **** *
 615:Generated_Source\PSoC5/display.c **** * Summary:
 616:Generated_Source\PSoC5/display.c **** *  Clears the bit in the display RAM corresponding to the LED in the designated
 617:Generated_Source\PSoC5/display.c **** *  row and column.
 618:Generated_Source\PSoC5/display.c **** *
 619:Generated_Source\PSoC5/display.c **** * Parameters:
 620:Generated_Source\PSoC5/display.c **** *  uint8 row: Row value 0 to 23.
 621:Generated_Source\PSoC5/display.c **** *  uint8 col: Column between 0 and 7.
 622:Generated_Source\PSoC5/display.c **** *
 623:Generated_Source\PSoC5/display.c **** * Return:
ARM GAS  C:\Users\Dell\AppData\Local\Temp\ccFHrQg5.s 			page 22


 624:Generated_Source\PSoC5/display.c **** *  None
 625:Generated_Source\PSoC5/display.c **** *
 626:Generated_Source\PSoC5/display.c **** * Side effects:
 627:Generated_Source\PSoC5/display.c **** *  None
 628:Generated_Source\PSoC5/display.c **** *
 629:Generated_Source\PSoC5/display.c **** *******************************************************************************/
 630:Generated_Source\PSoC5/display.c **** void display_ClearRC(uint8 row, uint8 column) 
 631:Generated_Source\PSoC5/display.c **** {
 557              		.loc 1 631 0
 558              		.cfi_startproc
 559              		@ args = 0, pretend = 0, frame = 0
 560              		@ frame_needed = 0, uses_anonymous_args = 0
 561              		@ link register save eliminated.
 562              	.LVL66:
 632:Generated_Source\PSoC5/display.c ****     uint8 rowSeg;
 633:Generated_Source\PSoC5/display.c ****     uint8 rowSelect;
 634:Generated_Source\PSoC5/display.c ****     
 635:Generated_Source\PSoC5/display.c ****     if(column < display_NUM_COM)
 563              		.loc 1 635 0
 564 0000 0129     		cmp	r1, #1
 565 0002 09D8     		bhi	.L48
 636:Generated_Source\PSoC5/display.c ****     {
 637:Generated_Source\PSoC5/display.c ****         if(row < 8u)
 566              		.loc 1 637 0
 567 0004 0728     		cmp	r0, #7
 568 0006 07D8     		bhi	.L48
 569              	.LVL67:
 638:Generated_Source\PSoC5/display.c ****         {
 639:Generated_Source\PSoC5/display.c ****             rowSeg = row;
 640:Generated_Source\PSoC5/display.c ****             rowSelect = ((uint8)((uint8)0x01u << rowSeg));
 570              		.loc 1 640 0
 571 0008 0123     		movs	r3, #1
 572 000a 03FA00F0 		lsl	r0, r3, r0
 573              	.LVL68:
 574 000e C0B2     		uxtb	r0, r0
 575              	.LVL69:
 641:Generated_Source\PSoC5/display.c ****             #if(display_SEG_DRIVE == display_HIGH)
 642:Generated_Source\PSoC5/display.c ****                 display_segLBuffer[column] &= ((uint8)(~(uint8)rowSelect));
 643:Generated_Source\PSoC5/display.c ****             #else
 644:Generated_Source\PSoC5/display.c ****                 display_segLBuffer[column] |= rowSelect;
 576              		.loc 1 644 0
 577 0010 024A     		ldr	r2, .L50
 578 0012 535C     		ldrb	r3, [r2, r1]	@ zero_extendqisi2
 579 0014 1843     		orrs	r0, r0, r3
 580              	.LVL70:
 581 0016 5054     		strb	r0, [r2, r1]
 582              	.LVL71:
 583              	.L48:
 584 0018 7047     		bx	lr
 585              	.L51:
 586 001a 00BF     		.align	2
 587              	.L50:
 588 001c 00000000 		.word	display_segLBuffer
 589              		.cfi_endproc
 590              	.LFE9:
 591              		.size	display_ClearRC, .-display_ClearRC
 592              		.section	.text.display_ToggleRC,"ax",%progbits
ARM GAS  C:\Users\Dell\AppData\Local\Temp\ccFHrQg5.s 			page 23


 593              		.align	2
 594              		.global	display_ToggleRC
 595              		.thumb
 596              		.thumb_func
 597              		.type	display_ToggleRC, %function
 598              	display_ToggleRC:
 599              	.LFB10:
 645:Generated_Source\PSoC5/display.c ****             #endif /* display_SEG_DRIVE == display_HIGH */
 646:Generated_Source\PSoC5/display.c ****         }    
 647:Generated_Source\PSoC5/display.c ****         else if (row < 16u)
 648:Generated_Source\PSoC5/display.c ****         {
 649:Generated_Source\PSoC5/display.c ****             #if (display_NUM_SEG > 8u) 
 650:Generated_Source\PSoC5/display.c ****                 rowSeg = row - 8u;
 651:Generated_Source\PSoC5/display.c ****                 rowSelect = ((uint8)((uint8)0x01u << rowSeg));
 652:Generated_Source\PSoC5/display.c ****                 #if(display_SEG_DRIVE == display_HIGH)
 653:Generated_Source\PSoC5/display.c ****                     display_segMBuffer[column] &= ((uint8)(~(uint8)rowSelect));
 654:Generated_Source\PSoC5/display.c ****                 #else
 655:Generated_Source\PSoC5/display.c ****                     display_segMBuffer[column] |= rowSelect;
 656:Generated_Source\PSoC5/display.c ****                 #endif /* display_SEG_DRIVE == display_HIGH */
 657:Generated_Source\PSoC5/display.c ****             #endif /* (display_NUM_SEG > 8u) */
 658:Generated_Source\PSoC5/display.c ****         }
 659:Generated_Source\PSoC5/display.c ****         else
 660:Generated_Source\PSoC5/display.c ****         {
 661:Generated_Source\PSoC5/display.c ****             #if (display_NUM_SEG > 16u)
 662:Generated_Source\PSoC5/display.c ****                 rowSeg = row - 16u;
 663:Generated_Source\PSoC5/display.c ****                 rowSelect = ((uint8)((uint8)0x01u << rowSeg));
 664:Generated_Source\PSoC5/display.c ****                 #if(display_SEG_DRIVE == display_HIGH)
 665:Generated_Source\PSoC5/display.c ****                     display_segHBuffer[column] &= ((uint8)(~(uint8)rowSelect));
 666:Generated_Source\PSoC5/display.c ****                 #else
 667:Generated_Source\PSoC5/display.c ****                     display_segHBuffer[column] |= rowSelect;
 668:Generated_Source\PSoC5/display.c ****                 #endif /* display_SEG_DRIVE == display_HIGH */
 669:Generated_Source\PSoC5/display.c ****             #endif /* (display_NUM_SEG > 16u) */
 670:Generated_Source\PSoC5/display.c ****         }
 671:Generated_Source\PSoC5/display.c ****     }
 672:Generated_Source\PSoC5/display.c **** }
 673:Generated_Source\PSoC5/display.c **** 
 674:Generated_Source\PSoC5/display.c **** 
 675:Generated_Source\PSoC5/display.c **** /*******************************************************************************
 676:Generated_Source\PSoC5/display.c **** * Function Name: display_ToggleRC
 677:Generated_Source\PSoC5/display.c **** ********************************************************************************
 678:Generated_Source\PSoC5/display.c **** *
 679:Generated_Source\PSoC5/display.c **** * Summary:
 680:Generated_Source\PSoC5/display.c **** *  Toggles the bit in the display RAM corresponding to the LED in the designated
 681:Generated_Source\PSoC5/display.c **** *  row and column.
 682:Generated_Source\PSoC5/display.c **** *
 683:Generated_Source\PSoC5/display.c **** * Parameters:
 684:Generated_Source\PSoC5/display.c **** *  uint8 row: Row value 0 to 23.
 685:Generated_Source\PSoC5/display.c **** *  uint8 col: Column between 0 and 7.
 686:Generated_Source\PSoC5/display.c **** *
 687:Generated_Source\PSoC5/display.c **** * Return:
 688:Generated_Source\PSoC5/display.c **** *  None
 689:Generated_Source\PSoC5/display.c **** *
 690:Generated_Source\PSoC5/display.c **** * Side effects:
 691:Generated_Source\PSoC5/display.c **** *  None
 692:Generated_Source\PSoC5/display.c **** *
 693:Generated_Source\PSoC5/display.c **** *******************************************************************************/
 694:Generated_Source\PSoC5/display.c **** void display_ToggleRC(uint8 row, uint8 column) 
ARM GAS  C:\Users\Dell\AppData\Local\Temp\ccFHrQg5.s 			page 24


 695:Generated_Source\PSoC5/display.c **** {
 600              		.loc 1 695 0
 601              		.cfi_startproc
 602              		@ args = 0, pretend = 0, frame = 0
 603              		@ frame_needed = 0, uses_anonymous_args = 0
 604              		@ link register save eliminated.
 605              	.LVL72:
 696:Generated_Source\PSoC5/display.c ****     uint8 rowSeg;
 697:Generated_Source\PSoC5/display.c ****     
 698:Generated_Source\PSoC5/display.c ****     if(column < display_NUM_COM)
 606              		.loc 1 698 0
 607 0000 0129     		cmp	r1, #1
 608 0002 08D8     		bhi	.L52
 699:Generated_Source\PSoC5/display.c ****     {
 700:Generated_Source\PSoC5/display.c ****         if(row < 8u)
 609              		.loc 1 700 0
 610 0004 0728     		cmp	r0, #7
 611 0006 06D8     		bhi	.L52
 612              	.LVL73:
 701:Generated_Source\PSoC5/display.c ****         {
 702:Generated_Source\PSoC5/display.c ****             rowSeg = row;
 703:Generated_Source\PSoC5/display.c ****             display_segLBuffer[column] ^= ((uint8)((uint8)0x01u << rowSeg));
 613              		.loc 1 703 0
 614 0008 0123     		movs	r3, #1
 615 000a 03FA00F0 		lsl	r0, r3, r0
 616              	.LVL74:
 617 000e 024B     		ldr	r3, .L54
 618 0010 5A5C     		ldrb	r2, [r3, r1]	@ zero_extendqisi2
 619 0012 5040     		eors	r0, r0, r2
 620 0014 5854     		strb	r0, [r3, r1]
 621              	.LVL75:
 622              	.L52:
 623 0016 7047     		bx	lr
 624              	.L55:
 625              		.align	2
 626              	.L54:
 627 0018 00000000 		.word	display_segLBuffer
 628              		.cfi_endproc
 629              	.LFE10:
 630              		.size	display_ToggleRC, .-display_ToggleRC
 631              		.section	.text.display_GetRC,"ax",%progbits
 632              		.align	2
 633              		.global	display_GetRC
 634              		.thumb
 635              		.thumb_func
 636              		.type	display_GetRC, %function
 637              	display_GetRC:
 638              	.LFB11:
 704:Generated_Source\PSoC5/display.c ****         }    
 705:Generated_Source\PSoC5/display.c ****         else if (row < 16u)
 706:Generated_Source\PSoC5/display.c ****         {
 707:Generated_Source\PSoC5/display.c ****             #if (display_NUM_SEG > 8u)
 708:Generated_Source\PSoC5/display.c ****                 rowSeg = row - 8u;
 709:Generated_Source\PSoC5/display.c ****                 display_segMBuffer[column] ^= ((uint8)((uint8)0x01u << rowSeg));
 710:Generated_Source\PSoC5/display.c ****             #endif /* (display_NUM_SEG > 8u) */
 711:Generated_Source\PSoC5/display.c ****         } 
 712:Generated_Source\PSoC5/display.c ****         else
ARM GAS  C:\Users\Dell\AppData\Local\Temp\ccFHrQg5.s 			page 25


 713:Generated_Source\PSoC5/display.c ****         {
 714:Generated_Source\PSoC5/display.c ****             #if (display_NUM_SEG > 16u)
 715:Generated_Source\PSoC5/display.c ****                 rowSeg = row - 16u;
 716:Generated_Source\PSoC5/display.c ****                 display_segHBuffer[column] ^= ((uint8)((uint8)0x01u << rowSeg));
 717:Generated_Source\PSoC5/display.c ****             #endif /* (display_NUM_SEG > 16u) */
 718:Generated_Source\PSoC5/display.c ****         }
 719:Generated_Source\PSoC5/display.c ****     }
 720:Generated_Source\PSoC5/display.c **** }
 721:Generated_Source\PSoC5/display.c **** 
 722:Generated_Source\PSoC5/display.c **** 
 723:Generated_Source\PSoC5/display.c **** /*******************************************************************************
 724:Generated_Source\PSoC5/display.c **** * Function Name: display_GetRC
 725:Generated_Source\PSoC5/display.c **** ********************************************************************************
 726:Generated_Source\PSoC5/display.c **** *
 727:Generated_Source\PSoC5/display.c **** * Summary:
 728:Generated_Source\PSoC5/display.c **** *  Returns the bit value in the display RAM corresponding to the LED in the
 729:Generated_Source\PSoC5/display.c **** *  designated row and column.
 730:Generated_Source\PSoC5/display.c **** *
 731:Generated_Source\PSoC5/display.c **** * Parameters:
 732:Generated_Source\PSoC5/display.c **** *  uint8 row: Row value 0 to 23.
 733:Generated_Source\PSoC5/display.c **** *  uint8 col: Column between 0 and 7.
 734:Generated_Source\PSoC5/display.c **** *
 735:Generated_Source\PSoC5/display.c **** * Return:
 736:Generated_Source\PSoC5/display.c **** *  uint8 - bit value of the display RAM at the corresponding row and column. 
 737:Generated_Source\PSoC5/display.c **** *
 738:Generated_Source\PSoC5/display.c **** * Side effects:
 739:Generated_Source\PSoC5/display.c **** *  None
 740:Generated_Source\PSoC5/display.c **** *
 741:Generated_Source\PSoC5/display.c **** *******************************************************************************/
 742:Generated_Source\PSoC5/display.c **** uint8 display_GetRC(uint8 row, uint8 column) 
 743:Generated_Source\PSoC5/display.c **** {
 639              		.loc 1 743 0
 640              		.cfi_startproc
 641              		@ args = 0, pretend = 0, frame = 0
 642              		@ frame_needed = 0, uses_anonymous_args = 0
 643              		@ link register save eliminated.
 644              	.LVL76:
 744:Generated_Source\PSoC5/display.c ****     uint8 valueRC = 0u;
 745:Generated_Source\PSoC5/display.c ****     uint8 rowSeg;
 746:Generated_Source\PSoC5/display.c ****     uint8 rowSegSelect = 0u;
 747:Generated_Source\PSoC5/display.c ****     
 748:Generated_Source\PSoC5/display.c ****     if(column < display_NUM_COM)
 645              		.loc 1 748 0
 646 0000 0129     		cmp	r1, #1
 647 0002 0DD8     		bhi	.L59
 749:Generated_Source\PSoC5/display.c ****     {
 750:Generated_Source\PSoC5/display.c ****         if(row < 8u)
 648              		.loc 1 750 0
 649 0004 0728     		cmp	r0, #7
 650 0006 05D8     		bhi	.L60
 651              	.LVL77:
 751:Generated_Source\PSoC5/display.c ****         {
 752:Generated_Source\PSoC5/display.c ****             rowSeg = row;
 753:Generated_Source\PSoC5/display.c ****             rowSegSelect = (uint8)((uint8)display_segLBuffer[column] >> rowSeg);
 652              		.loc 1 753 0
 653 0008 064B     		ldr	r3, .L61
 654 000a 5B5C     		ldrb	r3, [r3, r1]	@ zero_extendqisi2
ARM GAS  C:\Users\Dell\AppData\Local\Temp\ccFHrQg5.s 			page 26


 655 000c 43FA00F0 		asr	r0, r3, r0
 656              	.LVL78:
 657 0010 C0B2     		uxtb	r0, r0
 658              	.LVL79:
 659 0012 00E0     		b	.L58
 660              	.LVL80:
 661              	.L60:
 746:Generated_Source\PSoC5/display.c ****     
 662              		.loc 1 746 0
 663 0014 0020     		movs	r0, #0
 664              	.LVL81:
 665              	.L58:
 754:Generated_Source\PSoC5/display.c ****         }    
 755:Generated_Source\PSoC5/display.c ****         else if (row < 16u)
 756:Generated_Source\PSoC5/display.c ****         {
 757:Generated_Source\PSoC5/display.c ****             #if (display_NUM_SEG > 8u) 
 758:Generated_Source\PSoC5/display.c ****                 rowSeg = row - 8u;
 759:Generated_Source\PSoC5/display.c ****                 rowSegSelect = (uint8)((uint8)display_segMBuffer[column] >> rowSeg);
 760:Generated_Source\PSoC5/display.c ****             #endif /* (display_NUM_SEG > 8u) */
 761:Generated_Source\PSoC5/display.c ****         }
 762:Generated_Source\PSoC5/display.c ****         else
 763:Generated_Source\PSoC5/display.c ****         {
 764:Generated_Source\PSoC5/display.c ****             #if (display_NUM_SEG > 16u)
 765:Generated_Source\PSoC5/display.c ****                 rowSeg = row - 16u;
 766:Generated_Source\PSoC5/display.c ****                 rowSegSelect = (uint8)((uint8)display_segHBuffer[column] >> rowSeg);
 767:Generated_Source\PSoC5/display.c ****             #endif /* (display_NUM_SEG > 16u) */
 768:Generated_Source\PSoC5/display.c ****         }
 769:Generated_Source\PSoC5/display.c ****         
 770:Generated_Source\PSoC5/display.c ****         #if(display_SEG_DRIVE == display_HIGH)
 771:Generated_Source\PSoC5/display.c ****             valueRC = (uint8)((uint8)rowSegSelect & 0x01u);
 772:Generated_Source\PSoC5/display.c ****         #else
 773:Generated_Source\PSoC5/display.c ****             valueRC = (uint8)((uint8)((uint8)~rowSegSelect) & 0x01u);
 666              		.loc 1 773 0
 667 0016 80F00100 		eor	r0, r0, #1
 668              	.LVL82:
 669 001a 00F00100 		and	r0, r0, #1
 670              	.LVL83:
 671 001e 7047     		bx	lr
 672              	.LVL84:
 673              	.L59:
 744:Generated_Source\PSoC5/display.c ****     uint8 rowSeg;
 674              		.loc 1 744 0
 675 0020 0020     		movs	r0, #0
 676              	.LVL85:
 774:Generated_Source\PSoC5/display.c ****         #endif /* display_SEG_DRIVE == display_HIGH */
 775:Generated_Source\PSoC5/display.c ****     }
 776:Generated_Source\PSoC5/display.c ****     
 777:Generated_Source\PSoC5/display.c ****     return(valueRC);
 778:Generated_Source\PSoC5/display.c **** }
 677              		.loc 1 778 0
 678 0022 7047     		bx	lr
 679              	.L62:
 680              		.align	2
 681              	.L61:
 682 0024 00000000 		.word	display_segLBuffer
 683              		.cfi_endproc
 684              	.LFE11:
ARM GAS  C:\Users\Dell\AppData\Local\Temp\ccFHrQg5.s 			page 27


 685              		.size	display_GetRC, .-display_GetRC
 686              		.section	.text.display_ClearDisplay,"ax",%progbits
 687              		.align	2
 688              		.global	display_ClearDisplay
 689              		.thumb
 690              		.thumb_func
 691              		.type	display_ClearDisplay, %function
 692              	display_ClearDisplay:
 693              	.LFB12:
 779:Generated_Source\PSoC5/display.c **** 
 780:Generated_Source\PSoC5/display.c **** 
 781:Generated_Source\PSoC5/display.c **** /*******************************************************************************
 782:Generated_Source\PSoC5/display.c **** * Function Name: display_ClearDisplay
 783:Generated_Source\PSoC5/display.c **** ********************************************************************************
 784:Generated_Source\PSoC5/display.c **** *
 785:Generated_Source\PSoC5/display.c **** * Summary:
 786:Generated_Source\PSoC5/display.c **** *  Clears the display (disables all the LEDs) for the associated position by
 787:Generated_Source\PSoC5/display.c **** *  setting the display RAM to zero.
 788:Generated_Source\PSoC5/display.c **** *
 789:Generated_Source\PSoC5/display.c **** * Parameters:
 790:Generated_Source\PSoC5/display.c **** *  uint8 position: The digit position to clear.
 791:Generated_Source\PSoC5/display.c **** *
 792:Generated_Source\PSoC5/display.c **** * Return:
 793:Generated_Source\PSoC5/display.c **** *  None
 794:Generated_Source\PSoC5/display.c **** *
 795:Generated_Source\PSoC5/display.c **** * Side effects:
 796:Generated_Source\PSoC5/display.c **** *  None
 797:Generated_Source\PSoC5/display.c **** *
 798:Generated_Source\PSoC5/display.c **** *******************************************************************************/
 799:Generated_Source\PSoC5/display.c **** void display_ClearDisplay(uint8 position) 
 800:Generated_Source\PSoC5/display.c **** {  
 694              		.loc 1 800 0
 695              		.cfi_startproc
 696              		@ args = 0, pretend = 0, frame = 0
 697              		@ frame_needed = 0, uses_anonymous_args = 0
 698              		@ link register save eliminated.
 699              	.LVL86:
 801:Generated_Source\PSoC5/display.c ****     uint8 relPosition;
 802:Generated_Source\PSoC5/display.c ****     
 803:Generated_Source\PSoC5/display.c ****     if(position < display_NUM_COM)
 700              		.loc 1 803 0
 701 0000 0128     		cmp	r0, #1
 702 0002 02D8     		bhi	.L63
 703              	.LVL87:
 804:Generated_Source\PSoC5/display.c ****     {
 805:Generated_Source\PSoC5/display.c ****         relPosition = position;
 806:Generated_Source\PSoC5/display.c ****         display_segLBuffer[relPosition] = display_CLEAR;
 704              		.loc 1 806 0
 705 0004 FF22     		movs	r2, #255
 706 0006 014B     		ldr	r3, .L65
 707 0008 1A54     		strb	r2, [r3, r0]
 708              	.LVL88:
 709              	.L63:
 710 000a 7047     		bx	lr
 711              	.L66:
 712              		.align	2
 713              	.L65:
ARM GAS  C:\Users\Dell\AppData\Local\Temp\ccFHrQg5.s 			page 28


 714 000c 00000000 		.word	display_segLBuffer
 715              		.cfi_endproc
 716              	.LFE12:
 717              		.size	display_ClearDisplay, .-display_ClearDisplay
 718              		.section	.text.display_ClearDisplayAll,"ax",%progbits
 719              		.align	2
 720              		.global	display_ClearDisplayAll
 721              		.thumb
 722              		.thumb_func
 723              		.type	display_ClearDisplayAll, %function
 724              	display_ClearDisplayAll:
 725              	.LFB13:
 807:Generated_Source\PSoC5/display.c ****     }    
 808:Generated_Source\PSoC5/display.c ****     else if (position < display_TWO_NUM_COM)
 809:Generated_Source\PSoC5/display.c ****     {
 810:Generated_Source\PSoC5/display.c ****         #if (display_NUM_SEG > 8u)
 811:Generated_Source\PSoC5/display.c ****             relPosition = position - display_NUM_COM;
 812:Generated_Source\PSoC5/display.c ****             display_segMBuffer[relPosition] = display_CLEAR;
 813:Generated_Source\PSoC5/display.c ****         #endif /* (display_NUM_SEG > 8u) */
 814:Generated_Source\PSoC5/display.c ****     }
 815:Generated_Source\PSoC5/display.c ****     else
 816:Generated_Source\PSoC5/display.c ****     {
 817:Generated_Source\PSoC5/display.c ****         #if (display_NUM_SEG > 16u)
 818:Generated_Source\PSoC5/display.c ****             relPosition = position - display_TWO_NUM_COM;
 819:Generated_Source\PSoC5/display.c ****             if(relPosition < display_NUM_COM)
 820:Generated_Source\PSoC5/display.c ****             {
 821:Generated_Source\PSoC5/display.c ****                 display_segHBuffer[relPosition] = display_CLEAR;
 822:Generated_Source\PSoC5/display.c ****             }
 823:Generated_Source\PSoC5/display.c ****         #endif /* (display_NUM_SEG > 16u) */
 824:Generated_Source\PSoC5/display.c ****     }
 825:Generated_Source\PSoC5/display.c **** }
 826:Generated_Source\PSoC5/display.c **** 
 827:Generated_Source\PSoC5/display.c **** 
 828:Generated_Source\PSoC5/display.c **** /*******************************************************************************
 829:Generated_Source\PSoC5/display.c **** * Function Name: display_ClearDisplayAll
 830:Generated_Source\PSoC5/display.c **** ********************************************************************************
 831:Generated_Source\PSoC5/display.c **** *
 832:Generated_Source\PSoC5/display.c **** * Summary:
 833:Generated_Source\PSoC5/display.c **** *  Clears the entire display by writing zeros to all the display RAM locations.
 834:Generated_Source\PSoC5/display.c **** *
 835:Generated_Source\PSoC5/display.c **** * Parameters:
 836:Generated_Source\PSoC5/display.c **** *  None
 837:Generated_Source\PSoC5/display.c **** *
 838:Generated_Source\PSoC5/display.c **** * Return:
 839:Generated_Source\PSoC5/display.c **** *  None
 840:Generated_Source\PSoC5/display.c **** *
 841:Generated_Source\PSoC5/display.c **** * Side effects:
 842:Generated_Source\PSoC5/display.c **** *  None
 843:Generated_Source\PSoC5/display.c **** *
 844:Generated_Source\PSoC5/display.c **** *******************************************************************************/
 845:Generated_Source\PSoC5/display.c **** void display_ClearDisplayAll(void) 
 846:Generated_Source\PSoC5/display.c **** {
 726              		.loc 1 846 0
 727              		.cfi_startproc
 728              		@ args = 0, pretend = 0, frame = 0
 729              		@ frame_needed = 0, uses_anonymous_args = 0
 730              		@ link register save eliminated.
ARM GAS  C:\Users\Dell\AppData\Local\Temp\ccFHrQg5.s 			page 29


 731              	.LVL89:
 847:Generated_Source\PSoC5/display.c ****     uint8 position;
 848:Generated_Source\PSoC5/display.c ****     
 849:Generated_Source\PSoC5/display.c ****     for(position = 0u; position < display_NUM_COM; position++)
 732              		.loc 1 849 0
 733 0000 0023     		movs	r3, #0
 734 0002 04E0     		b	.L68
 735              	.LVL90:
 736              	.L69:
 850:Generated_Source\PSoC5/display.c ****     {
 851:Generated_Source\PSoC5/display.c ****         display_segLBuffer[position] = display_CLEAR; 
 737              		.loc 1 851 0 discriminator 3
 738 0004 FF21     		movs	r1, #255
 739 0006 034A     		ldr	r2, .L70
 740 0008 D154     		strb	r1, [r2, r3]
 849:Generated_Source\PSoC5/display.c ****     {
 741              		.loc 1 849 0 discriminator 3
 742 000a 0133     		adds	r3, r3, #1
 743              	.LVL91:
 744 000c DBB2     		uxtb	r3, r3
 745              	.LVL92:
 746              	.L68:
 849:Generated_Source\PSoC5/display.c ****     {
 747              		.loc 1 849 0 is_stmt 0 discriminator 1
 748 000e 012B     		cmp	r3, #1
 749 0010 F8D9     		bls	.L69
 852:Generated_Source\PSoC5/display.c ****         
 853:Generated_Source\PSoC5/display.c ****         #if (display_NUM_SEG > 8u) 
 854:Generated_Source\PSoC5/display.c ****             display_segMBuffer[position] = display_CLEAR;
 855:Generated_Source\PSoC5/display.c ****         #endif /* (display_NUM_SEG > 8u) */
 856:Generated_Source\PSoC5/display.c ****         
 857:Generated_Source\PSoC5/display.c ****         #if (display_NUM_SEG > 16u)
 858:Generated_Source\PSoC5/display.c ****             display_segHBuffer[position] = display_CLEAR;
 859:Generated_Source\PSoC5/display.c ****         #endif /* (display_NUM_SEG > 16u) */
 860:Generated_Source\PSoC5/display.c ****     }
 861:Generated_Source\PSoC5/display.c **** }
 750              		.loc 1 861 0 is_stmt 1
 751 0012 7047     		bx	lr
 752              	.L71:
 753              		.align	2
 754              	.L70:
 755 0014 00000000 		.word	display_segLBuffer
 756              		.cfi_endproc
 757              	.LFE13:
 758              		.size	display_ClearDisplayAll, .-display_ClearDisplayAll
 759              		.section	.text.display_Init,"ax",%progbits
 760              		.align	2
 761              		.global	display_Init
 762              		.thumb
 763              		.thumb_func
 764              		.type	display_Init, %function
 765              	display_Init:
 766              	.LFB3:
 363:Generated_Source\PSoC5/display.c ****     static uint8 display_dmaInitDone = 0u;
 767              		.loc 1 363 0
 768              		.cfi_startproc
 769              		@ args = 0, pretend = 0, frame = 0
ARM GAS  C:\Users\Dell\AppData\Local\Temp\ccFHrQg5.s 			page 30


 770              		@ frame_needed = 0, uses_anonymous_args = 0
 771 0000 08B5     		push	{r3, lr}
 772              		.cfi_def_cfa_offset 8
 773              		.cfi_offset 3, -8
 774              		.cfi_offset 14, -4
 370:Generated_Source\PSoC5/display.c ****     
 775              		.loc 1 370 0
 776 0002 FFF7FEFF 		bl	display_ClearDisplayAll
 777              	.LVL93:
 373:Generated_Source\PSoC5/display.c ****     {
 778              		.loc 1 373 0
 779 0006 094B     		ldr	r3, .L77
 780 0008 DB7C     		ldrb	r3, [r3, #19]	@ zero_extendqisi2
 781 000a 23B9     		cbnz	r3, .L73
 375:Generated_Source\PSoC5/display.c ****         display_dmaInitDone = 1u;
 782              		.loc 1 375 0
 783 000c FFF7FEFF 		bl	display_DmaInit
 784              	.LVL94:
 376:Generated_Source\PSoC5/display.c ****     }
 785              		.loc 1 376 0
 786 0010 0122     		movs	r2, #1
 787 0012 064B     		ldr	r3, .L77
 788 0014 DA74     		strb	r2, [r3, #19]
 789              	.L73:
 363:Generated_Source\PSoC5/display.c ****     static uint8 display_dmaInitDone = 0u;
 790              		.loc 1 363 0 discriminator 1
 791 0016 0023     		movs	r3, #0
 792 0018 05E0     		b	.L74
 793              	.LVL95:
 794              	.L75:
 383:Generated_Source\PSoC5/display.c ****         }
 795              		.loc 1 383 0 discriminator 3
 796 001a 044A     		ldr	r2, .L77
 797 001c 1A44     		add	r2, r2, r3
 798 001e FF21     		movs	r1, #255
 799 0020 1174     		strb	r1, [r2, #16]
 381:Generated_Source\PSoC5/display.c ****         {
 800              		.loc 1 381 0 discriminator 3
 801 0022 0133     		adds	r3, r3, #1
 802              	.LVL96:
 803 0024 DBB2     		uxtb	r3, r3
 804              	.LVL97:
 805              	.L74:
 381:Generated_Source\PSoC5/display.c ****         {
 806              		.loc 1 381 0 is_stmt 0 discriminator 1
 807 0026 012B     		cmp	r3, #1
 808 0028 F7D9     		bls	.L75
 386:Generated_Source\PSoC5/display.c **** 
 809              		.loc 1 386 0 is_stmt 1
 810 002a 08BD     		pop	{r3, pc}
 811              	.LVL98:
 812              	.L78:
 813              		.align	2
 814              	.L77:
 815 002c 00000000 		.word	.LANCHOR0
 816              		.cfi_endproc
 817              	.LFE3:
ARM GAS  C:\Users\Dell\AppData\Local\Temp\ccFHrQg5.s 			page 31


 818              		.size	display_Init, .-display_Init
 819              		.section	.text.display_Start,"ax",%progbits
 820              		.align	2
 821              		.global	display_Start
 822              		.thumb
 823              		.thumb_func
 824              		.type	display_Start, %function
 825              	display_Start:
 826              	.LFB5:
 445:Generated_Source\PSoC5/display.c ****     if(0u == display_initVar)
 827              		.loc 1 445 0
 828              		.cfi_startproc
 829              		@ args = 0, pretend = 0, frame = 0
 830              		@ frame_needed = 0, uses_anonymous_args = 0
 831 0000 08B5     		push	{r3, lr}
 832              		.cfi_def_cfa_offset 8
 833              		.cfi_offset 3, -8
 834              		.cfi_offset 14, -4
 446:Generated_Source\PSoC5/display.c ****     {
 835              		.loc 1 446 0
 836 0002 054B     		ldr	r3, .L82
 837 0004 1B7D     		ldrb	r3, [r3, #20]	@ zero_extendqisi2
 838 0006 23B9     		cbnz	r3, .L80
 448:Generated_Source\PSoC5/display.c ****         display_initVar = 1u;
 839              		.loc 1 448 0
 840 0008 FFF7FEFF 		bl	display_Init
 841              	.LVL99:
 449:Generated_Source\PSoC5/display.c ****     }
 842              		.loc 1 449 0
 843 000c 0122     		movs	r2, #1
 844 000e 024B     		ldr	r3, .L82
 845 0010 1A75     		strb	r2, [r3, #20]
 846              	.L80:
 452:Generated_Source\PSoC5/display.c **** }
 847              		.loc 1 452 0
 848 0012 FFF7FEFF 		bl	display_Enable
 849              	.LVL100:
 850 0016 08BD     		pop	{r3, pc}
 851              	.L83:
 852              		.align	2
 853              	.L82:
 854 0018 00000000 		.word	.LANCHOR0
 855              		.cfi_endproc
 856              	.LFE5:
 857              		.size	display_Start, .-display_Start
 858              		.section	.text.display_Stop,"ax",%progbits
 859              		.align	2
 860              		.global	display_Stop
 861              		.thumb
 862              		.thumb_func
 863              		.type	display_Stop, %function
 864              	display_Stop:
 865              	.LFB6:
 475:Generated_Source\PSoC5/display.c ****     #if (display_BRIGHTNESS_EN == display_ENABLED)
 866              		.loc 1 475 0
 867              		.cfi_startproc
 868              		@ args = 0, pretend = 0, frame = 0
ARM GAS  C:\Users\Dell\AppData\Local\Temp\ccFHrQg5.s 			page 32


 869              		@ frame_needed = 0, uses_anonymous_args = 0
 870 0000 10B5     		push	{r4, lr}
 871              		.cfi_def_cfa_offset 8
 872              		.cfi_offset 4, -8
 873              		.cfi_offset 14, -4
 478:Generated_Source\PSoC5/display.c ****     #endif /* (display_BRIGHTNESS_EN == display_ENABLED) */
 874              		.loc 1 478 0
 875 0002 0024     		movs	r4, #0
 876 0004 044B     		ldr	r3, .L86
 877 0006 1C70     		strb	r4, [r3]
 481:Generated_Source\PSoC5/display.c ****     display_ClearDisplayAll();
 878              		.loc 1 481 0
 879 0008 FFF7FEFF 		bl	display_DmaDisable
 880              	.LVL101:
 482:Generated_Source\PSoC5/display.c ****     
 881              		.loc 1 482 0
 882 000c FFF7FEFF 		bl	display_ClearDisplayAll
 883              	.LVL102:
 484:Generated_Source\PSoC5/display.c **** }
 884              		.loc 1 484 0
 885 0010 024B     		ldr	r3, .L86+4
 886 0012 9C74     		strb	r4, [r3, #18]
 887 0014 10BD     		pop	{r4, pc}
 888              	.L87:
 889 0016 00BF     		.align	2
 890              	.L86:
 891 0018 74650040 		.word	1073767796
 892 001c 00000000 		.word	.LANCHOR0
 893              		.cfi_endproc
 894              	.LFE6:
 895              		.size	display_Stop, .-display_Stop
 896              		.section	.text.display_PutDecimalPoint,"ax",%progbits
 897              		.align	2
 898              		.global	display_PutDecimalPoint
 899              		.thumb
 900              		.thumb_func
 901              		.type	display_PutDecimalPoint, %function
 902              	display_PutDecimalPoint:
 903              	.LFB32:
 862:Generated_Source\PSoC5/display.c **** 
 863:Generated_Source\PSoC5/display.c **** 
 864:Generated_Source\PSoC5/display.c **** /*******************************************************************************
 865:Generated_Source\PSoC5/display.c **** * Function Name: display_Write7SegNumberDec
 866:Generated_Source\PSoC5/display.c **** ********************************************************************************
 867:Generated_Source\PSoC5/display.c **** *
 868:Generated_Source\PSoC5/display.c **** * Summary:
 869:Generated_Source\PSoC5/display.c **** *  Displays a signed integer up to 8 characters long, starting at 'position' 
 870:Generated_Source\PSoC5/display.c **** *  and extending for 'digits' characters. The negative sign will consume one 
 871:Generated_Source\PSoC5/display.c **** *  digit if it is required. If you do not use the correct number of digits for
 872:Generated_Source\PSoC5/display.c **** *  your number, the least significant digits will be displayed. For example, 
 873:Generated_Source\PSoC5/display.c **** *  if value is -1234, display is 0 and digits is 4, the result will be: -234.
 874:Generated_Source\PSoC5/display.c **** *
 875:Generated_Source\PSoC5/display.c **** * Parameters:
 876:Generated_Source\PSoC5/display.c **** *  int32 number: a signed integer number to display. It is the responsibility 
 877:Generated_Source\PSoC5/display.c **** *                of the user to ensure that the display has enough digits to 
 878:Generated_Source\PSoC5/display.c **** *                accurately represent the number passed to this function. If 
 879:Generated_Source\PSoC5/display.c **** *                not, the least significant digits will be displayed. Also note
ARM GAS  C:\Users\Dell\AppData\Local\Temp\ccFHrQg5.s 			page 33


 880:Generated_Source\PSoC5/display.c **** *                that a negative number will require 1 more digit than the
 881:Generated_Source\PSoC5/display.c **** *                equivalent positive number to display the negative sign.
 882:Generated_Source\PSoC5/display.c **** *  uint8 position: Digit position of the Display/Common RAM to start.
 883:Generated_Source\PSoC5/display.c **** *  uint8 digits: The number of digits you wish to use to display the value 
 884:Generated_Source\PSoC5/display.c **** *                passed into the function. The negative sign will consume one 
 885:Generated_Source\PSoC5/display.c **** *                digit if it is required.
 886:Generated_Source\PSoC5/display.c **** *  uint8 alignment: How to align the provided number in the allocated digits.
 887:Generated_Source\PSoC5/display.c **** *       RIGHT_ALIGN - Least significant digit occupies the rightmost digit
 888:Generated_Source\PSoC5/display.c **** *                     (position + digits). Unused digits are turned off unless
 889:Generated_Source\PSoC5/display.c **** *                     ZERO_PAD enabled.
 890:Generated_Source\PSoC5/display.c **** *       LEFT_ALIGN - Most significant digit (or negative sign) occupies the
 891:Generated_Source\PSoC5/display.c **** *                    digit specified by position. Unused digits are turned off.
 892:Generated_Source\PSoC5/display.c **** *       ZERO_PAD - Unused digits to the left are padded with leading zeros.
 893:Generated_Source\PSoC5/display.c **** *
 894:Generated_Source\PSoC5/display.c **** * Return:
 895:Generated_Source\PSoC5/display.c **** *  None
 896:Generated_Source\PSoC5/display.c **** *
 897:Generated_Source\PSoC5/display.c **** * Side effects:
 898:Generated_Source\PSoC5/display.c **** *  None
 899:Generated_Source\PSoC5/display.c **** *
 900:Generated_Source\PSoC5/display.c **** *******************************************************************************/
 901:Generated_Source\PSoC5/display.c **** void display_Write7SegNumberDec(int32 number, uint8 position, uint8 digits, uint8 alignment)
 902:Generated_Source\PSoC5/display.c **** 
 903:Generated_Source\PSoC5/display.c **** {
 904:Generated_Source\PSoC5/display.c ****     uint8 i;
 905:Generated_Source\PSoC5/display.c ****     uint8 relPosition;
 906:Generated_Source\PSoC5/display.c ****     uint8 choiceReg;
 907:Generated_Source\PSoC5/display.c ****     uint8 numberSign;
 908:Generated_Source\PSoC5/display.c ****     uint8 selectVal;
 909:Generated_Source\PSoC5/display.c ****     uint8 zeroCount = 0u;
 910:Generated_Source\PSoC5/display.c ****     uint8 bufArray[8u] = {0u};
 911:Generated_Source\PSoC5/display.c ****     uint32 numberVal;
 912:Generated_Source\PSoC5/display.c ****         
 913:Generated_Source\PSoC5/display.c ****     /* Choose to use either the low, mid or high control registers */
 914:Generated_Source\PSoC5/display.c ****     if(position < display_NUM_COM)
 915:Generated_Source\PSoC5/display.c ****     {
 916:Generated_Source\PSoC5/display.c ****         choiceReg = display_SEG_REG_LOW;
 917:Generated_Source\PSoC5/display.c ****         relPosition = position;
 918:Generated_Source\PSoC5/display.c ****     }
 919:Generated_Source\PSoC5/display.c ****     else if (position < display_TWO_NUM_COM)
 920:Generated_Source\PSoC5/display.c ****     {
 921:Generated_Source\PSoC5/display.c ****         choiceReg = display_SEG_REG_MID;
 922:Generated_Source\PSoC5/display.c ****         relPosition = position - display_NUM_COM;
 923:Generated_Source\PSoC5/display.c ****     }
 924:Generated_Source\PSoC5/display.c ****     else
 925:Generated_Source\PSoC5/display.c ****     {
 926:Generated_Source\PSoC5/display.c ****         choiceReg = display_SEG_REG_HIGH;
 927:Generated_Source\PSoC5/display.c ****         relPosition = position - display_TWO_NUM_COM;
 928:Generated_Source\PSoC5/display.c ****     }
 929:Generated_Source\PSoC5/display.c ****     
 930:Generated_Source\PSoC5/display.c ****     /* Routine to extract the sign and to convert to unsigned */
 931:Generated_Source\PSoC5/display.c ****     if(number >= display_ZERO_NEG)
 932:Generated_Source\PSoC5/display.c ****     {
 933:Generated_Source\PSoC5/display.c ****         numberVal = (uint32)number;
 934:Generated_Source\PSoC5/display.c ****         numberSign = display_UNSIGNED;
 935:Generated_Source\PSoC5/display.c ****     }
 936:Generated_Source\PSoC5/display.c ****     else
ARM GAS  C:\Users\Dell\AppData\Local\Temp\ccFHrQg5.s 			page 34


 937:Generated_Source\PSoC5/display.c ****     {
 938:Generated_Source\PSoC5/display.c ****         numberVal = (uint32)(-number);
 939:Generated_Source\PSoC5/display.c ****         numberSign = display_SIGNED;
 940:Generated_Source\PSoC5/display.c ****     }
 941:Generated_Source\PSoC5/display.c ****     
 942:Generated_Source\PSoC5/display.c ****     /* Fill up the temporary array */
 943:Generated_Source\PSoC5/display.c ****     for(i = digits; i > 0u; i--)
 944:Generated_Source\PSoC5/display.c ****     {
 945:Generated_Source\PSoC5/display.c ****         selectVal = (uint8)(numberVal % 10u);
 946:Generated_Source\PSoC5/display.c ****         bufArray[i-1u] = display_EncodeNumber7Seg(selectVal);
 947:Generated_Source\PSoC5/display.c ****         numberVal = numberVal / 10u;
 948:Generated_Source\PSoC5/display.c ****     }
 949:Generated_Source\PSoC5/display.c ****     
 950:Generated_Source\PSoC5/display.c ****     /* Clean up the array and place sign if needed */
 951:Generated_Source\PSoC5/display.c ****     if(alignment == display_ZERO_PAD)
 952:Generated_Source\PSoC5/display.c ****     {
 953:Generated_Source\PSoC5/display.c ****         if(numberSign == display_SIGNED)
 954:Generated_Source\PSoC5/display.c ****         {
 955:Generated_Source\PSoC5/display.c ****             /* Place sign on the MSB */
 956:Generated_Source\PSoC5/display.c ****             bufArray[0u] = display_EncodeChar7Seg('-');
 957:Generated_Source\PSoC5/display.c ****         }
 958:Generated_Source\PSoC5/display.c ****     }
 959:Generated_Source\PSoC5/display.c ****     else
 960:Generated_Source\PSoC5/display.c ****     {
 961:Generated_Source\PSoC5/display.c ****         for(i = 0u; i < digits; i++)
 962:Generated_Source\PSoC5/display.c ****         {
 963:Generated_Source\PSoC5/display.c ****             if (bufArray[i] != display_ZERO_7CHAR)
 964:Generated_Source\PSoC5/display.c ****             {
 965:Generated_Source\PSoC5/display.c ****                 if(numberSign == display_SIGNED)
 966:Generated_Source\PSoC5/display.c ****                 {
 967:Generated_Source\PSoC5/display.c ****                     if(i == 0u)
 968:Generated_Source\PSoC5/display.c ****                     {
 969:Generated_Source\PSoC5/display.c ****                         /* Place sign on the MSB */
 970:Generated_Source\PSoC5/display.c ****                         bufArray[i] = display_EncodeChar7Seg('-');
 971:Generated_Source\PSoC5/display.c ****                     }
 972:Generated_Source\PSoC5/display.c ****                     else
 973:Generated_Source\PSoC5/display.c ****                     {
 974:Generated_Source\PSoC5/display.c ****                         /* Place sign before MSB */
 975:Generated_Source\PSoC5/display.c ****                         bufArray[i-1u] = display_EncodeChar7Seg('-');
 976:Generated_Source\PSoC5/display.c ****                     }
 977:Generated_Source\PSoC5/display.c ****                 }
 978:Generated_Source\PSoC5/display.c ****                 /* Exit when encountering non-zero number */
 979:Generated_Source\PSoC5/display.c ****                 break;
 980:Generated_Source\PSoC5/display.c ****             }
 981:Generated_Source\PSoC5/display.c ****             else
 982:Generated_Source\PSoC5/display.c ****             {
 983:Generated_Source\PSoC5/display.c ****                 if(zeroCount != (digits - 1u))
 984:Generated_Source\PSoC5/display.c ****                 {
 985:Generated_Source\PSoC5/display.c ****                     /* Turn off the display */
 986:Generated_Source\PSoC5/display.c ****                     bufArray[i] = display_CLEAR;
 987:Generated_Source\PSoC5/display.c ****                     zeroCount++;
 988:Generated_Source\PSoC5/display.c ****                 }
 989:Generated_Source\PSoC5/display.c ****             }    
 990:Generated_Source\PSoC5/display.c ****         }
 991:Generated_Source\PSoC5/display.c ****     }
 992:Generated_Source\PSoC5/display.c ****     
 993:Generated_Source\PSoC5/display.c ****     /* Place the values in the segment array according to alignment */
ARM GAS  C:\Users\Dell\AppData\Local\Temp\ccFHrQg5.s 			page 35


 994:Generated_Source\PSoC5/display.c ****     if(alignment == display_LEFT_ALIGN)
 995:Generated_Source\PSoC5/display.c ****     {
 996:Generated_Source\PSoC5/display.c ****         for(i = 0u; i < digits; i++)
 997:Generated_Source\PSoC5/display.c ****         {
 998:Generated_Source\PSoC5/display.c ****             if(bufArray[i] != display_CLEAR)
 999:Generated_Source\PSoC5/display.c ****             {
1000:Generated_Source\PSoC5/display.c ****                 if(relPosition < display_NUM_COM)
1001:Generated_Source\PSoC5/display.c ****                 {
1002:Generated_Source\PSoC5/display.c ****                     /* Only show displays that are not empty */
1003:Generated_Source\PSoC5/display.c ****                     switch(choiceReg)
1004:Generated_Source\PSoC5/display.c ****                     {
1005:Generated_Source\PSoC5/display.c ****                         case display_SEG_REG_LOW :
1006:Generated_Source\PSoC5/display.c ****                             display_segLBuffer[relPosition] = bufArray[i];
1007:Generated_Source\PSoC5/display.c ****                             break;
1008:Generated_Source\PSoC5/display.c ****                         case display_SEG_REG_MID :
1009:Generated_Source\PSoC5/display.c ****                             #if (display_NUM_SEG > 8u)
1010:Generated_Source\PSoC5/display.c ****                                 display_segMBuffer[relPosition] = bufArray[i];
1011:Generated_Source\PSoC5/display.c ****                             #endif /* (display_NUM_SEG > 8u) */
1012:Generated_Source\PSoC5/display.c ****                             break;
1013:Generated_Source\PSoC5/display.c ****                         case display_SEG_REG_HIGH :
1014:Generated_Source\PSoC5/display.c ****                             #if (display_NUM_SEG > 16u)
1015:Generated_Source\PSoC5/display.c ****                                 display_segHBuffer[relPosition] = bufArray[i];
1016:Generated_Source\PSoC5/display.c ****                             #endif /* (display_NUM_SEG > 16u) */
1017:Generated_Source\PSoC5/display.c ****                             break;
1018:Generated_Source\PSoC5/display.c ****                         default :
1019:Generated_Source\PSoC5/display.c ****                             display_segLBuffer[relPosition] = bufArray[i];
1020:Generated_Source\PSoC5/display.c ****                             break;
1021:Generated_Source\PSoC5/display.c ****                     }
1022:Generated_Source\PSoC5/display.c ****                 }
1023:Generated_Source\PSoC5/display.c ****                 relPosition++;
1024:Generated_Source\PSoC5/display.c ****             }
1025:Generated_Source\PSoC5/display.c ****         }
1026:Generated_Source\PSoC5/display.c ****         /* Clear the rest of the positions to the right of value */
1027:Generated_Source\PSoC5/display.c ****         while(relPosition < digits)
1028:Generated_Source\PSoC5/display.c ****         {
1029:Generated_Source\PSoC5/display.c ****             switch(choiceReg)
1030:Generated_Source\PSoC5/display.c ****             {
1031:Generated_Source\PSoC5/display.c ****                 case display_SEG_REG_LOW :
1032:Generated_Source\PSoC5/display.c ****                     display_segLBuffer[relPosition] = display_CLEAR;
1033:Generated_Source\PSoC5/display.c ****                     break;
1034:Generated_Source\PSoC5/display.c ****                 case display_SEG_REG_MID :
1035:Generated_Source\PSoC5/display.c ****                     #if (display_NUM_SEG > 8u)
1036:Generated_Source\PSoC5/display.c ****                         display_segMBuffer[relPosition] = display_CLEAR;
1037:Generated_Source\PSoC5/display.c ****                     #endif /* (display_NUM_SEG > 8u) */
1038:Generated_Source\PSoC5/display.c ****                     break;
1039:Generated_Source\PSoC5/display.c ****                 case display_SEG_REG_HIGH :
1040:Generated_Source\PSoC5/display.c ****                     #if (display_NUM_SEG > 16u)
1041:Generated_Source\PSoC5/display.c ****                         display_segHBuffer[relPosition] = display_CLEAR;
1042:Generated_Source\PSoC5/display.c ****                     #endif /* (display_NUM_SEG > 16u) */
1043:Generated_Source\PSoC5/display.c ****                     break;
1044:Generated_Source\PSoC5/display.c ****                 default :
1045:Generated_Source\PSoC5/display.c ****                     display_segLBuffer[relPosition] = display_CLEAR;
1046:Generated_Source\PSoC5/display.c ****                     break;
1047:Generated_Source\PSoC5/display.c ****             }
1048:Generated_Source\PSoC5/display.c ****             relPosition++;
1049:Generated_Source\PSoC5/display.c ****         }
1050:Generated_Source\PSoC5/display.c ****     }
ARM GAS  C:\Users\Dell\AppData\Local\Temp\ccFHrQg5.s 			page 36


1051:Generated_Source\PSoC5/display.c ****     else
1052:Generated_Source\PSoC5/display.c ****     {
1053:Generated_Source\PSoC5/display.c ****         /* Alignment for Right and zero padded */
1054:Generated_Source\PSoC5/display.c ****         for(i = digits; i > 0u; i--)
1055:Generated_Source\PSoC5/display.c ****         {
1056:Generated_Source\PSoC5/display.c ****             if(((i + relPosition) - 1u) < display_NUM_COM)
1057:Generated_Source\PSoC5/display.c ****             {
1058:Generated_Source\PSoC5/display.c ****                 /* Decide which row to use */
1059:Generated_Source\PSoC5/display.c ****                 switch(choiceReg)
1060:Generated_Source\PSoC5/display.c ****                 {
1061:Generated_Source\PSoC5/display.c ****                     case display_SEG_REG_LOW :
1062:Generated_Source\PSoC5/display.c ****                         display_segLBuffer[(i + relPosition) - 1u] = bufArray[i-1u];
1063:Generated_Source\PSoC5/display.c ****                         break;
1064:Generated_Source\PSoC5/display.c ****                     case display_SEG_REG_MID :
1065:Generated_Source\PSoC5/display.c ****                         #if (display_NUM_SEG > 8u)
1066:Generated_Source\PSoC5/display.c ****                             display_segMBuffer[(i + relPosition) - 1u] = bufArray[i-1u];
1067:Generated_Source\PSoC5/display.c ****                         #endif /* (display_NUM_SEG > 8u) */
1068:Generated_Source\PSoC5/display.c ****                         break;
1069:Generated_Source\PSoC5/display.c ****                     case display_SEG_REG_HIGH :
1070:Generated_Source\PSoC5/display.c ****                         #if (display_NUM_SEG > 16u)
1071:Generated_Source\PSoC5/display.c ****                             display_segHBuffer[(i + relPosition) - 1u] = bufArray[i-1u];
1072:Generated_Source\PSoC5/display.c ****                         #endif /* (display_NUM_SEG > 16u) */
1073:Generated_Source\PSoC5/display.c ****                         break;
1074:Generated_Source\PSoC5/display.c ****                     default :
1075:Generated_Source\PSoC5/display.c ****                         display_segLBuffer[(i + relPosition) - 1u] = bufArray[i-1u];
1076:Generated_Source\PSoC5/display.c ****                         break;
1077:Generated_Source\PSoC5/display.c ****                 }
1078:Generated_Source\PSoC5/display.c ****             }
1079:Generated_Source\PSoC5/display.c ****         }
1080:Generated_Source\PSoC5/display.c ****     }
1081:Generated_Source\PSoC5/display.c **** }
1082:Generated_Source\PSoC5/display.c **** 
1083:Generated_Source\PSoC5/display.c **** 
1084:Generated_Source\PSoC5/display.c **** /*******************************************************************************
1085:Generated_Source\PSoC5/display.c **** * Function Name: display_Write7SegNumberHex
1086:Generated_Source\PSoC5/display.c **** ********************************************************************************
1087:Generated_Source\PSoC5/display.c **** *
1088:Generated_Source\PSoC5/display.c **** * Summary:
1089:Generated_Source\PSoC5/display.c **** *  Displays a hexadecimal number up to 8 characters long, starting at 'position'
1090:Generated_Source\PSoC5/display.c **** *  and extending for 'digits' characters. If you do not use the correct number 
1091:Generated_Source\PSoC5/display.c **** *  of digits for your number, the least significant digits will be displayed. 
1092:Generated_Source\PSoC5/display.c **** *  For example, if value is 0xDEADBEEF, display is 0 and digits is 4, the result 
1093:Generated_Source\PSoC5/display.c **** *  will be: BEEF.
1094:Generated_Source\PSoC5/display.c **** *
1095:Generated_Source\PSoC5/display.c **** * Parameters:
1096:Generated_Source\PSoC5/display.c **** *  uint32 number: The hexadecimal number to display. It is the responsibility of
1097:Generated_Source\PSoC5/display.c **** *                 the user to ensure that the display has enough digits to 
1098:Generated_Source\PSoC5/display.c **** *                 accurately representthe number passed to this function. If 
1099:Generated_Source\PSoC5/display.c **** *                 not, the least significant digits will be displayed.
1100:Generated_Source\PSoC5/display.c **** *  uint8 position: Position of the Display/Common to start number.
1101:Generated_Source\PSoC5/display.c **** *  uint8 digits: The number of digits you wish to use to display the value 
1102:Generated_Source\PSoC5/display.c **** *                passed into the function. If you do not use the correct number 
1103:Generated_Source\PSoC5/display.c **** *                of digits for your number, the least significant digits will be
1104:Generated_Source\PSoC5/display.c **** *                displayed.
1105:Generated_Source\PSoC5/display.c **** *  uint8 alignment: How to align the provided number in the allocated digits.
1106:Generated_Source\PSoC5/display.c **** *       RIGHT_ALIGN - Least significant digit occupies the rightmost digit
1107:Generated_Source\PSoC5/display.c **** *                     (position + digits). Unused digits are turned off unless
ARM GAS  C:\Users\Dell\AppData\Local\Temp\ccFHrQg5.s 			page 37


1108:Generated_Source\PSoC5/display.c **** *                     ZERO_PAD enabled.
1109:Generated_Source\PSoC5/display.c **** *       LEFT_ALIGN - Most significant digit (or negative sign) occupies the
1110:Generated_Source\PSoC5/display.c **** *                    digit specified by position. Unused digits are turned off.
1111:Generated_Source\PSoC5/display.c **** *       ZERO_PAD - Unused digits to the left are padded with leading zeros.
1112:Generated_Source\PSoC5/display.c **** *
1113:Generated_Source\PSoC5/display.c **** * Return:
1114:Generated_Source\PSoC5/display.c **** *  None
1115:Generated_Source\PSoC5/display.c **** *
1116:Generated_Source\PSoC5/display.c **** * Side effects:
1117:Generated_Source\PSoC5/display.c **** *  None
1118:Generated_Source\PSoC5/display.c **** *
1119:Generated_Source\PSoC5/display.c **** *******************************************************************************/
1120:Generated_Source\PSoC5/display.c **** void display_Write7SegNumberHex(uint32 number, uint8 position, uint8 digits, uint8 alignment)
1121:Generated_Source\PSoC5/display.c **** 
1122:Generated_Source\PSoC5/display.c **** {
1123:Generated_Source\PSoC5/display.c ****     uint8 i;
1124:Generated_Source\PSoC5/display.c ****     uint8 relPosition;
1125:Generated_Source\PSoC5/display.c ****     uint8 choiceReg;
1126:Generated_Source\PSoC5/display.c ****     uint8 selectVal;
1127:Generated_Source\PSoC5/display.c ****     uint8 zeroCount = 0u;
1128:Generated_Source\PSoC5/display.c ****     uint8 bufArray[8u] = {0u};
1129:Generated_Source\PSoC5/display.c ****     uint32 numberVal;
1130:Generated_Source\PSoC5/display.c ****         
1131:Generated_Source\PSoC5/display.c ****     numberVal = number;
1132:Generated_Source\PSoC5/display.c ****     
1133:Generated_Source\PSoC5/display.c ****     /* Choose to use either the low, mid or high control registers */
1134:Generated_Source\PSoC5/display.c ****     if(position < display_NUM_COM)
1135:Generated_Source\PSoC5/display.c ****     {
1136:Generated_Source\PSoC5/display.c ****         choiceReg = display_SEG_REG_LOW;
1137:Generated_Source\PSoC5/display.c ****         relPosition = position;
1138:Generated_Source\PSoC5/display.c ****     }
1139:Generated_Source\PSoC5/display.c ****     else if (position < display_TWO_NUM_COM)
1140:Generated_Source\PSoC5/display.c ****     {
1141:Generated_Source\PSoC5/display.c ****         choiceReg = display_SEG_REG_MID;
1142:Generated_Source\PSoC5/display.c ****         relPosition = position - display_NUM_COM;
1143:Generated_Source\PSoC5/display.c ****     }
1144:Generated_Source\PSoC5/display.c ****     else
1145:Generated_Source\PSoC5/display.c ****     {
1146:Generated_Source\PSoC5/display.c ****         choiceReg = display_SEG_REG_HIGH;
1147:Generated_Source\PSoC5/display.c ****         relPosition = position - display_TWO_NUM_COM;
1148:Generated_Source\PSoC5/display.c ****     }
1149:Generated_Source\PSoC5/display.c ****     
1150:Generated_Source\PSoC5/display.c ****     /* Fill up the temporary array */
1151:Generated_Source\PSoC5/display.c ****     for(i = digits; i > 0u; i--)
1152:Generated_Source\PSoC5/display.c ****     {
1153:Generated_Source\PSoC5/display.c ****         selectVal = (uint8)((uint8)numberVal & display_NIBBLE_MASK);
1154:Generated_Source\PSoC5/display.c ****         bufArray[i-1u] = display_EncodeNumber7Seg(selectVal);
1155:Generated_Source\PSoC5/display.c ****         numberVal = (uint32)((uint32)numberVal >> display_SHIFT_NIBBLE);
1156:Generated_Source\PSoC5/display.c ****     }
1157:Generated_Source\PSoC5/display.c ****     
1158:Generated_Source\PSoC5/display.c ****     /* Clean up the array */
1159:Generated_Source\PSoC5/display.c ****     if(alignment != display_ZERO_PAD)
1160:Generated_Source\PSoC5/display.c ****     {
1161:Generated_Source\PSoC5/display.c ****         for(i = 0u; i < digits; i++)
1162:Generated_Source\PSoC5/display.c ****         {
1163:Generated_Source\PSoC5/display.c ****             if (bufArray[i] != display_ZERO_7CHAR)
1164:Generated_Source\PSoC5/display.c ****             {
ARM GAS  C:\Users\Dell\AppData\Local\Temp\ccFHrQg5.s 			page 38


1165:Generated_Source\PSoC5/display.c ****                 /* Exit when encountering non-zero number */
1166:Generated_Source\PSoC5/display.c ****                 break;
1167:Generated_Source\PSoC5/display.c ****             }
1168:Generated_Source\PSoC5/display.c ****             else
1169:Generated_Source\PSoC5/display.c ****             {
1170:Generated_Source\PSoC5/display.c ****                 if(zeroCount != (digits - 1u))
1171:Generated_Source\PSoC5/display.c ****                 {
1172:Generated_Source\PSoC5/display.c ****                     /* Turn off the display */
1173:Generated_Source\PSoC5/display.c ****                     bufArray[i] = display_CLEAR;
1174:Generated_Source\PSoC5/display.c ****                     zeroCount++;
1175:Generated_Source\PSoC5/display.c ****                 }
1176:Generated_Source\PSoC5/display.c ****             }    
1177:Generated_Source\PSoC5/display.c ****         }
1178:Generated_Source\PSoC5/display.c ****     }
1179:Generated_Source\PSoC5/display.c ****     
1180:Generated_Source\PSoC5/display.c ****     /* Place the values in the segment array according to alignment */
1181:Generated_Source\PSoC5/display.c ****     if(alignment == display_LEFT_ALIGN)
1182:Generated_Source\PSoC5/display.c ****     {
1183:Generated_Source\PSoC5/display.c ****         for(i = 0u; i < digits; i++)
1184:Generated_Source\PSoC5/display.c ****         {
1185:Generated_Source\PSoC5/display.c ****             if(bufArray[i] != display_CLEAR)
1186:Generated_Source\PSoC5/display.c ****             {
1187:Generated_Source\PSoC5/display.c ****                 if(relPosition < display_NUM_COM)
1188:Generated_Source\PSoC5/display.c ****                 {
1189:Generated_Source\PSoC5/display.c ****                     /* Only show displays that are not empty */
1190:Generated_Source\PSoC5/display.c ****                     switch(choiceReg)
1191:Generated_Source\PSoC5/display.c ****                     {
1192:Generated_Source\PSoC5/display.c ****                         case display_SEG_REG_LOW :
1193:Generated_Source\PSoC5/display.c ****                             display_segLBuffer[relPosition] = bufArray[i];
1194:Generated_Source\PSoC5/display.c ****                             break;
1195:Generated_Source\PSoC5/display.c ****                         case display_SEG_REG_MID :
1196:Generated_Source\PSoC5/display.c ****                             #if (display_NUM_SEG > 8u)
1197:Generated_Source\PSoC5/display.c ****                                 display_segMBuffer[relPosition] = bufArray[i];
1198:Generated_Source\PSoC5/display.c ****                             #endif /* (display_NUM_SEG > 8u) */
1199:Generated_Source\PSoC5/display.c ****                             break;
1200:Generated_Source\PSoC5/display.c ****                         case display_SEG_REG_HIGH :
1201:Generated_Source\PSoC5/display.c ****                             #if (display_NUM_SEG > 16u)
1202:Generated_Source\PSoC5/display.c ****                                 display_segHBuffer[relPosition] = bufArray[i];
1203:Generated_Source\PSoC5/display.c ****                             #endif /* (display_NUM_SEG > 16u) */
1204:Generated_Source\PSoC5/display.c ****                             break;
1205:Generated_Source\PSoC5/display.c ****                         default :
1206:Generated_Source\PSoC5/display.c ****                             display_segLBuffer[relPosition] = bufArray[i];
1207:Generated_Source\PSoC5/display.c ****                             break;
1208:Generated_Source\PSoC5/display.c ****                     }
1209:Generated_Source\PSoC5/display.c ****                 }
1210:Generated_Source\PSoC5/display.c ****                 relPosition++;
1211:Generated_Source\PSoC5/display.c ****             }
1212:Generated_Source\PSoC5/display.c ****         }
1213:Generated_Source\PSoC5/display.c ****         /* Clear the rest of the positions to the right of value */
1214:Generated_Source\PSoC5/display.c ****         while(relPosition < digits)
1215:Generated_Source\PSoC5/display.c ****         {
1216:Generated_Source\PSoC5/display.c ****             switch(choiceReg)
1217:Generated_Source\PSoC5/display.c ****             {
1218:Generated_Source\PSoC5/display.c ****                 case display_SEG_REG_LOW :
1219:Generated_Source\PSoC5/display.c ****                     display_segLBuffer[relPosition] = display_CLEAR;
1220:Generated_Source\PSoC5/display.c ****                     break;
1221:Generated_Source\PSoC5/display.c ****                 case display_SEG_REG_MID :
ARM GAS  C:\Users\Dell\AppData\Local\Temp\ccFHrQg5.s 			page 39


1222:Generated_Source\PSoC5/display.c ****                     #if (display_NUM_SEG > 8u)
1223:Generated_Source\PSoC5/display.c ****                         display_segMBuffer[relPosition] = display_CLEAR;
1224:Generated_Source\PSoC5/display.c ****                     #endif /* (display_NUM_SEG > 8u) */
1225:Generated_Source\PSoC5/display.c ****                     break;
1226:Generated_Source\PSoC5/display.c ****                 case display_SEG_REG_HIGH :
1227:Generated_Source\PSoC5/display.c ****                     #if (display_NUM_SEG > 16u)
1228:Generated_Source\PSoC5/display.c ****                         display_segHBuffer[relPosition] = display_CLEAR;
1229:Generated_Source\PSoC5/display.c ****                     #endif /* (display_NUM_SEG > 16u) */
1230:Generated_Source\PSoC5/display.c ****                     break;
1231:Generated_Source\PSoC5/display.c ****                 default :
1232:Generated_Source\PSoC5/display.c ****                     display_segLBuffer[relPosition] = display_CLEAR;
1233:Generated_Source\PSoC5/display.c ****                     break;
1234:Generated_Source\PSoC5/display.c ****             }
1235:Generated_Source\PSoC5/display.c ****             relPosition++;
1236:Generated_Source\PSoC5/display.c ****         }
1237:Generated_Source\PSoC5/display.c ****     }
1238:Generated_Source\PSoC5/display.c ****     else
1239:Generated_Source\PSoC5/display.c ****     {
1240:Generated_Source\PSoC5/display.c ****         /* Alignment for right and zero padded */
1241:Generated_Source\PSoC5/display.c ****         for(i = digits; i > 0u; i--)
1242:Generated_Source\PSoC5/display.c ****         {
1243:Generated_Source\PSoC5/display.c ****             if(((i + relPosition) - 1u) < display_NUM_COM)
1244:Generated_Source\PSoC5/display.c ****             {
1245:Generated_Source\PSoC5/display.c ****                 /* Decide which row to use */
1246:Generated_Source\PSoC5/display.c ****                 switch(choiceReg)
1247:Generated_Source\PSoC5/display.c ****                 {
1248:Generated_Source\PSoC5/display.c ****                     case display_SEG_REG_LOW :
1249:Generated_Source\PSoC5/display.c ****                         display_segLBuffer[(i + relPosition) - 1u] = bufArray[i-1u];
1250:Generated_Source\PSoC5/display.c ****                         break;
1251:Generated_Source\PSoC5/display.c ****                     case display_SEG_REG_MID :
1252:Generated_Source\PSoC5/display.c ****                         #if (display_NUM_SEG > 8u)
1253:Generated_Source\PSoC5/display.c ****                             display_segMBuffer[(i + relPosition) - 1u] = bufArray[i-1u];
1254:Generated_Source\PSoC5/display.c ****                         #endif /* (display_NUM_SEG > 8u) */
1255:Generated_Source\PSoC5/display.c ****                         break;
1256:Generated_Source\PSoC5/display.c ****                     case display_SEG_REG_HIGH :
1257:Generated_Source\PSoC5/display.c ****                         #if (display_NUM_SEG > 16u)
1258:Generated_Source\PSoC5/display.c ****                             display_segHBuffer[(i + relPosition) - 1u] = bufArray[i-1u];
1259:Generated_Source\PSoC5/display.c ****                         #endif /* (display_NUM_SEG > 16u) */
1260:Generated_Source\PSoC5/display.c ****                         break;
1261:Generated_Source\PSoC5/display.c ****                     default :
1262:Generated_Source\PSoC5/display.c ****                         display_segLBuffer[(i + relPosition) - 1u] = bufArray[i-1u];
1263:Generated_Source\PSoC5/display.c ****                         break;
1264:Generated_Source\PSoC5/display.c ****                 }
1265:Generated_Source\PSoC5/display.c ****             }
1266:Generated_Source\PSoC5/display.c ****         }
1267:Generated_Source\PSoC5/display.c ****     }
1268:Generated_Source\PSoC5/display.c **** }
1269:Generated_Source\PSoC5/display.c **** 
1270:Generated_Source\PSoC5/display.c **** 
1271:Generated_Source\PSoC5/display.c **** /*******************************************************************************
1272:Generated_Source\PSoC5/display.c **** * Function Name: display_WriteString7Seg
1273:Generated_Source\PSoC5/display.c **** ********************************************************************************
1274:Generated_Source\PSoC5/display.c **** *
1275:Generated_Source\PSoC5/display.c **** * Summary:
1276:Generated_Source\PSoC5/display.c **** *  Displays a null terminated string starting at 'position' and ending at either
1277:Generated_Source\PSoC5/display.c **** *  at the end the string or the end of the display. The displayable characters 
1278:Generated_Source\PSoC5/display.c **** *  are the same for the LED_Driver_PutChar7Seg() function. Non-displayable
ARM GAS  C:\Users\Dell\AppData\Local\Temp\ccFHrQg5.s 			page 40


1279:Generated_Source\PSoC5/display.c **** *  characters will produce a blank space.
1280:Generated_Source\PSoC5/display.c **** *
1281:Generated_Source\PSoC5/display.c **** * Parameters:
1282:Generated_Source\PSoC5/display.c **** *  char8 const character[]: The null terminated string to be displayed.
1283:Generated_Source\PSoC5/display.c **** *  uint8 position: The position to start the string.
1284:Generated_Source\PSoC5/display.c **** *
1285:Generated_Source\PSoC5/display.c **** * Return:
1286:Generated_Source\PSoC5/display.c **** *  None
1287:Generated_Source\PSoC5/display.c **** *
1288:Generated_Source\PSoC5/display.c **** * Side effects:
1289:Generated_Source\PSoC5/display.c **** *  None
1290:Generated_Source\PSoC5/display.c **** *
1291:Generated_Source\PSoC5/display.c **** *******************************************************************************/
1292:Generated_Source\PSoC5/display.c **** void display_WriteString7Seg(char8 const character[], uint8 position)
1293:Generated_Source\PSoC5/display.c **** 
1294:Generated_Source\PSoC5/display.c **** {
1295:Generated_Source\PSoC5/display.c ****     uint8 relPosition;
1296:Generated_Source\PSoC5/display.c ****     uint8 sizeLimit;
1297:Generated_Source\PSoC5/display.c ****     uint8 i = 0u;
1298:Generated_Source\PSoC5/display.c ****     
1299:Generated_Source\PSoC5/display.c ****     if(position < display_NUM_COM)
1300:Generated_Source\PSoC5/display.c ****     {
1301:Generated_Source\PSoC5/display.c ****         sizeLimit = (uint8)(strlen(character)) + position;
1302:Generated_Source\PSoC5/display.c ****         for(relPosition = position; relPosition < display_NUM_COM; relPosition++)
1303:Generated_Source\PSoC5/display.c ****         {
1304:Generated_Source\PSoC5/display.c ****             if(relPosition < sizeLimit)
1305:Generated_Source\PSoC5/display.c ****             {
1306:Generated_Source\PSoC5/display.c ****                 display_segLBuffer[relPosition] = display_EncodeChar7Seg(character[i]);
1307:Generated_Source\PSoC5/display.c ****                 i++;
1308:Generated_Source\PSoC5/display.c ****             }
1309:Generated_Source\PSoC5/display.c ****         }
1310:Generated_Source\PSoC5/display.c ****     }    
1311:Generated_Source\PSoC5/display.c ****     else if (position < display_TWO_NUM_COM)
1312:Generated_Source\PSoC5/display.c ****     {
1313:Generated_Source\PSoC5/display.c ****         #if (display_NUM_SEG > 8u) 
1314:Generated_Source\PSoC5/display.c ****             sizeLimit = ((uint8)(strlen(character)) + position) - display_NUM_COM;
1315:Generated_Source\PSoC5/display.c ****             for(relPosition = position - display_NUM_COM;
1316:Generated_Source\PSoC5/display.c ****                 relPosition < display_NUM_COM; 
1317:Generated_Source\PSoC5/display.c ****                 relPosition++)
1318:Generated_Source\PSoC5/display.c ****             {
1319:Generated_Source\PSoC5/display.c ****                 if(relPosition < sizeLimit)
1320:Generated_Source\PSoC5/display.c ****                 {
1321:Generated_Source\PSoC5/display.c ****                     display_segMBuffer[relPosition] = display_EncodeChar7Seg(character[i]);
1322:Generated_Source\PSoC5/display.c ****                     i++;
1323:Generated_Source\PSoC5/display.c ****                 }
1324:Generated_Source\PSoC5/display.c ****             }
1325:Generated_Source\PSoC5/display.c ****         #endif /* (display_NUM_SEG > 8u) */
1326:Generated_Source\PSoC5/display.c ****     }
1327:Generated_Source\PSoC5/display.c ****     else
1328:Generated_Source\PSoC5/display.c ****     {
1329:Generated_Source\PSoC5/display.c ****         #if (display_NUM_SEG > 16u)
1330:Generated_Source\PSoC5/display.c ****             sizeLimit = ((uint8)(strlen(character)) + position) - display_TWO_NUM_COM;
1331:Generated_Source\PSoC5/display.c ****             for(relPosition = position - display_TWO_NUM_COM;
1332:Generated_Source\PSoC5/display.c ****                 relPosition < display_NUM_COM; 
1333:Generated_Source\PSoC5/display.c ****                 relPosition++)
1334:Generated_Source\PSoC5/display.c ****             {
1335:Generated_Source\PSoC5/display.c ****                 if(relPosition < sizeLimit)
ARM GAS  C:\Users\Dell\AppData\Local\Temp\ccFHrQg5.s 			page 41


1336:Generated_Source\PSoC5/display.c ****                 {
1337:Generated_Source\PSoC5/display.c ****                     display_segHBuffer[relPosition] = display_EncodeChar7Seg(character[i]);
1338:Generated_Source\PSoC5/display.c ****                     i++;
1339:Generated_Source\PSoC5/display.c ****                 }    
1340:Generated_Source\PSoC5/display.c ****             }
1341:Generated_Source\PSoC5/display.c ****         #endif /* (display_NUM_SEG > 16u) */
1342:Generated_Source\PSoC5/display.c ****     }
1343:Generated_Source\PSoC5/display.c **** }
1344:Generated_Source\PSoC5/display.c **** 
1345:Generated_Source\PSoC5/display.c **** 
1346:Generated_Source\PSoC5/display.c **** /*******************************************************************************
1347:Generated_Source\PSoC5/display.c **** * Function Name: display_PutChar7Seg
1348:Generated_Source\PSoC5/display.c **** ********************************************************************************
1349:Generated_Source\PSoC5/display.c **** *
1350:Generated_Source\PSoC5/display.c **** * Summary:
1351:Generated_Source\PSoC5/display.c **** *  Displays an ascii encoded character at 'position'. This function can display 
1352:Generated_Source\PSoC5/display.c **** *  all alphanumeric characters. The function can also display '-', '.', '_', 
1353:Generated_Source\PSoC5/display.c **** *  ' ', and '='. All unknown characters are displayed as a space.
1354:Generated_Source\PSoC5/display.c **** *
1355:Generated_Source\PSoC5/display.c **** * Parameters:
1356:Generated_Source\PSoC5/display.c **** *  char8 character: ASCII character.
1357:Generated_Source\PSoC5/display.c **** *  uint8 position: The position of the character.
1358:Generated_Source\PSoC5/display.c **** *
1359:Generated_Source\PSoC5/display.c **** * Return:
1360:Generated_Source\PSoC5/display.c **** *  None
1361:Generated_Source\PSoC5/display.c **** *
1362:Generated_Source\PSoC5/display.c **** * Side effects:
1363:Generated_Source\PSoC5/display.c **** *  None
1364:Generated_Source\PSoC5/display.c **** *
1365:Generated_Source\PSoC5/display.c **** *******************************************************************************/
1366:Generated_Source\PSoC5/display.c **** void display_PutChar7Seg(char8 character , uint8 position)
1367:Generated_Source\PSoC5/display.c **** 
1368:Generated_Source\PSoC5/display.c **** {
1369:Generated_Source\PSoC5/display.c ****     uint8 relPosition;
1370:Generated_Source\PSoC5/display.c ****     
1371:Generated_Source\PSoC5/display.c ****     if(position < display_NUM_COM)
1372:Generated_Source\PSoC5/display.c ****     {
1373:Generated_Source\PSoC5/display.c ****         relPosition = position;
1374:Generated_Source\PSoC5/display.c ****         display_segLBuffer[relPosition] = display_EncodeChar7Seg(character);
1375:Generated_Source\PSoC5/display.c ****     }    
1376:Generated_Source\PSoC5/display.c ****     else if (position < display_TWO_NUM_COM)
1377:Generated_Source\PSoC5/display.c ****     {
1378:Generated_Source\PSoC5/display.c ****         #if (display_NUM_SEG > 8u) 
1379:Generated_Source\PSoC5/display.c ****             relPosition = position - display_NUM_COM;
1380:Generated_Source\PSoC5/display.c ****             display_segMBuffer[relPosition] = display_EncodeChar7Seg(character);
1381:Generated_Source\PSoC5/display.c ****         #endif /* (display_NUM_SEG > 8u) */
1382:Generated_Source\PSoC5/display.c ****     }
1383:Generated_Source\PSoC5/display.c ****     else
1384:Generated_Source\PSoC5/display.c ****     {
1385:Generated_Source\PSoC5/display.c ****         #if (display_NUM_SEG > 16u)
1386:Generated_Source\PSoC5/display.c ****             relPosition = position - display_TWO_NUM_COM;
1387:Generated_Source\PSoC5/display.c ****             if(relPosition < display_NUM_COM)
1388:Generated_Source\PSoC5/display.c ****             {
1389:Generated_Source\PSoC5/display.c ****                 display_segHBuffer[relPosition] = display_EncodeChar7Seg(character);
1390:Generated_Source\PSoC5/display.c ****             }
1391:Generated_Source\PSoC5/display.c ****         #endif /* (display_NUM_SEG > 16u) */
1392:Generated_Source\PSoC5/display.c ****     }
ARM GAS  C:\Users\Dell\AppData\Local\Temp\ccFHrQg5.s 			page 42


1393:Generated_Source\PSoC5/display.c **** }
1394:Generated_Source\PSoC5/display.c **** 
1395:Generated_Source\PSoC5/display.c **** 
1396:Generated_Source\PSoC5/display.c **** /*******************************************************************************
1397:Generated_Source\PSoC5/display.c **** * Function Name: display_Write7SegDigitDec
1398:Generated_Source\PSoC5/display.c **** ********************************************************************************
1399:Generated_Source\PSoC5/display.c **** *
1400:Generated_Source\PSoC5/display.c **** * Summary:
1401:Generated_Source\PSoC5/display.c **** *  Displays a single digit on the specified display. The number in 'digit' 
1402:Generated_Source\PSoC5/display.c **** *  (0-9) is placed on 'position.'
1403:Generated_Source\PSoC5/display.c **** *
1404:Generated_Source\PSoC5/display.c **** * Parameters:
1405:Generated_Source\PSoC5/display.c **** *  uint8 digit: A number between 0 and 9 to display.
1406:Generated_Source\PSoC5/display.c **** *  uint8 position: Position of the display in which to place the number.
1407:Generated_Source\PSoC5/display.c **** *
1408:Generated_Source\PSoC5/display.c **** * Return:
1409:Generated_Source\PSoC5/display.c **** *  None
1410:Generated_Source\PSoC5/display.c **** *
1411:Generated_Source\PSoC5/display.c **** * Side effects:
1412:Generated_Source\PSoC5/display.c **** *  None
1413:Generated_Source\PSoC5/display.c **** *
1414:Generated_Source\PSoC5/display.c **** *******************************************************************************/
1415:Generated_Source\PSoC5/display.c **** void display_Write7SegDigitDec(uint8 digit, uint8 position)
1416:Generated_Source\PSoC5/display.c **** 
1417:Generated_Source\PSoC5/display.c **** {
1418:Generated_Source\PSoC5/display.c ****     uint8 relPosition;
1419:Generated_Source\PSoC5/display.c ****     
1420:Generated_Source\PSoC5/display.c ****     /* Only display numerical values */
1421:Generated_Source\PSoC5/display.c ****     if (digit < 10u)
1422:Generated_Source\PSoC5/display.c ****     {
1423:Generated_Source\PSoC5/display.c ****         if(position < display_NUM_COM)
1424:Generated_Source\PSoC5/display.c ****         {
1425:Generated_Source\PSoC5/display.c ****             relPosition = position;
1426:Generated_Source\PSoC5/display.c ****             display_segLBuffer[relPosition] = display_EncodeNumber7Seg(digit);
1427:Generated_Source\PSoC5/display.c ****         }    
1428:Generated_Source\PSoC5/display.c ****         else if (position < display_TWO_NUM_COM)
1429:Generated_Source\PSoC5/display.c ****         {
1430:Generated_Source\PSoC5/display.c ****             #if (display_NUM_SEG > 8u)
1431:Generated_Source\PSoC5/display.c ****                 relPosition = position - display_NUM_COM;
1432:Generated_Source\PSoC5/display.c ****                 display_segMBuffer[relPosition] = display_EncodeNumber7Seg(digit);
1433:Generated_Source\PSoC5/display.c ****             #endif /* (display_NUM_SEG > 8u) */
1434:Generated_Source\PSoC5/display.c ****         } 
1435:Generated_Source\PSoC5/display.c ****         else
1436:Generated_Source\PSoC5/display.c ****         {
1437:Generated_Source\PSoC5/display.c ****             #if (display_NUM_SEG > 16u)
1438:Generated_Source\PSoC5/display.c ****                 relPosition = position - display_TWO_NUM_COM;
1439:Generated_Source\PSoC5/display.c ****                 if(relPosition < display_TWO_NUM_COM)
1440:Generated_Source\PSoC5/display.c ****                 {
1441:Generated_Source\PSoC5/display.c ****                     display_segHBuffer[relPosition] = display_EncodeNumber7Seg(digit);
1442:Generated_Source\PSoC5/display.c ****                 }
1443:Generated_Source\PSoC5/display.c ****             #endif /* (display_NUM_SEG > 16u) */
1444:Generated_Source\PSoC5/display.c ****         }
1445:Generated_Source\PSoC5/display.c ****     }
1446:Generated_Source\PSoC5/display.c **** }
1447:Generated_Source\PSoC5/display.c **** 
1448:Generated_Source\PSoC5/display.c **** 
1449:Generated_Source\PSoC5/display.c **** /*******************************************************************************
ARM GAS  C:\Users\Dell\AppData\Local\Temp\ccFHrQg5.s 			page 43


1450:Generated_Source\PSoC5/display.c **** * Function Name: display_Write7SegDigitHex
1451:Generated_Source\PSoC5/display.c **** ********************************************************************************
1452:Generated_Source\PSoC5/display.c **** *
1453:Generated_Source\PSoC5/display.c **** * Summary:
1454:Generated_Source\PSoC5/display.c **** *  Displays a single digit at the specified position. The number in 'digit' 
1455:Generated_Source\PSoC5/display.c **** *  (0-F) is placed on 'position'.
1456:Generated_Source\PSoC5/display.c **** *
1457:Generated_Source\PSoC5/display.c **** * Parameters:
1458:Generated_Source\PSoC5/display.c **** *  uint8 digit: A number between 0x0 and 0xF (0 to 15)
1459:Generated_Source\PSoC5/display.c **** *  uint8 position: The position in which to place the number.
1460:Generated_Source\PSoC5/display.c **** *
1461:Generated_Source\PSoC5/display.c **** * Return:
1462:Generated_Source\PSoC5/display.c **** *  None
1463:Generated_Source\PSoC5/display.c **** *
1464:Generated_Source\PSoC5/display.c **** * Side effects:
1465:Generated_Source\PSoC5/display.c **** *  None
1466:Generated_Source\PSoC5/display.c **** *
1467:Generated_Source\PSoC5/display.c **** *******************************************************************************/
1468:Generated_Source\PSoC5/display.c **** void display_Write7SegDigitHex(uint8 digit, uint8 position)
1469:Generated_Source\PSoC5/display.c **** 
1470:Generated_Source\PSoC5/display.c **** {
1471:Generated_Source\PSoC5/display.c ****     uint8 relPosition;
1472:Generated_Source\PSoC5/display.c ****     
1473:Generated_Source\PSoC5/display.c ****     if(position < display_NUM_COM)
1474:Generated_Source\PSoC5/display.c ****     {
1475:Generated_Source\PSoC5/display.c ****         relPosition = position;
1476:Generated_Source\PSoC5/display.c ****         display_segLBuffer[relPosition] = display_EncodeNumber7Seg(digit);
1477:Generated_Source\PSoC5/display.c ****     }    
1478:Generated_Source\PSoC5/display.c ****     else if (position < display_TWO_NUM_COM)
1479:Generated_Source\PSoC5/display.c ****     {
1480:Generated_Source\PSoC5/display.c ****         #if (display_NUM_SEG > 8u) 
1481:Generated_Source\PSoC5/display.c ****             relPosition = position - display_NUM_COM;
1482:Generated_Source\PSoC5/display.c ****             display_segMBuffer[relPosition] = display_EncodeNumber7Seg(digit);
1483:Generated_Source\PSoC5/display.c ****         #endif /* (display_NUM_SEG > 8u) */
1484:Generated_Source\PSoC5/display.c ****     }
1485:Generated_Source\PSoC5/display.c ****     else
1486:Generated_Source\PSoC5/display.c ****     {
1487:Generated_Source\PSoC5/display.c ****         #if (display_NUM_SEG > 16u)
1488:Generated_Source\PSoC5/display.c ****             relPosition = position - display_TWO_NUM_COM;
1489:Generated_Source\PSoC5/display.c ****             if(relPosition < display_NUM_COM)
1490:Generated_Source\PSoC5/display.c ****             {
1491:Generated_Source\PSoC5/display.c ****                 display_segHBuffer[relPosition] = display_EncodeNumber7Seg(digit);
1492:Generated_Source\PSoC5/display.c ****             }
1493:Generated_Source\PSoC5/display.c ****         #endif /* (display_NUM_SEG > 16u) */
1494:Generated_Source\PSoC5/display.c ****     }
1495:Generated_Source\PSoC5/display.c **** }
1496:Generated_Source\PSoC5/display.c **** 
1497:Generated_Source\PSoC5/display.c **** 
1498:Generated_Source\PSoC5/display.c **** /*******************************************************************************
1499:Generated_Source\PSoC5/display.c **** * Function Name: display_Write14SegNumberDec
1500:Generated_Source\PSoC5/display.c **** ********************************************************************************
1501:Generated_Source\PSoC5/display.c **** *
1502:Generated_Source\PSoC5/display.c **** * Summary:
1503:Generated_Source\PSoC5/display.c **** *  Displays a signed integer up to 8 characters long, starting at 'position' and
1504:Generated_Source\PSoC5/display.c **** *  extending for 'digits' characters. The negative sign will take an extra digit
1505:Generated_Source\PSoC5/display.c **** *  if it is required. If you do not use the correct number of digits for your 
1506:Generated_Source\PSoC5/display.c **** *  number, only the least significant digits will be displayed.
ARM GAS  C:\Users\Dell\AppData\Local\Temp\ccFHrQg5.s 			page 44


1507:Generated_Source\PSoC5/display.c **** *
1508:Generated_Source\PSoC5/display.c **** * Parameters:
1509:Generated_Source\PSoC5/display.c **** *  int32 number: a signed integer number to display. It is the responsibility 
1510:Generated_Source\PSoC5/display.c **** *                of the user to ensure that the display has enough digits to 
1511:Generated_Source\PSoC5/display.c **** *                accurately represent the number passed to this function. Note 
1512:Generated_Source\PSoC5/display.c **** *                that a negative number will require 1 more digit than the 
1513:Generated_Source\PSoC5/display.c **** *                equivalent positive number to display the negative sign.
1514:Generated_Source\PSoC5/display.c **** *  uint8 position: Digit position of the Display/Common RAM to start.
1515:Generated_Source\PSoC5/display.c **** *  uint8 digits: The number of digits you wish to use to display the value 
1516:Generated_Source\PSoC5/display.c **** *                passed into the function. The negative sign will take an extra
1517:Generated_Source\PSoC5/display.c **** *                digit if it is required.
1518:Generated_Source\PSoC5/display.c **** *  uint8 alignment: How to align the provided number in the allocated digits.
1519:Generated_Source\PSoC5/display.c **** *       RIGHT_ALIGN - Least significant digit occupies the rightmost digit
1520:Generated_Source\PSoC5/display.c **** *                     (position + digits). Unused digits are turned off unless
1521:Generated_Source\PSoC5/display.c **** *                     ZERO_PAD enabled.
1522:Generated_Source\PSoC5/display.c **** *       LEFT_ALIGN - Most significant digit (or negative sign) occupies the
1523:Generated_Source\PSoC5/display.c **** *                    digit specified by position. Unused digits are turned off.
1524:Generated_Source\PSoC5/display.c **** *       ZERO_PAD - Unused digits to the left are padded with leading zeros.
1525:Generated_Source\PSoC5/display.c **** * Return:
1526:Generated_Source\PSoC5/display.c **** *  None
1527:Generated_Source\PSoC5/display.c **** *
1528:Generated_Source\PSoC5/display.c **** * Side effects:
1529:Generated_Source\PSoC5/display.c **** *  None
1530:Generated_Source\PSoC5/display.c **** *
1531:Generated_Source\PSoC5/display.c **** *******************************************************************************/
1532:Generated_Source\PSoC5/display.c **** void display_Write14SegNumberDec(int32 number, uint8 position, uint8 digits, uint8 alignment)
1533:Generated_Source\PSoC5/display.c **** 
1534:Generated_Source\PSoC5/display.c **** {
1535:Generated_Source\PSoC5/display.c ****     uint8 i;
1536:Generated_Source\PSoC5/display.c ****     uint8 relPosition;
1537:Generated_Source\PSoC5/display.c ****     uint8 numberSign;
1538:Generated_Source\PSoC5/display.c ****     uint8 selectVal;
1539:Generated_Source\PSoC5/display.c ****     uint8 zeroCount = 0u;
1540:Generated_Source\PSoC5/display.c ****     uint16 bufArray[8u] = {0u};
1541:Generated_Source\PSoC5/display.c ****     uint32 numberVal;
1542:Generated_Source\PSoC5/display.c ****         
1543:Generated_Source\PSoC5/display.c ****     /* Routine to extract the sign and to convert to unsigned */
1544:Generated_Source\PSoC5/display.c ****     if(number >= display_ZERO_NEG)
1545:Generated_Source\PSoC5/display.c ****     {
1546:Generated_Source\PSoC5/display.c ****         numberVal = (uint32)number;
1547:Generated_Source\PSoC5/display.c ****         numberSign = display_UNSIGNED;
1548:Generated_Source\PSoC5/display.c ****     }
1549:Generated_Source\PSoC5/display.c ****     else
1550:Generated_Source\PSoC5/display.c ****     {
1551:Generated_Source\PSoC5/display.c ****         numberVal = (uint32)(-number);
1552:Generated_Source\PSoC5/display.c ****         numberSign = display_SIGNED;
1553:Generated_Source\PSoC5/display.c ****     }
1554:Generated_Source\PSoC5/display.c ****     
1555:Generated_Source\PSoC5/display.c ****     /* Fill up the temporary array */
1556:Generated_Source\PSoC5/display.c ****     for(i = digits; i > 0u; i--)
1557:Generated_Source\PSoC5/display.c ****     {
1558:Generated_Source\PSoC5/display.c ****         selectVal = (uint8)(numberVal % 10u);
1559:Generated_Source\PSoC5/display.c ****         bufArray[i-1u] = display_EncodeNumber14Seg(selectVal);
1560:Generated_Source\PSoC5/display.c ****         numberVal = numberVal / 10u;
1561:Generated_Source\PSoC5/display.c ****     }
1562:Generated_Source\PSoC5/display.c ****     
1563:Generated_Source\PSoC5/display.c ****     /* Clean up the array and place sign if needed */
ARM GAS  C:\Users\Dell\AppData\Local\Temp\ccFHrQg5.s 			page 45


1564:Generated_Source\PSoC5/display.c ****     if(alignment == display_ZERO_PAD)
1565:Generated_Source\PSoC5/display.c ****     {
1566:Generated_Source\PSoC5/display.c ****         if(numberSign == display_SIGNED)
1567:Generated_Source\PSoC5/display.c ****         {
1568:Generated_Source\PSoC5/display.c ****             /* Place sign on the MSB */
1569:Generated_Source\PSoC5/display.c ****             bufArray[0u] = display_EncodeChar14Seg('-');
1570:Generated_Source\PSoC5/display.c ****         }
1571:Generated_Source\PSoC5/display.c ****     }
1572:Generated_Source\PSoC5/display.c ****     else
1573:Generated_Source\PSoC5/display.c ****     {
1574:Generated_Source\PSoC5/display.c ****         for(i = 0u; i < digits; i++)
1575:Generated_Source\PSoC5/display.c ****         {
1576:Generated_Source\PSoC5/display.c ****             if (bufArray[i] != display_ZERO_14CHAR)
1577:Generated_Source\PSoC5/display.c ****             {
1578:Generated_Source\PSoC5/display.c ****                 if(numberSign == display_SIGNED)
1579:Generated_Source\PSoC5/display.c ****                 {
1580:Generated_Source\PSoC5/display.c ****                     if(i == 0u)
1581:Generated_Source\PSoC5/display.c ****                     {
1582:Generated_Source\PSoC5/display.c ****                         /* Place sign on the MSB */
1583:Generated_Source\PSoC5/display.c ****                         bufArray[i] = display_EncodeChar14Seg('-');
1584:Generated_Source\PSoC5/display.c ****                     }
1585:Generated_Source\PSoC5/display.c ****                     else
1586:Generated_Source\PSoC5/display.c ****                     {
1587:Generated_Source\PSoC5/display.c ****                         /* Place sign before MSB */
1588:Generated_Source\PSoC5/display.c ****                         bufArray[i-1u] = display_EncodeChar14Seg('-');
1589:Generated_Source\PSoC5/display.c ****                     }
1590:Generated_Source\PSoC5/display.c ****                 }
1591:Generated_Source\PSoC5/display.c ****                 /* Exit when encountering non-zero number */
1592:Generated_Source\PSoC5/display.c ****                 break;
1593:Generated_Source\PSoC5/display.c ****             }
1594:Generated_Source\PSoC5/display.c ****             else
1595:Generated_Source\PSoC5/display.c ****             {
1596:Generated_Source\PSoC5/display.c ****                 if(zeroCount != (digits - 1u))
1597:Generated_Source\PSoC5/display.c ****                 {
1598:Generated_Source\PSoC5/display.c ****                     /* Turn off the display */
1599:Generated_Source\PSoC5/display.c ****                     bufArray[i] = display_CLEAR_16;
1600:Generated_Source\PSoC5/display.c ****                     zeroCount++;
1601:Generated_Source\PSoC5/display.c ****                 }
1602:Generated_Source\PSoC5/display.c ****             }    
1603:Generated_Source\PSoC5/display.c ****         }
1604:Generated_Source\PSoC5/display.c ****     }
1605:Generated_Source\PSoC5/display.c ****     
1606:Generated_Source\PSoC5/display.c ****     relPosition = position;
1607:Generated_Source\PSoC5/display.c ****     
1608:Generated_Source\PSoC5/display.c ****     /* Place the values in the segment array according to alignment */
1609:Generated_Source\PSoC5/display.c ****     if(alignment == display_LEFT_ALIGN)
1610:Generated_Source\PSoC5/display.c ****     {
1611:Generated_Source\PSoC5/display.c ****         for(i = 0u; i < digits; i++)
1612:Generated_Source\PSoC5/display.c ****         {
1613:Generated_Source\PSoC5/display.c ****             if(bufArray[i] != display_CLEAR_16)
1614:Generated_Source\PSoC5/display.c ****             {
1615:Generated_Source\PSoC5/display.c ****                 if(relPosition < display_NUM_COM)
1616:Generated_Source\PSoC5/display.c ****                 {
1617:Generated_Source\PSoC5/display.c ****                     /* Only show displays that are not empty */
1618:Generated_Source\PSoC5/display.c ****                     display_segLBuffer[relPosition] = LO8(bufArray[i]);
1619:Generated_Source\PSoC5/display.c ****                 #if (display_NUM_SEG > 8u)
1620:Generated_Source\PSoC5/display.c ****                     display_segMBuffer[relPosition] = HI8(bufArray[i]);
ARM GAS  C:\Users\Dell\AppData\Local\Temp\ccFHrQg5.s 			page 46


1621:Generated_Source\PSoC5/display.c ****                 #endif /* (display_NUM_SEG > 8u) */
1622:Generated_Source\PSoC5/display.c ****                 }
1623:Generated_Source\PSoC5/display.c ****                 relPosition++;
1624:Generated_Source\PSoC5/display.c ****             }
1625:Generated_Source\PSoC5/display.c ****         }
1626:Generated_Source\PSoC5/display.c ****         /* Clear the rest of the positions to the right of value */
1627:Generated_Source\PSoC5/display.c ****         while(relPosition < digits)
1628:Generated_Source\PSoC5/display.c ****         {
1629:Generated_Source\PSoC5/display.c ****             /* Only show displays that are not empty */
1630:Generated_Source\PSoC5/display.c ****             display_segLBuffer[relPosition] = display_CLEAR;
1631:Generated_Source\PSoC5/display.c ****             #if (display_NUM_SEG > 8u)
1632:Generated_Source\PSoC5/display.c ****                 display_segMBuffer[relPosition] = display_CLEAR;
1633:Generated_Source\PSoC5/display.c ****             #endif /* (display_NUM_SEG > 8u) */
1634:Generated_Source\PSoC5/display.c ****             
1635:Generated_Source\PSoC5/display.c ****             relPosition++;
1636:Generated_Source\PSoC5/display.c ****         }
1637:Generated_Source\PSoC5/display.c ****     }
1638:Generated_Source\PSoC5/display.c ****     else
1639:Generated_Source\PSoC5/display.c ****     {
1640:Generated_Source\PSoC5/display.c ****         for(i = digits; i > 0u; i--)
1641:Generated_Source\PSoC5/display.c ****         {
1642:Generated_Source\PSoC5/display.c ****             if(((i + relPosition) - 1u) < display_NUM_COM)
1643:Generated_Source\PSoC5/display.c ****             {
1644:Generated_Source\PSoC5/display.c ****                 display_segLBuffer[(i + relPosition) - 1u] = LO8(bufArray[i-1u]);
1645:Generated_Source\PSoC5/display.c ****             #if (display_NUM_SEG > 8u)
1646:Generated_Source\PSoC5/display.c ****                 display_segMBuffer[(i + relPosition) - 1u] = HI8(bufArray[i-1u]);
1647:Generated_Source\PSoC5/display.c ****             #endif /* (display_NUM_SEG > 8u) */
1648:Generated_Source\PSoC5/display.c ****             }
1649:Generated_Source\PSoC5/display.c ****         }  
1650:Generated_Source\PSoC5/display.c ****     }
1651:Generated_Source\PSoC5/display.c **** }
1652:Generated_Source\PSoC5/display.c **** 
1653:Generated_Source\PSoC5/display.c **** 
1654:Generated_Source\PSoC5/display.c **** /*******************************************************************************
1655:Generated_Source\PSoC5/display.c **** * Function Name: display_Write14SegNumberHex
1656:Generated_Source\PSoC5/display.c **** ********************************************************************************
1657:Generated_Source\PSoC5/display.c **** *
1658:Generated_Source\PSoC5/display.c **** * Summary:
1659:Generated_Source\PSoC5/display.c **** *  Displays a hexadecimal number up to 8 characters long, starting at 'position'
1660:Generated_Source\PSoC5/display.c **** *  and extending for 'digits' characters. If you do not use the correct number
1661:Generated_Source\PSoC5/display.c **** *  of digits for your number, the least significant digits will be displayed. 
1662:Generated_Source\PSoC5/display.c **** *  For example, if value is 0xDEADBEEF, display is 0 and digits is 4, the result
1663:Generated_Source\PSoC5/display.c **** *  will be: BEEF.
1664:Generated_Source\PSoC5/display.c **** *
1665:Generated_Source\PSoC5/display.c **** * Parameters:
1666:Generated_Source\PSoC5/display.c **** *  uint32 number: The hexadecimal number to display. It is the responsibility 
1667:Generated_Source\PSoC5/display.c **** *                 of the user to ensure that the display has enough digits to 
1668:Generated_Source\PSoC5/display.c **** *                 accurately represent the number passed to this function. If 
1669:Generated_Source\PSoC5/display.c **** *                 not, only the least significant digits will be displayed.
1670:Generated_Source\PSoC5/display.c **** *  uint8 position: Position of the Display/Common to start number.
1671:Generated_Source\PSoC5/display.c **** *  uint8 digits: The number of digits you wish to use to display the value 
1672:Generated_Source\PSoC5/display.c **** *                passed into the function. If you do not use the correct number
1673:Generated_Source\PSoC5/display.c **** *                of digits for your number, the least significant digits will 
1674:Generated_Source\PSoC5/display.c **** *                be displayed.
1675:Generated_Source\PSoC5/display.c **** *  uint8 alignment: How to align the provided number in the allocated digits.
1676:Generated_Source\PSoC5/display.c **** *       RIGHT_ALIGN - Least significant digit occupies the rightmost digit
1677:Generated_Source\PSoC5/display.c **** *                     (position + digits). Unused digits are turned off unless
ARM GAS  C:\Users\Dell\AppData\Local\Temp\ccFHrQg5.s 			page 47


1678:Generated_Source\PSoC5/display.c **** *                     ZERO_PAD enabled.
1679:Generated_Source\PSoC5/display.c **** *       LEFT_ALIGN - Most significant digit (or negative sign) occupies the
1680:Generated_Source\PSoC5/display.c **** *                    digit specified by position. Unused digits are turned off.
1681:Generated_Source\PSoC5/display.c **** *       ZERO_PAD - Unused digits to the left are padded with leading zeros.
1682:Generated_Source\PSoC5/display.c **** * Return:
1683:Generated_Source\PSoC5/display.c **** *  None
1684:Generated_Source\PSoC5/display.c **** *
1685:Generated_Source\PSoC5/display.c **** * Side effects:
1686:Generated_Source\PSoC5/display.c **** *  None
1687:Generated_Source\PSoC5/display.c **** *
1688:Generated_Source\PSoC5/display.c **** *******************************************************************************/
1689:Generated_Source\PSoC5/display.c **** void display_Write14SegNumberHex(uint32 number, uint8 position, uint8 digits, uint8 alignment)
1690:Generated_Source\PSoC5/display.c **** 
1691:Generated_Source\PSoC5/display.c **** {
1692:Generated_Source\PSoC5/display.c ****     uint8 i;
1693:Generated_Source\PSoC5/display.c ****     uint8 relPosition;
1694:Generated_Source\PSoC5/display.c ****     uint8 selectVal;
1695:Generated_Source\PSoC5/display.c ****     uint16 bufArray[8u] = {0u};
1696:Generated_Source\PSoC5/display.c ****     uint32 numberVal;
1697:Generated_Source\PSoC5/display.c ****     
1698:Generated_Source\PSoC5/display.c ****     numberVal = number;
1699:Generated_Source\PSoC5/display.c ****     
1700:Generated_Source\PSoC5/display.c ****     /* Fill up the temporary array */
1701:Generated_Source\PSoC5/display.c ****     for(i = digits; i > 0u; i--)
1702:Generated_Source\PSoC5/display.c ****     {
1703:Generated_Source\PSoC5/display.c ****         selectVal = (uint8)((uint8)numberVal & display_NIBBLE_MASK);
1704:Generated_Source\PSoC5/display.c ****         bufArray[i-1u] = display_EncodeNumber14Seg(selectVal);
1705:Generated_Source\PSoC5/display.c ****         numberVal = (uint32)((uint32)numberVal >> display_SHIFT_NIBBLE);
1706:Generated_Source\PSoC5/display.c ****     }
1707:Generated_Source\PSoC5/display.c ****     
1708:Generated_Source\PSoC5/display.c ****     /* Clean up the array */
1709:Generated_Source\PSoC5/display.c ****     for(i = 0u; i < digits; i++)
1710:Generated_Source\PSoC5/display.c ****     {
1711:Generated_Source\PSoC5/display.c ****         if (bufArray[i] != display_ZERO_14CHAR)
1712:Generated_Source\PSoC5/display.c ****         {
1713:Generated_Source\PSoC5/display.c ****             /* Exit when encountering non-zero number */
1714:Generated_Source\PSoC5/display.c ****             break;
1715:Generated_Source\PSoC5/display.c ****         }
1716:Generated_Source\PSoC5/display.c ****         else
1717:Generated_Source\PSoC5/display.c ****         {
1718:Generated_Source\PSoC5/display.c ****             /* Turn off the display */
1719:Generated_Source\PSoC5/display.c ****             bufArray[i] = display_CLEAR_16;
1720:Generated_Source\PSoC5/display.c ****         }    
1721:Generated_Source\PSoC5/display.c ****     }
1722:Generated_Source\PSoC5/display.c ****     
1723:Generated_Source\PSoC5/display.c ****     relPosition = position;
1724:Generated_Source\PSoC5/display.c ****     
1725:Generated_Source\PSoC5/display.c ****     /* Place the values in the segment array according to alignment */
1726:Generated_Source\PSoC5/display.c ****     if(alignment == display_LEFT_ALIGN)
1727:Generated_Source\PSoC5/display.c ****     {
1728:Generated_Source\PSoC5/display.c ****         for(i = 0u; i < digits; i++)
1729:Generated_Source\PSoC5/display.c ****         {
1730:Generated_Source\PSoC5/display.c ****             if(bufArray[i] != display_CLEAR_16)
1731:Generated_Source\PSoC5/display.c ****             {
1732:Generated_Source\PSoC5/display.c ****                 if(relPosition < display_NUM_COM)
1733:Generated_Source\PSoC5/display.c ****                 {
1734:Generated_Source\PSoC5/display.c ****                     /* Only show displays that are not empty */
ARM GAS  C:\Users\Dell\AppData\Local\Temp\ccFHrQg5.s 			page 48


1735:Generated_Source\PSoC5/display.c ****                     display_segLBuffer[relPosition] = LO8(bufArray[i]);
1736:Generated_Source\PSoC5/display.c ****                 #if (display_NUM_SEG > 8u)
1737:Generated_Source\PSoC5/display.c ****                     display_segMBuffer[relPosition] = HI8(bufArray[i]);
1738:Generated_Source\PSoC5/display.c ****                 #endif /* (display_NUM_SEG > 8u) */
1739:Generated_Source\PSoC5/display.c ****                 }
1740:Generated_Source\PSoC5/display.c ****                 relPosition++;
1741:Generated_Source\PSoC5/display.c ****             }
1742:Generated_Source\PSoC5/display.c ****         }
1743:Generated_Source\PSoC5/display.c ****         /* Clear the rest of the positions to the right of value */
1744:Generated_Source\PSoC5/display.c ****         while(relPosition < digits)
1745:Generated_Source\PSoC5/display.c ****         {
1746:Generated_Source\PSoC5/display.c ****             /* Only show displays that are not empty */
1747:Generated_Source\PSoC5/display.c ****             display_segLBuffer[relPosition] = display_CLEAR;
1748:Generated_Source\PSoC5/display.c ****             #if (display_NUM_SEG > 8u)
1749:Generated_Source\PSoC5/display.c ****                 display_segMBuffer[relPosition] = display_CLEAR;
1750:Generated_Source\PSoC5/display.c ****             #endif /* (display_NUM_SEG > 8u) */
1751:Generated_Source\PSoC5/display.c ****             
1752:Generated_Source\PSoC5/display.c ****             relPosition++;
1753:Generated_Source\PSoC5/display.c ****         }
1754:Generated_Source\PSoC5/display.c ****     }
1755:Generated_Source\PSoC5/display.c ****     else
1756:Generated_Source\PSoC5/display.c ****     {
1757:Generated_Source\PSoC5/display.c ****         for(i = digits; i > 0u; i--)
1758:Generated_Source\PSoC5/display.c ****         {
1759:Generated_Source\PSoC5/display.c ****             if(((i + relPosition) - 1u) < display_NUM_COM)
1760:Generated_Source\PSoC5/display.c ****             {
1761:Generated_Source\PSoC5/display.c ****                 display_segLBuffer[(i + relPosition) - 1u] = LO8(bufArray[i-1u]);
1762:Generated_Source\PSoC5/display.c ****             #if (display_NUM_SEG > 8u)
1763:Generated_Source\PSoC5/display.c ****                 display_segMBuffer[(i + relPosition) - 1u] = HI8(bufArray[i-1u]);
1764:Generated_Source\PSoC5/display.c ****             #endif /* (display_NUM_SEG > 8u) */
1765:Generated_Source\PSoC5/display.c ****             }
1766:Generated_Source\PSoC5/display.c ****         }  
1767:Generated_Source\PSoC5/display.c ****     }
1768:Generated_Source\PSoC5/display.c **** }
1769:Generated_Source\PSoC5/display.c **** 
1770:Generated_Source\PSoC5/display.c **** 
1771:Generated_Source\PSoC5/display.c **** /*******************************************************************************
1772:Generated_Source\PSoC5/display.c **** * Function Name: display_WriteString14Seg
1773:Generated_Source\PSoC5/display.c **** ********************************************************************************
1774:Generated_Source\PSoC5/display.c **** *
1775:Generated_Source\PSoC5/display.c **** * Summary:
1776:Generated_Source\PSoC5/display.c **** *  Displays a null terminated string starting at 'position' and ending at 
1777:Generated_Source\PSoC5/display.c **** *  either the  the string or the  the display. The displayable 
1778:Generated_Source\PSoC5/display.c **** *  characters are the same for the LED_Driver_PutCharacter() function. 
1779:Generated_Source\PSoC5/display.c **** *  Non-displayable characters will produce a blank space.
1780:Generated_Source\PSoC5/display.c **** *
1781:Generated_Source\PSoC5/display.c **** * Parameters:
1782:Generated_Source\PSoC5/display.c **** *  char8 const character[]: The null terminated string to be displayed.
1783:Generated_Source\PSoC5/display.c **** *  uint8 position: The position to start the string.
1784:Generated_Source\PSoC5/display.c **** *
1785:Generated_Source\PSoC5/display.c **** * Return:
1786:Generated_Source\PSoC5/display.c **** *  None
1787:Generated_Source\PSoC5/display.c **** *
1788:Generated_Source\PSoC5/display.c **** * Side effects:
1789:Generated_Source\PSoC5/display.c **** *  None
1790:Generated_Source\PSoC5/display.c **** *
1791:Generated_Source\PSoC5/display.c **** *******************************************************************************/
ARM GAS  C:\Users\Dell\AppData\Local\Temp\ccFHrQg5.s 			page 49


1792:Generated_Source\PSoC5/display.c **** void display_WriteString14Seg(char8 const character[], uint8 position)
1793:Generated_Source\PSoC5/display.c **** 
1794:Generated_Source\PSoC5/display.c **** {
1795:Generated_Source\PSoC5/display.c ****     uint8 currPosition;
1796:Generated_Source\PSoC5/display.c ****     uint8 sizeLimit;
1797:Generated_Source\PSoC5/display.c ****     uint8 i = 0u;
1798:Generated_Source\PSoC5/display.c ****     uint16 charDisplay;
1799:Generated_Source\PSoC5/display.c ****     
1800:Generated_Source\PSoC5/display.c ****     sizeLimit = (uint8)(strlen(character)) + position;
1801:Generated_Source\PSoC5/display.c ****     
1802:Generated_Source\PSoC5/display.c ****     for(currPosition = position; currPosition < display_NUM_COM; currPosition++)
1803:Generated_Source\PSoC5/display.c ****     {
1804:Generated_Source\PSoC5/display.c ****         if(currPosition < sizeLimit)
1805:Generated_Source\PSoC5/display.c ****         {
1806:Generated_Source\PSoC5/display.c ****             charDisplay = display_EncodeChar14Seg(character[i]);
1807:Generated_Source\PSoC5/display.c ****             display_segLBuffer[currPosition] = LO8(charDisplay);
1808:Generated_Source\PSoC5/display.c ****             #if (display_NUM_SEG > 8u)
1809:Generated_Source\PSoC5/display.c ****             display_segMBuffer[currPosition] = HI8(charDisplay);
1810:Generated_Source\PSoC5/display.c ****             #endif /* (display_NUM_SEG > 8u) */
1811:Generated_Source\PSoC5/display.c ****             i++;
1812:Generated_Source\PSoC5/display.c ****         }
1813:Generated_Source\PSoC5/display.c ****     }
1814:Generated_Source\PSoC5/display.c **** }
1815:Generated_Source\PSoC5/display.c **** 
1816:Generated_Source\PSoC5/display.c **** 
1817:Generated_Source\PSoC5/display.c **** /*******************************************************************************
1818:Generated_Source\PSoC5/display.c **** * Function Name: display_PutChar14Seg
1819:Generated_Source\PSoC5/display.c **** ********************************************************************************
1820:Generated_Source\PSoC5/display.c **** *
1821:Generated_Source\PSoC5/display.c **** * Summary:
1822:Generated_Source\PSoC5/display.c **** *  Displays an ascii encoded character at 'position'. This function can display
1823:Generated_Source\PSoC5/display.c **** *  all alphanumeric characters. The function can also display '-', '.', '_', 
1824:Generated_Source\PSoC5/display.c **** *  ' ', and '='. All unknown characters are displayed as a space.
1825:Generated_Source\PSoC5/display.c **** *
1826:Generated_Source\PSoC5/display.c **** * Parameters:
1827:Generated_Source\PSoC5/display.c **** *  char8 character: ASCII character.
1828:Generated_Source\PSoC5/display.c **** *  uint8 position: The position of the character.
1829:Generated_Source\PSoC5/display.c **** *
1830:Generated_Source\PSoC5/display.c **** * Return:
1831:Generated_Source\PSoC5/display.c **** *  None
1832:Generated_Source\PSoC5/display.c **** *
1833:Generated_Source\PSoC5/display.c **** * Side effects:
1834:Generated_Source\PSoC5/display.c **** *  None
1835:Generated_Source\PSoC5/display.c **** *
1836:Generated_Source\PSoC5/display.c **** *******************************************************************************/
1837:Generated_Source\PSoC5/display.c **** void display_PutChar14Seg(char8 character , uint8 position)
1838:Generated_Source\PSoC5/display.c **** 
1839:Generated_Source\PSoC5/display.c **** {
1840:Generated_Source\PSoC5/display.c ****     uint16 charDisplay;
1841:Generated_Source\PSoC5/display.c ****     
1842:Generated_Source\PSoC5/display.c ****     if(position < display_NUM_COM)
1843:Generated_Source\PSoC5/display.c ****     {
1844:Generated_Source\PSoC5/display.c ****         charDisplay = display_EncodeChar14Seg(character);
1845:Generated_Source\PSoC5/display.c ****         display_segLBuffer[position] = LO8(charDisplay);
1846:Generated_Source\PSoC5/display.c ****     #if (display_NUM_SEG > 8u)
1847:Generated_Source\PSoC5/display.c ****         display_segMBuffer[position] = HI8(charDisplay);
1848:Generated_Source\PSoC5/display.c ****     #endif /* (display_NUM_SEG > 8u) */
ARM GAS  C:\Users\Dell\AppData\Local\Temp\ccFHrQg5.s 			page 50


1849:Generated_Source\PSoC5/display.c ****     }
1850:Generated_Source\PSoC5/display.c **** }
1851:Generated_Source\PSoC5/display.c **** 
1852:Generated_Source\PSoC5/display.c **** 
1853:Generated_Source\PSoC5/display.c **** /*******************************************************************************
1854:Generated_Source\PSoC5/display.c **** * Function Name: display_Write14SegDigitDec
1855:Generated_Source\PSoC5/display.c **** ********************************************************************************
1856:Generated_Source\PSoC5/display.c **** *
1857:Generated_Source\PSoC5/display.c **** * Summary:
1858:Generated_Source\PSoC5/display.c **** *  Displays a single digit on the specified display. The number in 'digit' 
1859:Generated_Source\PSoC5/display.c **** *  (0-9) is placed on 'position'.
1860:Generated_Source\PSoC5/display.c **** *
1861:Generated_Source\PSoC5/display.c **** * Parameters:
1862:Generated_Source\PSoC5/display.c **** *  uint8 digit: A number between 0 and 9 to display.
1863:Generated_Source\PSoC5/display.c **** *  uint8 position: Position of the display in which to place the number.
1864:Generated_Source\PSoC5/display.c **** *
1865:Generated_Source\PSoC5/display.c **** * Return:
1866:Generated_Source\PSoC5/display.c **** *  None
1867:Generated_Source\PSoC5/display.c **** *
1868:Generated_Source\PSoC5/display.c **** * Side effects:
1869:Generated_Source\PSoC5/display.c **** *  None
1870:Generated_Source\PSoC5/display.c **** *
1871:Generated_Source\PSoC5/display.c **** *******************************************************************************/
1872:Generated_Source\PSoC5/display.c **** void display_Write14SegDigitDec(uint8 digit, uint8 position)
1873:Generated_Source\PSoC5/display.c **** 
1874:Generated_Source\PSoC5/display.c **** {
1875:Generated_Source\PSoC5/display.c ****     uint16 charDisplay;
1876:Generated_Source\PSoC5/display.c ****     
1877:Generated_Source\PSoC5/display.c ****     if((digit < 10u) && (position < display_NUM_COM))
1878:Generated_Source\PSoC5/display.c ****     {
1879:Generated_Source\PSoC5/display.c ****         charDisplay = display_EncodeNumber14Seg(digit);
1880:Generated_Source\PSoC5/display.c ****         display_segLBuffer[position] = LO8(charDisplay);
1881:Generated_Source\PSoC5/display.c ****     #if (display_NUM_SEG > 8u)
1882:Generated_Source\PSoC5/display.c ****         display_segMBuffer[position] = HI8(charDisplay);
1883:Generated_Source\PSoC5/display.c ****     #endif /* (display_NUM_SEG > 8u) */
1884:Generated_Source\PSoC5/display.c ****     }
1885:Generated_Source\PSoC5/display.c **** }
1886:Generated_Source\PSoC5/display.c **** 
1887:Generated_Source\PSoC5/display.c **** 
1888:Generated_Source\PSoC5/display.c **** /*******************************************************************************
1889:Generated_Source\PSoC5/display.c **** * Function Name: display_Write14SegDigitHex
1890:Generated_Source\PSoC5/display.c **** ********************************************************************************
1891:Generated_Source\PSoC5/display.c **** *
1892:Generated_Source\PSoC5/display.c **** * Summary:
1893:Generated_Source\PSoC5/display.c **** *  Displays a single digit at the specified position. The number in 'digit' 
1894:Generated_Source\PSoC5/display.c **** *  (0-F) is placed on 'position'.
1895:Generated_Source\PSoC5/display.c **** *
1896:Generated_Source\PSoC5/display.c **** * Parameters:
1897:Generated_Source\PSoC5/display.c **** *  uint8 digit: A number between 0x0 and 0xF (0 to 15)
1898:Generated_Source\PSoC5/display.c **** *  uint8 position: The position in which to place the number.
1899:Generated_Source\PSoC5/display.c **** *
1900:Generated_Source\PSoC5/display.c **** * Return:
1901:Generated_Source\PSoC5/display.c **** *  None
1902:Generated_Source\PSoC5/display.c **** *
1903:Generated_Source\PSoC5/display.c **** * Side effects:
1904:Generated_Source\PSoC5/display.c **** *  None
1905:Generated_Source\PSoC5/display.c **** *
ARM GAS  C:\Users\Dell\AppData\Local\Temp\ccFHrQg5.s 			page 51


1906:Generated_Source\PSoC5/display.c **** *******************************************************************************/
1907:Generated_Source\PSoC5/display.c **** void display_Write14SegDigitHex(uint8 digit, uint8 position)
1908:Generated_Source\PSoC5/display.c **** 
1909:Generated_Source\PSoC5/display.c **** {
1910:Generated_Source\PSoC5/display.c ****     uint16 charDisplay;
1911:Generated_Source\PSoC5/display.c **** 
1912:Generated_Source\PSoC5/display.c ****     if(position < display_NUM_COM)
1913:Generated_Source\PSoC5/display.c ****     {
1914:Generated_Source\PSoC5/display.c ****         charDisplay = display_EncodeNumber14Seg(digit);
1915:Generated_Source\PSoC5/display.c ****         display_segLBuffer[position] = LO8(charDisplay);
1916:Generated_Source\PSoC5/display.c ****     #if (display_NUM_SEG > 8u)
1917:Generated_Source\PSoC5/display.c ****         display_segMBuffer[position] = HI8(charDisplay);
1918:Generated_Source\PSoC5/display.c ****     #endif /* (display_NUM_SEG > 8u) */
1919:Generated_Source\PSoC5/display.c ****     }
1920:Generated_Source\PSoC5/display.c **** }
1921:Generated_Source\PSoC5/display.c **** 
1922:Generated_Source\PSoC5/display.c **** 
1923:Generated_Source\PSoC5/display.c **** /*******************************************************************************
1924:Generated_Source\PSoC5/display.c **** * Function Name: display_Write16SegNumberDec
1925:Generated_Source\PSoC5/display.c **** ********************************************************************************
1926:Generated_Source\PSoC5/display.c **** *
1927:Generated_Source\PSoC5/display.c **** * Summary:
1928:Generated_Source\PSoC5/display.c **** *  Displays a signed integer up to 8 characters long, starting at 'position' 
1929:Generated_Source\PSoC5/display.c **** *  and extending for 'digits' characters. The negative sign will take an extra 
1930:Generated_Source\PSoC5/display.c **** *  digit if it is required.
1931:Generated_Source\PSoC5/display.c **** *
1932:Generated_Source\PSoC5/display.c **** * Parameters:
1933:Generated_Source\PSoC5/display.c **** *  int32 number: a signed integer number to display. It is the responsibility 
1934:Generated_Source\PSoC5/display.c **** *                of the user to ensure that the display has enough digits to 
1935:Generated_Source\PSoC5/display.c **** *                accurately represent the number passed to this function. If 
1936:Generated_Source\PSoC5/display.c **** *                not, the least significant digits will be displayed. Also 
1937:Generated_Source\PSoC5/display.c **** *                note that a negative number will require 1 more digit than the
1938:Generated_Source\PSoC5/display.c **** *                equivalent positive number to display the negative sign.
1939:Generated_Source\PSoC5/display.c **** *  uint8 position: Digit position of the Display/Common RAM to start.
1940:Generated_Source\PSoC5/display.c **** *  uint8 digits: The number of digits you wish to use to display the value 
1941:Generated_Source\PSoC5/display.c **** *                passed into the function. The negative sign will take an extra 
1942:Generated_Source\PSoC5/display.c **** *                digit if it is required.
1943:Generated_Source\PSoC5/display.c **** *  uint8 alignment: How to align the provided number in the allocated digits.
1944:Generated_Source\PSoC5/display.c **** *       RIGHT_ALIGN - Least significant digit occupies the rightmost digit
1945:Generated_Source\PSoC5/display.c **** *                     (position + digits). Unused digits are turned off unless
1946:Generated_Source\PSoC5/display.c **** *                     ZERO_PAD enabled.
1947:Generated_Source\PSoC5/display.c **** *       LEFT_ALIGN - Most significant digit (or negative sign) occupies the
1948:Generated_Source\PSoC5/display.c **** *                    digit specified by position. Unused digits are turned off.
1949:Generated_Source\PSoC5/display.c **** *       ZERO_PAD - Unused digits to the left are padded with leading zeros.
1950:Generated_Source\PSoC5/display.c **** * Return:
1951:Generated_Source\PSoC5/display.c **** *  None
1952:Generated_Source\PSoC5/display.c **** *
1953:Generated_Source\PSoC5/display.c **** * Side effects:
1954:Generated_Source\PSoC5/display.c **** *  None
1955:Generated_Source\PSoC5/display.c **** *
1956:Generated_Source\PSoC5/display.c **** *******************************************************************************/
1957:Generated_Source\PSoC5/display.c **** void display_Write16SegNumberDec(int32 number, uint8 position, uint8 digits, uint8 alignment)
1958:Generated_Source\PSoC5/display.c **** 
1959:Generated_Source\PSoC5/display.c **** {
1960:Generated_Source\PSoC5/display.c ****     uint8 i;
1961:Generated_Source\PSoC5/display.c ****     uint8 relPosition;
1962:Generated_Source\PSoC5/display.c ****     uint8 numberSign;
ARM GAS  C:\Users\Dell\AppData\Local\Temp\ccFHrQg5.s 			page 52


1963:Generated_Source\PSoC5/display.c ****     uint8 selectVal;
1964:Generated_Source\PSoC5/display.c ****     uint8 zeroCount = 0u;
1965:Generated_Source\PSoC5/display.c ****     uint16 bufArray[8u] = {0u};
1966:Generated_Source\PSoC5/display.c ****     uint32 numberVal;
1967:Generated_Source\PSoC5/display.c ****     
1968:Generated_Source\PSoC5/display.c ****     /* Routine to extract the sign and to convert to unsigned */
1969:Generated_Source\PSoC5/display.c ****     if(number >= display_ZERO_NEG)
1970:Generated_Source\PSoC5/display.c ****     {
1971:Generated_Source\PSoC5/display.c ****         numberVal = (uint32)number;
1972:Generated_Source\PSoC5/display.c ****         numberSign = display_UNSIGNED;
1973:Generated_Source\PSoC5/display.c ****     }
1974:Generated_Source\PSoC5/display.c ****     else
1975:Generated_Source\PSoC5/display.c ****     {
1976:Generated_Source\PSoC5/display.c ****         numberVal = (uint32)(-number);
1977:Generated_Source\PSoC5/display.c ****         numberSign = display_SIGNED;
1978:Generated_Source\PSoC5/display.c ****     }
1979:Generated_Source\PSoC5/display.c ****     
1980:Generated_Source\PSoC5/display.c ****     /* Fill up the temporary array */
1981:Generated_Source\PSoC5/display.c ****     for(i = digits; i > 0u; i--)
1982:Generated_Source\PSoC5/display.c ****     {
1983:Generated_Source\PSoC5/display.c ****         selectVal = (uint8)(numberVal % 10u);
1984:Generated_Source\PSoC5/display.c ****         bufArray[i-1u] = display_EncodeNumber16Seg(selectVal);
1985:Generated_Source\PSoC5/display.c ****         numberVal = numberVal / 10u;
1986:Generated_Source\PSoC5/display.c ****     }
1987:Generated_Source\PSoC5/display.c ****     
1988:Generated_Source\PSoC5/display.c ****     /* Clean up the array and place sign if needed */
1989:Generated_Source\PSoC5/display.c ****     if(alignment == display_ZERO_PAD)
1990:Generated_Source\PSoC5/display.c ****     {
1991:Generated_Source\PSoC5/display.c ****         if(numberSign == display_SIGNED)
1992:Generated_Source\PSoC5/display.c ****         {
1993:Generated_Source\PSoC5/display.c ****             /* Place sign on the MSB */
1994:Generated_Source\PSoC5/display.c ****             bufArray[0u] = display_EncodeChar16Seg('-');
1995:Generated_Source\PSoC5/display.c ****         }
1996:Generated_Source\PSoC5/display.c ****     }
1997:Generated_Source\PSoC5/display.c ****     else
1998:Generated_Source\PSoC5/display.c ****     {
1999:Generated_Source\PSoC5/display.c ****         for(i = 0u; i < digits; i++)
2000:Generated_Source\PSoC5/display.c ****         {
2001:Generated_Source\PSoC5/display.c ****             if (bufArray[i] != display_ZERO_16CHAR)
2002:Generated_Source\PSoC5/display.c ****             {
2003:Generated_Source\PSoC5/display.c ****                 if(numberSign == display_SIGNED)
2004:Generated_Source\PSoC5/display.c ****                 {
2005:Generated_Source\PSoC5/display.c ****                     if(i == 0u)
2006:Generated_Source\PSoC5/display.c ****                     {
2007:Generated_Source\PSoC5/display.c ****                         /* Place sign on the MSB */
2008:Generated_Source\PSoC5/display.c ****                         bufArray[i] = display_EncodeChar16Seg('-');
2009:Generated_Source\PSoC5/display.c ****                     }
2010:Generated_Source\PSoC5/display.c ****                     else
2011:Generated_Source\PSoC5/display.c ****                     {
2012:Generated_Source\PSoC5/display.c ****                         /* Place sign before MSB */
2013:Generated_Source\PSoC5/display.c ****                         bufArray[i-1u] = display_EncodeChar16Seg('-');
2014:Generated_Source\PSoC5/display.c ****                     }
2015:Generated_Source\PSoC5/display.c ****                 }
2016:Generated_Source\PSoC5/display.c ****                 /* Exit when encountering non-zero number */
2017:Generated_Source\PSoC5/display.c ****                 break;
2018:Generated_Source\PSoC5/display.c ****             }
2019:Generated_Source\PSoC5/display.c ****             else
ARM GAS  C:\Users\Dell\AppData\Local\Temp\ccFHrQg5.s 			page 53


2020:Generated_Source\PSoC5/display.c ****             {
2021:Generated_Source\PSoC5/display.c ****                 if(zeroCount != (digits - 1u))
2022:Generated_Source\PSoC5/display.c ****                 {
2023:Generated_Source\PSoC5/display.c ****                     /* Turn off the display */
2024:Generated_Source\PSoC5/display.c ****                     bufArray[i] = display_CLEAR_16;
2025:Generated_Source\PSoC5/display.c ****                     zeroCount++;
2026:Generated_Source\PSoC5/display.c ****                 }
2027:Generated_Source\PSoC5/display.c ****             }    
2028:Generated_Source\PSoC5/display.c ****         }
2029:Generated_Source\PSoC5/display.c ****     }
2030:Generated_Source\PSoC5/display.c ****     
2031:Generated_Source\PSoC5/display.c ****     relPosition = position;
2032:Generated_Source\PSoC5/display.c ****     
2033:Generated_Source\PSoC5/display.c ****     /* Place the values in the segment array according to alignment */
2034:Generated_Source\PSoC5/display.c ****     if(alignment == display_LEFT_ALIGN)
2035:Generated_Source\PSoC5/display.c ****     {
2036:Generated_Source\PSoC5/display.c ****         for(i = 0u; i < digits; i++)
2037:Generated_Source\PSoC5/display.c ****         {
2038:Generated_Source\PSoC5/display.c ****             if(bufArray[i] != display_CLEAR_16)
2039:Generated_Source\PSoC5/display.c ****             {
2040:Generated_Source\PSoC5/display.c ****                 if(relPosition < display_NUM_COM)
2041:Generated_Source\PSoC5/display.c ****                 {
2042:Generated_Source\PSoC5/display.c ****                     /* Only show displays that are not empty */
2043:Generated_Source\PSoC5/display.c ****                     display_segLBuffer[relPosition] = LO8(bufArray[i]);
2044:Generated_Source\PSoC5/display.c ****                 #if (display_NUM_SEG > 8u)
2045:Generated_Source\PSoC5/display.c ****                     display_segMBuffer[relPosition] = HI8(bufArray[i]);
2046:Generated_Source\PSoC5/display.c ****                 #endif /* (display_NUM_SEG > 8u) */
2047:Generated_Source\PSoC5/display.c ****                 }
2048:Generated_Source\PSoC5/display.c ****                 relPosition++;
2049:Generated_Source\PSoC5/display.c ****             }
2050:Generated_Source\PSoC5/display.c ****         }
2051:Generated_Source\PSoC5/display.c ****         /* Clear the rest of the positions to the right of value */
2052:Generated_Source\PSoC5/display.c ****         while(relPosition < digits)
2053:Generated_Source\PSoC5/display.c ****         {
2054:Generated_Source\PSoC5/display.c ****             /* Only show displays that are not empty */
2055:Generated_Source\PSoC5/display.c ****             display_segLBuffer[relPosition] = display_CLEAR;
2056:Generated_Source\PSoC5/display.c ****             #if (display_NUM_SEG > 8u)
2057:Generated_Source\PSoC5/display.c ****                 display_segMBuffer[relPosition] = display_CLEAR;
2058:Generated_Source\PSoC5/display.c ****             #endif /* (display_NUM_SEG > 8u) */
2059:Generated_Source\PSoC5/display.c ****             
2060:Generated_Source\PSoC5/display.c ****             relPosition++;
2061:Generated_Source\PSoC5/display.c ****         }
2062:Generated_Source\PSoC5/display.c ****     }
2063:Generated_Source\PSoC5/display.c ****     else
2064:Generated_Source\PSoC5/display.c ****     {
2065:Generated_Source\PSoC5/display.c ****         for(i = digits; i > 0u; i--)
2066:Generated_Source\PSoC5/display.c ****         {
2067:Generated_Source\PSoC5/display.c ****             if(((i + relPosition) - 1u) < display_NUM_COM)
2068:Generated_Source\PSoC5/display.c ****             {
2069:Generated_Source\PSoC5/display.c ****                 display_segLBuffer[(i + relPosition) - 1u] = LO8(bufArray[i-1u]);
2070:Generated_Source\PSoC5/display.c ****             #if (display_NUM_SEG > 8u)
2071:Generated_Source\PSoC5/display.c ****                 display_segMBuffer[(i + relPosition) - 1u] = HI8(bufArray[i-1u]);
2072:Generated_Source\PSoC5/display.c ****             #endif /* (display_NUM_SEG > 8u) */
2073:Generated_Source\PSoC5/display.c ****             }
2074:Generated_Source\PSoC5/display.c ****         }
2075:Generated_Source\PSoC5/display.c ****     }
2076:Generated_Source\PSoC5/display.c **** }
ARM GAS  C:\Users\Dell\AppData\Local\Temp\ccFHrQg5.s 			page 54


2077:Generated_Source\PSoC5/display.c **** 
2078:Generated_Source\PSoC5/display.c **** 
2079:Generated_Source\PSoC5/display.c **** /*******************************************************************************
2080:Generated_Source\PSoC5/display.c **** * Function Name: display_Write16SegNumberHex
2081:Generated_Source\PSoC5/display.c **** ********************************************************************************
2082:Generated_Source\PSoC5/display.c **** *
2083:Generated_Source\PSoC5/display.c **** * Summary:
2084:Generated_Source\PSoC5/display.c **** *  Displays a hexadecimal number up to 8 characters long, starting at 'position'
2085:Generated_Source\PSoC5/display.c **** *  and extending for 'digits' characters. If you do not use the correct number 
2086:Generated_Source\PSoC5/display.c **** *  of digits for your number, the least significant digits will be displayed. 
2087:Generated_Source\PSoC5/display.c **** *  For example, if value is 0xDEADBEEF, display is 0 and digits is 4, the result
2088:Generated_Source\PSoC5/display.c **** *  will be: BEEF.
2089:Generated_Source\PSoC5/display.c **** *
2090:Generated_Source\PSoC5/display.c **** * Parameters:
2091:Generated_Source\PSoC5/display.c **** *  uint32 number: The hexadecimal number to display. It is the responsibility of
2092:Generated_Source\PSoC5/display.c **** *  the user to ensure that the display has enough digits to accurately represent
2093:Generated_Source\PSoC5/display.c **** *  the number passed to this function.
2094:Generated_Source\PSoC5/display.c **** *  uint8 position: Position of the Display/Common to start number.
2095:Generated_Source\PSoC5/display.c **** *  uint8 digits: The number of digits you wish to use to display the value 
2096:Generated_Source\PSoC5/display.c **** *                passed into the function.
2097:Generated_Source\PSoC5/display.c **** *  uint8 alignment: How to align the provided number in the allocated digits.
2098:Generated_Source\PSoC5/display.c **** *       RIGHT_ALIGN - Least significant digit occupies the rightmost digit
2099:Generated_Source\PSoC5/display.c **** *                     (position + digits). Unused digits are turned off unless
2100:Generated_Source\PSoC5/display.c **** *                     ZERO_PAD enabled.
2101:Generated_Source\PSoC5/display.c **** *       LEFT_ALIGN - Most significant digit (or negative sign) occupies the
2102:Generated_Source\PSoC5/display.c **** *                    digit specified by position. Unused digits are turned off.
2103:Generated_Source\PSoC5/display.c **** *       ZERO_PAD - Unused digits to the left are padded with leading zeros.
2104:Generated_Source\PSoC5/display.c **** * Return:
2105:Generated_Source\PSoC5/display.c **** *  None
2106:Generated_Source\PSoC5/display.c **** *
2107:Generated_Source\PSoC5/display.c **** * Side effects:
2108:Generated_Source\PSoC5/display.c **** *  None
2109:Generated_Source\PSoC5/display.c **** *
2110:Generated_Source\PSoC5/display.c **** *******************************************************************************/
2111:Generated_Source\PSoC5/display.c **** void display_Write16SegNumberHex(uint32 number, uint8 position, uint8 digits, uint8 alignment)
2112:Generated_Source\PSoC5/display.c **** 
2113:Generated_Source\PSoC5/display.c **** {
2114:Generated_Source\PSoC5/display.c ****     uint8 i;
2115:Generated_Source\PSoC5/display.c ****     uint8 relPosition;
2116:Generated_Source\PSoC5/display.c ****     uint8 selectVal;
2117:Generated_Source\PSoC5/display.c ****     uint16 bufArray[8u] = {0u};
2118:Generated_Source\PSoC5/display.c ****     uint32 numberVal;
2119:Generated_Source\PSoC5/display.c ****     
2120:Generated_Source\PSoC5/display.c ****     numberVal = number;
2121:Generated_Source\PSoC5/display.c ****     
2122:Generated_Source\PSoC5/display.c ****     /* Fill up the temporary array */
2123:Generated_Source\PSoC5/display.c ****     for(i = digits; i > 0u; i--)
2124:Generated_Source\PSoC5/display.c ****     {
2125:Generated_Source\PSoC5/display.c ****         selectVal = (uint8)((uint8)numberVal & display_NIBBLE_MASK);
2126:Generated_Source\PSoC5/display.c ****         bufArray[i-1u] = display_EncodeNumber16Seg(selectVal);
2127:Generated_Source\PSoC5/display.c ****         numberVal = (uint32)((uint32)numberVal >> display_SHIFT_NIBBLE);
2128:Generated_Source\PSoC5/display.c ****     }
2129:Generated_Source\PSoC5/display.c ****     
2130:Generated_Source\PSoC5/display.c ****     /* Clean up the array and place sign if needed */
2131:Generated_Source\PSoC5/display.c ****     for(i = 0u; i < digits; i++)
2132:Generated_Source\PSoC5/display.c ****     {
2133:Generated_Source\PSoC5/display.c ****         if (bufArray[i] != display_ZERO_16CHAR)
ARM GAS  C:\Users\Dell\AppData\Local\Temp\ccFHrQg5.s 			page 55


2134:Generated_Source\PSoC5/display.c ****         {
2135:Generated_Source\PSoC5/display.c ****             /* Exit when encountering non-zero number */
2136:Generated_Source\PSoC5/display.c ****             break;
2137:Generated_Source\PSoC5/display.c ****         }
2138:Generated_Source\PSoC5/display.c ****         else
2139:Generated_Source\PSoC5/display.c ****         {
2140:Generated_Source\PSoC5/display.c ****             /* Turn off the display */
2141:Generated_Source\PSoC5/display.c ****             bufArray[i] = display_CLEAR_16;
2142:Generated_Source\PSoC5/display.c ****         }    
2143:Generated_Source\PSoC5/display.c ****     }
2144:Generated_Source\PSoC5/display.c ****     
2145:Generated_Source\PSoC5/display.c ****     relPosition = position;
2146:Generated_Source\PSoC5/display.c ****     
2147:Generated_Source\PSoC5/display.c ****     /* Place the values in the segment array according to alignment */
2148:Generated_Source\PSoC5/display.c ****     if(alignment == display_LEFT_ALIGN)
2149:Generated_Source\PSoC5/display.c ****     {
2150:Generated_Source\PSoC5/display.c ****         for(i = 0u; i < digits; i++)
2151:Generated_Source\PSoC5/display.c ****         {
2152:Generated_Source\PSoC5/display.c ****             if(bufArray[i] != display_CLEAR_16)
2153:Generated_Source\PSoC5/display.c ****             {
2154:Generated_Source\PSoC5/display.c ****                 if(relPosition < display_NUM_COM)
2155:Generated_Source\PSoC5/display.c ****                 {
2156:Generated_Source\PSoC5/display.c ****                     /* Only show displays that are not empty */
2157:Generated_Source\PSoC5/display.c ****                     display_segLBuffer[relPosition] = LO8(bufArray[i]);
2158:Generated_Source\PSoC5/display.c ****                 #if (display_NUM_SEG > 8u)
2159:Generated_Source\PSoC5/display.c ****                     display_segMBuffer[relPosition] = HI8(bufArray[i]);
2160:Generated_Source\PSoC5/display.c ****                 #endif /* (display_NUM_SEG > 8u) */
2161:Generated_Source\PSoC5/display.c ****                 }
2162:Generated_Source\PSoC5/display.c ****                 relPosition++;
2163:Generated_Source\PSoC5/display.c ****             }
2164:Generated_Source\PSoC5/display.c ****         }
2165:Generated_Source\PSoC5/display.c ****         /* Clear the rest of the positions to the right of value */
2166:Generated_Source\PSoC5/display.c ****         while(relPosition < digits)
2167:Generated_Source\PSoC5/display.c ****         {
2168:Generated_Source\PSoC5/display.c ****             /* Only show displays that are not empty */
2169:Generated_Source\PSoC5/display.c ****             display_segLBuffer[relPosition] = display_CLEAR;
2170:Generated_Source\PSoC5/display.c ****             #if (display_NUM_SEG > 8u)
2171:Generated_Source\PSoC5/display.c ****                 display_segMBuffer[relPosition] = display_CLEAR;
2172:Generated_Source\PSoC5/display.c ****             #endif /* (display_NUM_SEG > 8u) */
2173:Generated_Source\PSoC5/display.c ****             
2174:Generated_Source\PSoC5/display.c ****             relPosition++;
2175:Generated_Source\PSoC5/display.c ****         }
2176:Generated_Source\PSoC5/display.c ****     }
2177:Generated_Source\PSoC5/display.c ****     else
2178:Generated_Source\PSoC5/display.c ****     {
2179:Generated_Source\PSoC5/display.c ****         for(i = digits; i > 0u; i--)
2180:Generated_Source\PSoC5/display.c ****         {
2181:Generated_Source\PSoC5/display.c ****             if(((i + relPosition) - 1u) < display_NUM_COM)
2182:Generated_Source\PSoC5/display.c ****             {
2183:Generated_Source\PSoC5/display.c ****                 display_segLBuffer[(i + relPosition) - 1u] = LO8(bufArray[i-1u]);
2184:Generated_Source\PSoC5/display.c ****             #if (display_NUM_SEG > 8u)
2185:Generated_Source\PSoC5/display.c ****                 display_segMBuffer[(i + relPosition) - 1u] = HI8(bufArray[i-1u]);
2186:Generated_Source\PSoC5/display.c ****             #endif /* (display_NUM_SEG > 8u) */
2187:Generated_Source\PSoC5/display.c ****             }
2188:Generated_Source\PSoC5/display.c ****         }
2189:Generated_Source\PSoC5/display.c ****     }
2190:Generated_Source\PSoC5/display.c **** }
ARM GAS  C:\Users\Dell\AppData\Local\Temp\ccFHrQg5.s 			page 56


2191:Generated_Source\PSoC5/display.c **** 
2192:Generated_Source\PSoC5/display.c **** 
2193:Generated_Source\PSoC5/display.c **** /*******************************************************************************
2194:Generated_Source\PSoC5/display.c **** * Function Name: display_WriteString16Seg
2195:Generated_Source\PSoC5/display.c **** ********************************************************************************
2196:Generated_Source\PSoC5/display.c **** *
2197:Generated_Source\PSoC5/display.c **** * Summary:
2198:Generated_Source\PSoC5/display.c **** *  Displays a null terminated string starting at 'position' and ending at either
2199:Generated_Source\PSoC5/display.c **** *  the  the string or the  the display. The displayable characters 
2200:Generated_Source\PSoC5/display.c **** *  are the same for the LED_Driver_PutCharacter() function. Non-displayable
2201:Generated_Source\PSoC5/display.c **** *  characters will produce a blank space.
2202:Generated_Source\PSoC5/display.c **** *
2203:Generated_Source\PSoC5/display.c **** * Parameters:
2204:Generated_Source\PSoC5/display.c **** *  char8 const character[]: The null terminated string to be displayed.
2205:Generated_Source\PSoC5/display.c **** *  uint8 position: The position to start the string.
2206:Generated_Source\PSoC5/display.c **** * Return:
2207:Generated_Source\PSoC5/display.c **** *  None
2208:Generated_Source\PSoC5/display.c **** *
2209:Generated_Source\PSoC5/display.c **** * Side effects:
2210:Generated_Source\PSoC5/display.c **** *  None
2211:Generated_Source\PSoC5/display.c **** *
2212:Generated_Source\PSoC5/display.c **** *******************************************************************************/
2213:Generated_Source\PSoC5/display.c **** void display_WriteString16Seg(char8 const character[], uint8 position)
2214:Generated_Source\PSoC5/display.c **** 
2215:Generated_Source\PSoC5/display.c **** {
2216:Generated_Source\PSoC5/display.c ****     uint8 currPosition;
2217:Generated_Source\PSoC5/display.c ****     uint8 sizeLimit;
2218:Generated_Source\PSoC5/display.c ****     uint8 i = 0u;
2219:Generated_Source\PSoC5/display.c ****     uint16 charDisplay;
2220:Generated_Source\PSoC5/display.c ****     
2221:Generated_Source\PSoC5/display.c ****     sizeLimit = (uint8)(strlen(character)) + position;
2222:Generated_Source\PSoC5/display.c ****     
2223:Generated_Source\PSoC5/display.c ****     for(currPosition = position; currPosition < display_NUM_COM; currPosition++)
2224:Generated_Source\PSoC5/display.c ****     {
2225:Generated_Source\PSoC5/display.c ****         if(currPosition < sizeLimit)
2226:Generated_Source\PSoC5/display.c ****         {
2227:Generated_Source\PSoC5/display.c ****             charDisplay = display_EncodeChar16Seg(character[i]);
2228:Generated_Source\PSoC5/display.c ****             display_segLBuffer[currPosition] = LO8(charDisplay);
2229:Generated_Source\PSoC5/display.c ****             #if (display_NUM_SEG > 8u)
2230:Generated_Source\PSoC5/display.c ****                 display_segMBuffer[currPosition] = HI8(charDisplay);
2231:Generated_Source\PSoC5/display.c ****             #endif /* (display_NUM_SEG > 8u) */
2232:Generated_Source\PSoC5/display.c ****             i++;
2233:Generated_Source\PSoC5/display.c ****         }
2234:Generated_Source\PSoC5/display.c ****     }
2235:Generated_Source\PSoC5/display.c **** }
2236:Generated_Source\PSoC5/display.c **** 
2237:Generated_Source\PSoC5/display.c **** 
2238:Generated_Source\PSoC5/display.c **** /*******************************************************************************
2239:Generated_Source\PSoC5/display.c **** * Function Name: display_PutChar16Seg
2240:Generated_Source\PSoC5/display.c **** ********************************************************************************
2241:Generated_Source\PSoC5/display.c **** *
2242:Generated_Source\PSoC5/display.c **** * Summary:
2243:Generated_Source\PSoC5/display.c **** *  Displays an ascii encoded character at 'position'. This function can display 
2244:Generated_Source\PSoC5/display.c **** *  all alphanumeric characters. The function can also display '-', '.', '_', 
2245:Generated_Source\PSoC5/display.c **** *  ' ', and '='. All unknown characters are displayed as a space.
2246:Generated_Source\PSoC5/display.c **** *
2247:Generated_Source\PSoC5/display.c **** * Parameters:
ARM GAS  C:\Users\Dell\AppData\Local\Temp\ccFHrQg5.s 			page 57


2248:Generated_Source\PSoC5/display.c **** *  char8 character: ASCII character.
2249:Generated_Source\PSoC5/display.c **** *  uint8 position: The position of the character.
2250:Generated_Source\PSoC5/display.c **** * Return:
2251:Generated_Source\PSoC5/display.c **** *  None
2252:Generated_Source\PSoC5/display.c **** *
2253:Generated_Source\PSoC5/display.c **** * Side effects:
2254:Generated_Source\PSoC5/display.c **** *  None
2255:Generated_Source\PSoC5/display.c **** *
2256:Generated_Source\PSoC5/display.c **** *******************************************************************************/
2257:Generated_Source\PSoC5/display.c **** void display_PutChar16Seg(char8 character , uint8 position)
2258:Generated_Source\PSoC5/display.c **** 
2259:Generated_Source\PSoC5/display.c **** {
2260:Generated_Source\PSoC5/display.c ****     uint16 charDisplay;
2261:Generated_Source\PSoC5/display.c ****     
2262:Generated_Source\PSoC5/display.c ****     if(position < display_NUM_COM)
2263:Generated_Source\PSoC5/display.c ****     {
2264:Generated_Source\PSoC5/display.c ****         charDisplay = display_EncodeChar16Seg(character);
2265:Generated_Source\PSoC5/display.c ****         display_segLBuffer[position] = LO8(charDisplay);
2266:Generated_Source\PSoC5/display.c ****         #if (display_NUM_SEG > 8u)
2267:Generated_Source\PSoC5/display.c ****             display_segMBuffer[position] = HI8(charDisplay);
2268:Generated_Source\PSoC5/display.c ****         #endif /* (display_NUM_SEG > 8u) */
2269:Generated_Source\PSoC5/display.c ****     }
2270:Generated_Source\PSoC5/display.c **** }
2271:Generated_Source\PSoC5/display.c **** 
2272:Generated_Source\PSoC5/display.c **** 
2273:Generated_Source\PSoC5/display.c **** /*******************************************************************************
2274:Generated_Source\PSoC5/display.c **** * Function Name: display_Write16SegDigitDec
2275:Generated_Source\PSoC5/display.c **** ********************************************************************************
2276:Generated_Source\PSoC5/display.c **** *
2277:Generated_Source\PSoC5/display.c **** * Summary:
2278:Generated_Source\PSoC5/display.c **** *  Displays a single digit on the specified display. The number in 'digit' 
2279:Generated_Source\PSoC5/display.c **** *  (0-9) is placed on 'position'.
2280:Generated_Source\PSoC5/display.c **** *
2281:Generated_Source\PSoC5/display.c **** * Parameters:
2282:Generated_Source\PSoC5/display.c **** *  uint8 digit: A number between 0 and 9 to display.
2283:Generated_Source\PSoC5/display.c **** *  uint8 position: Position of the display in which to place the number.
2284:Generated_Source\PSoC5/display.c **** * Return:
2285:Generated_Source\PSoC5/display.c **** *  None
2286:Generated_Source\PSoC5/display.c **** *
2287:Generated_Source\PSoC5/display.c **** * Side effects:
2288:Generated_Source\PSoC5/display.c **** *  None
2289:Generated_Source\PSoC5/display.c **** *
2290:Generated_Source\PSoC5/display.c **** *******************************************************************************/
2291:Generated_Source\PSoC5/display.c **** void display_Write16SegDigitDec(uint8 digit, uint8 position)
2292:Generated_Source\PSoC5/display.c **** 
2293:Generated_Source\PSoC5/display.c **** {
2294:Generated_Source\PSoC5/display.c ****     uint16 charDisplay;
2295:Generated_Source\PSoC5/display.c ****     
2296:Generated_Source\PSoC5/display.c ****     if((digit < 10u) && (position < display_NUM_COM))
2297:Generated_Source\PSoC5/display.c ****     {
2298:Generated_Source\PSoC5/display.c ****         charDisplay = display_EncodeNumber16Seg(digit);
2299:Generated_Source\PSoC5/display.c ****         display_segLBuffer[position] = LO8(charDisplay);
2300:Generated_Source\PSoC5/display.c ****         #if (display_NUM_SEG > 8u)
2301:Generated_Source\PSoC5/display.c ****             display_segMBuffer[position] = HI8(charDisplay);
2302:Generated_Source\PSoC5/display.c ****         #endif /* (display_NUM_SEG > 8u) */
2303:Generated_Source\PSoC5/display.c ****     }
2304:Generated_Source\PSoC5/display.c **** }
ARM GAS  C:\Users\Dell\AppData\Local\Temp\ccFHrQg5.s 			page 58


2305:Generated_Source\PSoC5/display.c **** 
2306:Generated_Source\PSoC5/display.c **** 
2307:Generated_Source\PSoC5/display.c **** /*******************************************************************************
2308:Generated_Source\PSoC5/display.c **** * Function Name: display_Write16SegDigitHex
2309:Generated_Source\PSoC5/display.c **** ********************************************************************************
2310:Generated_Source\PSoC5/display.c **** *
2311:Generated_Source\PSoC5/display.c **** * Summary:
2312:Generated_Source\PSoC5/display.c **** *  Displays a single digit at the specified position. The number in 'digit' 
2313:Generated_Source\PSoC5/display.c **** *  (0-F) is placed on 'position'.
2314:Generated_Source\PSoC5/display.c **** *
2315:Generated_Source\PSoC5/display.c **** * Parameters:
2316:Generated_Source\PSoC5/display.c **** *  uint8 digit: A number between 0x0 and 0xF (0 to 15).
2317:Generated_Source\PSoC5/display.c **** *  uint8 position: The position in which to place the number.
2318:Generated_Source\PSoC5/display.c **** * Return:
2319:Generated_Source\PSoC5/display.c **** *  None
2320:Generated_Source\PSoC5/display.c **** *
2321:Generated_Source\PSoC5/display.c **** * Side effects:
2322:Generated_Source\PSoC5/display.c **** *  None
2323:Generated_Source\PSoC5/display.c **** *
2324:Generated_Source\PSoC5/display.c **** *******************************************************************************/
2325:Generated_Source\PSoC5/display.c **** void display_Write16SegDigitHex(uint8 digit, uint8 position)
2326:Generated_Source\PSoC5/display.c **** 
2327:Generated_Source\PSoC5/display.c **** {
2328:Generated_Source\PSoC5/display.c ****     uint16 charDisplay;
2329:Generated_Source\PSoC5/display.c **** 
2330:Generated_Source\PSoC5/display.c ****     if(position < display_NUM_COM)
2331:Generated_Source\PSoC5/display.c ****     {
2332:Generated_Source\PSoC5/display.c ****         charDisplay = display_EncodeNumber16Seg(digit);
2333:Generated_Source\PSoC5/display.c ****         display_segLBuffer[position] = LO8(charDisplay);
2334:Generated_Source\PSoC5/display.c ****         #if (display_NUM_SEG > 8u)
2335:Generated_Source\PSoC5/display.c ****             display_segMBuffer[position] = HI8(charDisplay);
2336:Generated_Source\PSoC5/display.c ****         #endif /* (display_NUM_SEG > 8u) */
2337:Generated_Source\PSoC5/display.c ****     }
2338:Generated_Source\PSoC5/display.c **** }
2339:Generated_Source\PSoC5/display.c **** 
2340:Generated_Source\PSoC5/display.c **** 
2341:Generated_Source\PSoC5/display.c **** /*******************************************************************************
2342:Generated_Source\PSoC5/display.c **** * Function Name: display_PutDecimalPoint
2343:Generated_Source\PSoC5/display.c **** ********************************************************************************
2344:Generated_Source\PSoC5/display.c **** *
2345:Generated_Source\PSoC5/display.c **** * Summary:
2346:Generated_Source\PSoC5/display.c **** *  Sets or clears the decimal point at the specified position.
2347:Generated_Source\PSoC5/display.c **** *
2348:Generated_Source\PSoC5/display.c **** * Parameters:
2349:Generated_Source\PSoC5/display.c **** *  uint8 dp: If the value is > 0 the decimal point will be set, if zero, the 
2350:Generated_Source\PSoC5/display.c **** *            decimal point will be cleared.
2351:Generated_Source\PSoC5/display.c **** *  uint8 position: The position at which to adjust the decimal point.
2352:Generated_Source\PSoC5/display.c **** * Return:
2353:Generated_Source\PSoC5/display.c **** *  None
2354:Generated_Source\PSoC5/display.c **** *
2355:Generated_Source\PSoC5/display.c **** * Side effects:
2356:Generated_Source\PSoC5/display.c **** *  None
2357:Generated_Source\PSoC5/display.c **** *
2358:Generated_Source\PSoC5/display.c **** *******************************************************************************/
2359:Generated_Source\PSoC5/display.c **** void display_PutDecimalPoint(uint8 dp, uint8 position)
2360:Generated_Source\PSoC5/display.c **** 
2361:Generated_Source\PSoC5/display.c **** {
ARM GAS  C:\Users\Dell\AppData\Local\Temp\ccFHrQg5.s 			page 59


 904              		.loc 1 2361 0
 905              		.cfi_startproc
 906              		@ args = 0, pretend = 0, frame = 0
 907              		@ frame_needed = 0, uses_anonymous_args = 0
 908              		@ link register save eliminated.
 909              	.LVL103:
2362:Generated_Source\PSoC5/display.c ****     uint8 value;
2363:Generated_Source\PSoC5/display.c ****     uint8 relPosition;
2364:Generated_Source\PSoC5/display.c ****     
2365:Generated_Source\PSoC5/display.c ****     value = display_DEC_POINT_VALUE;
2366:Generated_Source\PSoC5/display.c ****     
2367:Generated_Source\PSoC5/display.c ****     if(position < display_NUM_COM)
 910              		.loc 1 2367 0
 911 0000 0129     		cmp	r1, #1
 912 0002 0BD8     		bhi	.L88
 913              	.LVL104:
2368:Generated_Source\PSoC5/display.c ****     {
2369:Generated_Source\PSoC5/display.c ****         relPosition = position;
2370:Generated_Source\PSoC5/display.c ****         if(dp != 0u)
 914              		.loc 1 2370 0
 915 0004 28B1     		cbz	r0, .L90
2371:Generated_Source\PSoC5/display.c ****         {
2372:Generated_Source\PSoC5/display.c ****             #if(display_SEG_DRIVE == display_HIGH)
2373:Generated_Source\PSoC5/display.c ****                 display_segLBuffer[relPosition] |= value;
2374:Generated_Source\PSoC5/display.c ****             #else
2375:Generated_Source\PSoC5/display.c ****                 display_segLBuffer[relPosition] &= value;
 916              		.loc 1 2375 0
 917 0006 064A     		ldr	r2, .L91
 918 0008 535C     		ldrb	r3, [r2, r1]	@ zero_extendqisi2
 919 000a 03F07F03 		and	r3, r3, #127
 920 000e 5354     		strb	r3, [r2, r1]
 921 0010 7047     		bx	lr
 922              	.L90:
2376:Generated_Source\PSoC5/display.c ****             #endif /* (display_SEG_DRIVE == display_HIGH) */
2377:Generated_Source\PSoC5/display.c ****         }
2378:Generated_Source\PSoC5/display.c ****         else
2379:Generated_Source\PSoC5/display.c ****         {
2380:Generated_Source\PSoC5/display.c ****             #if(display_SEG_DRIVE == display_HIGH)
2381:Generated_Source\PSoC5/display.c ****                 display_segLBuffer[relPosition] &= ((uint8)(~(uint8)value));
2382:Generated_Source\PSoC5/display.c ****             #else
2383:Generated_Source\PSoC5/display.c ****                 display_segLBuffer[relPosition] |= ((uint8)(~(uint8)value));
 923              		.loc 1 2383 0
 924 0012 034A     		ldr	r2, .L91
 925 0014 535C     		ldrb	r3, [r2, r1]	@ zero_extendqisi2
 926 0016 63F07F03 		orn	r3, r3, #127
 927 001a 5354     		strb	r3, [r2, r1]
 928              	.LVL105:
 929              	.L88:
 930 001c 7047     		bx	lr
 931              	.L92:
 932 001e 00BF     		.align	2
 933              	.L91:
 934 0020 00000000 		.word	display_segLBuffer
 935              		.cfi_endproc
 936              	.LFE32:
 937              		.size	display_PutDecimalPoint, .-display_PutDecimalPoint
 938              		.section	.text.display_GetDecimalPoint,"ax",%progbits
ARM GAS  C:\Users\Dell\AppData\Local\Temp\ccFHrQg5.s 			page 60


 939              		.align	2
 940              		.global	display_GetDecimalPoint
 941              		.thumb
 942              		.thumb_func
 943              		.type	display_GetDecimalPoint, %function
 944              	display_GetDecimalPoint:
 945              	.LFB33:
2384:Generated_Source\PSoC5/display.c ****             #endif /* (display_SEG_DRIVE == display_HIGH) */
2385:Generated_Source\PSoC5/display.c ****         }
2386:Generated_Source\PSoC5/display.c ****     } 
2387:Generated_Source\PSoC5/display.c ****     else if (position < display_TWO_NUM_COM)
2388:Generated_Source\PSoC5/display.c ****     {
2389:Generated_Source\PSoC5/display.c ****         #if (display_NUM_SEG > 8u)
2390:Generated_Source\PSoC5/display.c ****             relPosition = position - display_NUM_COM;
2391:Generated_Source\PSoC5/display.c ****             if(dp != 0u)
2392:Generated_Source\PSoC5/display.c ****             {
2393:Generated_Source\PSoC5/display.c ****                 #if(display_SEG_DRIVE == display_HIGH)
2394:Generated_Source\PSoC5/display.c ****                     display_segMBuffer[relPosition] |= value;
2395:Generated_Source\PSoC5/display.c ****                 #else
2396:Generated_Source\PSoC5/display.c ****                     display_segMBuffer[relPosition] &= value;
2397:Generated_Source\PSoC5/display.c ****                 #endif /* (display_SEG_DRIVE == display_HIGH) */
2398:Generated_Source\PSoC5/display.c ****             }
2399:Generated_Source\PSoC5/display.c ****             else
2400:Generated_Source\PSoC5/display.c ****             {
2401:Generated_Source\PSoC5/display.c ****                 #if(display_SEG_DRIVE == display_HIGH)
2402:Generated_Source\PSoC5/display.c ****                     display_segMBuffer[relPosition] &= ((uint8)(~(uint8)value));
2403:Generated_Source\PSoC5/display.c ****                 #else
2404:Generated_Source\PSoC5/display.c ****                     display_segMBuffer[relPosition] |= ((uint8)(~(uint8)value));
2405:Generated_Source\PSoC5/display.c ****                 #endif /* (display_SEG_DRIVE == display_HIGH) */
2406:Generated_Source\PSoC5/display.c ****             }
2407:Generated_Source\PSoC5/display.c ****         #endif /* (display_NUM_SEG > 8u) */
2408:Generated_Source\PSoC5/display.c ****     } 
2409:Generated_Source\PSoC5/display.c ****     else
2410:Generated_Source\PSoC5/display.c ****     {
2411:Generated_Source\PSoC5/display.c ****         #if (display_NUM_SEG > 16u)
2412:Generated_Source\PSoC5/display.c ****             relPosition = position - display_TWO_NUM_COM;
2413:Generated_Source\PSoC5/display.c ****             if(relPosition < display_NUM_COM)
2414:Generated_Source\PSoC5/display.c ****             {
2415:Generated_Source\PSoC5/display.c ****                 if(dp != 0u)
2416:Generated_Source\PSoC5/display.c ****                 {
2417:Generated_Source\PSoC5/display.c ****                     #if(display_SEG_DRIVE == display_HIGH)
2418:Generated_Source\PSoC5/display.c ****                         display_segHBuffer[relPosition] |= value;
2419:Generated_Source\PSoC5/display.c ****                     #else
2420:Generated_Source\PSoC5/display.c ****                         display_segHBuffer[relPosition] &= value;
2421:Generated_Source\PSoC5/display.c ****                     #endif /* (display_SEG_DRIVE == display_HIGH) */
2422:Generated_Source\PSoC5/display.c ****                 }
2423:Generated_Source\PSoC5/display.c ****                 else
2424:Generated_Source\PSoC5/display.c ****                 {
2425:Generated_Source\PSoC5/display.c ****                     #if(display_SEG_DRIVE == display_HIGH)
2426:Generated_Source\PSoC5/display.c ****                         display_segHBuffer[relPosition] &= ((uint8)(~(uint8)value));
2427:Generated_Source\PSoC5/display.c ****                     #else
2428:Generated_Source\PSoC5/display.c ****                         display_segHBuffer[relPosition] |= ((uint8)(~(uint8)value));
2429:Generated_Source\PSoC5/display.c ****                     #endif /* (display_SEG_DRIVE == display_HIGH) */
2430:Generated_Source\PSoC5/display.c ****                 }
2431:Generated_Source\PSoC5/display.c ****             }
2432:Generated_Source\PSoC5/display.c ****         #endif /* (display_NUM_SEG > 16u) */
2433:Generated_Source\PSoC5/display.c ****     }
ARM GAS  C:\Users\Dell\AppData\Local\Temp\ccFHrQg5.s 			page 61


2434:Generated_Source\PSoC5/display.c **** }
2435:Generated_Source\PSoC5/display.c **** 
2436:Generated_Source\PSoC5/display.c **** 
2437:Generated_Source\PSoC5/display.c **** /*******************************************************************************
2438:Generated_Source\PSoC5/display.c **** * Function Name: display_GetDecimalPoint
2439:Generated_Source\PSoC5/display.c **** ********************************************************************************
2440:Generated_Source\PSoC5/display.c **** *
2441:Generated_Source\PSoC5/display.c **** * Summary:
2442:Generated_Source\PSoC5/display.c **** *  Returns zero if the decimal point is not set and one if the decimal point 
2443:Generated_Source\PSoC5/display.c **** *  is set.
2444:Generated_Source\PSoC5/display.c **** *
2445:Generated_Source\PSoC5/display.c **** * Parameters:
2446:Generated_Source\PSoC5/display.c **** *  uint8 position: The position in which to query the decimal point value.
2447:Generated_Source\PSoC5/display.c **** *
2448:Generated_Source\PSoC5/display.c **** * Return:
2449:Generated_Source\PSoC5/display.c **** *  Returns the current state of the decimal point (segment #7 on a 7-seg 
2450:Generated_Source\PSoC5/display.c **** *  display). '1' indicates the decimal point is on. '0' indicates the decimal 
2451:Generated_Source\PSoC5/display.c **** *  point is off.
2452:Generated_Source\PSoC5/display.c **** *
2453:Generated_Source\PSoC5/display.c **** * Side effects:
2454:Generated_Source\PSoC5/display.c **** *  None
2455:Generated_Source\PSoC5/display.c **** *
2456:Generated_Source\PSoC5/display.c **** *******************************************************************************/
2457:Generated_Source\PSoC5/display.c **** uint8 display_GetDecimalPoint(uint8 position) 
2458:Generated_Source\PSoC5/display.c **** {
 946              		.loc 1 2458 0
 947              		.cfi_startproc
 948              		@ args = 0, pretend = 0, frame = 0
 949              		@ frame_needed = 0, uses_anonymous_args = 0
 950              		@ link register save eliminated.
 951              	.LVL106:
2459:Generated_Source\PSoC5/display.c ****     uint8 value;
2460:Generated_Source\PSoC5/display.c ****     uint8 relPosition;
2461:Generated_Source\PSoC5/display.c ****     uint8 decPointVal = 0u;
2462:Generated_Source\PSoC5/display.c ****     
2463:Generated_Source\PSoC5/display.c ****     if(position < display_NUM_COM)
 952              		.loc 1 2463 0
 953 0000 0128     		cmp	r0, #1
 954 0002 03D8     		bhi	.L95
 955              	.LVL107:
2464:Generated_Source\PSoC5/display.c ****     {
2465:Generated_Source\PSoC5/display.c ****         relPosition = position;
2466:Generated_Source\PSoC5/display.c ****         decPointVal = (uint8)((uint8)(display_segLBuffer[relPosition]) >> display_DEC_POINT);
 956              		.loc 1 2466 0
 957 0004 034B     		ldr	r3, .L96
 958 0006 185C     		ldrb	r0, [r3, r0]	@ zero_extendqisi2
 959              	.LVL108:
 960 0008 C009     		lsrs	r0, r0, #7
 961              	.LVL109:
 962 000a 00E0     		b	.L94
 963              	.LVL110:
 964              	.L95:
2461:Generated_Source\PSoC5/display.c ****     
 965              		.loc 1 2461 0
 966 000c 0020     		movs	r0, #0
 967              	.LVL111:
 968              	.L94:
ARM GAS  C:\Users\Dell\AppData\Local\Temp\ccFHrQg5.s 			page 62


2467:Generated_Source\PSoC5/display.c ****     } 
2468:Generated_Source\PSoC5/display.c ****     else if (position < display_TWO_NUM_COM)
2469:Generated_Source\PSoC5/display.c ****     {
2470:Generated_Source\PSoC5/display.c ****         #if (display_NUM_SEG > 8u) 
2471:Generated_Source\PSoC5/display.c ****             relPosition = position - display_NUM_COM;
2472:Generated_Source\PSoC5/display.c ****             decPointVal = (uint8)((uint8)(display_segMBuffer[relPosition]) >> display_DEC_POINT);
2473:Generated_Source\PSoC5/display.c ****         #endif /* (display_NUM_SEG > 8u) */
2474:Generated_Source\PSoC5/display.c ****     }
2475:Generated_Source\PSoC5/display.c ****     else
2476:Generated_Source\PSoC5/display.c ****     {
2477:Generated_Source\PSoC5/display.c ****         #if (display_NUM_SEG > 16u)
2478:Generated_Source\PSoC5/display.c ****             relPosition = position - display_TWO_NUM_COM;
2479:Generated_Source\PSoC5/display.c ****             if(relPosition < display_NUM_COM)
2480:Generated_Source\PSoC5/display.c ****             {
2481:Generated_Source\PSoC5/display.c ****                 decPointVal = (uint8)((uint8)(display_segHBuffer[relPosition]) >> display_DEC_POINT
2482:Generated_Source\PSoC5/display.c ****             }
2483:Generated_Source\PSoC5/display.c ****         #endif /* (display_NUM_SEG > 16u) */
2484:Generated_Source\PSoC5/display.c ****     }
2485:Generated_Source\PSoC5/display.c ****     
2486:Generated_Source\PSoC5/display.c ****     #if(display_SEG_DRIVE == display_HIGH)
2487:Generated_Source\PSoC5/display.c ****         value = (uint8)(decPointVal & display_DEC_POINT_MASK);
2488:Generated_Source\PSoC5/display.c ****     #else
2489:Generated_Source\PSoC5/display.c ****         value = (uint8)((uint8)((uint8)~decPointVal) & display_DEC_POINT_MASK);
2490:Generated_Source\PSoC5/display.c ****     #endif /* (display_SEG_DRIVE == display_HIGH) */
2491:Generated_Source\PSoC5/display.c ****     
2492:Generated_Source\PSoC5/display.c ****     return(value);
2493:Generated_Source\PSoC5/display.c **** }
 969              		.loc 1 2493 0
 970 000e 80F00100 		eor	r0, r0, #1
 971              	.LVL112:
 972 0012 7047     		bx	lr
 973              	.L97:
 974              		.align	2
 975              	.L96:
 976 0014 00000000 		.word	display_segLBuffer
 977              		.cfi_endproc
 978              	.LFE33:
 979              		.size	display_GetDecimalPoint, .-display_GetDecimalPoint
 980              		.section	.text.display_EncodeNumber7Seg,"ax",%progbits
 981              		.align	2
 982              		.global	display_EncodeNumber7Seg
 983              		.thumb
 984              		.thumb_func
 985              		.type	display_EncodeNumber7Seg, %function
 986              	display_EncodeNumber7Seg:
 987              	.LFB34:
2494:Generated_Source\PSoC5/display.c **** 
2495:Generated_Source\PSoC5/display.c **** 
2496:Generated_Source\PSoC5/display.c **** /*******************************************************************************
2497:Generated_Source\PSoC5/display.c **** * Function Name: display_EncodeNumber7Seg
2498:Generated_Source\PSoC5/display.c **** ********************************************************************************
2499:Generated_Source\PSoC5/display.c **** *
2500:Generated_Source\PSoC5/display.c **** * Summary:
2501:Generated_Source\PSoC5/display.c **** *  Converts the lower 4 bits of the input into 7-segment data that will display 
2502:Generated_Source\PSoC5/display.c **** *  the number in hex on a display. The returned data can be written directly 
2503:Generated_Source\PSoC5/display.c **** *  into the display RAM to display the desired number. It is not necessary to 
2504:Generated_Source\PSoC5/display.c **** *  use this function since higher level API are provided to both decode the 
ARM GAS  C:\Users\Dell\AppData\Local\Temp\ccFHrQg5.s 			page 63


2505:Generated_Source\PSoC5/display.c **** *  value and write it to the display RAM.
2506:Generated_Source\PSoC5/display.c **** *
2507:Generated_Source\PSoC5/display.c **** * Parameters:
2508:Generated_Source\PSoC5/display.c **** *  uint8 number: A number between 0x0 and 0xF to be converted into segment data.
2509:Generated_Source\PSoC5/display.c **** *
2510:Generated_Source\PSoC5/display.c **** * Return:
2511:Generated_Source\PSoC5/display.c **** *  The value to be written into the display RAM for displaying the specific
2512:Generated_Source\PSoC5/display.c **** *  number.
2513:Generated_Source\PSoC5/display.c **** *
2514:Generated_Source\PSoC5/display.c **** * Side effects:
2515:Generated_Source\PSoC5/display.c **** *  None
2516:Generated_Source\PSoC5/display.c **** *
2517:Generated_Source\PSoC5/display.c **** *******************************************************************************/
2518:Generated_Source\PSoC5/display.c **** uint8 display_EncodeNumber7Seg(uint8 number) 
2519:Generated_Source\PSoC5/display.c **** {
 988              		.loc 1 2519 0
 989              		.cfi_startproc
 990              		@ args = 0, pretend = 0, frame = 0
 991              		@ frame_needed = 0, uses_anonymous_args = 0
 992              		@ link register save eliminated.
 993              	.LVL113:
2520:Generated_Source\PSoC5/display.c ****     /* 7-segment numerical LUT */
2521:Generated_Source\PSoC5/display.c ****     #if(display_SEG_DRIVE == display_HIGH)
2522:Generated_Source\PSoC5/display.c ****         static const uint8 CYCODE display_7SegDigits[16] =
2523:Generated_Source\PSoC5/display.c ****               /*--------------------------------------------------------*/
2524:Generated_Source\PSoC5/display.c ****               /*  '0'    '1'    '2'    '3'    '4'    '5'    '6'    '7'  */
2525:Generated_Source\PSoC5/display.c ****               /*--------------------------------------------------------*/
2526:Generated_Source\PSoC5/display.c ****                 {0x3fu, 0x06u, 0x5bu, 0x4fu, 0x66u, 0x6du, 0x7du, 0x07u,
2527:Generated_Source\PSoC5/display.c ****               /*--------------------------------------------------------*/
2528:Generated_Source\PSoC5/display.c ****               /*  '8'    '9'    'A'    'B'    'C'    'D'    'E'    'F'  */
2529:Generated_Source\PSoC5/display.c ****               /*--------------------------------------------------------*/
2530:Generated_Source\PSoC5/display.c ****                  0x7fu, 0x6fu, 0x77u, 0x7cu, 0x39u, 0x5eu, 0x79u, 0x71u};
2531:Generated_Source\PSoC5/display.c ****     #else
2532:Generated_Source\PSoC5/display.c ****         static const uint8 CYCODE display_7SegDigits[16] =
2533:Generated_Source\PSoC5/display.c ****               /*--------------------------------------------------------*/
2534:Generated_Source\PSoC5/display.c ****               /*  '0'    '1'    '2'    '3'    '4'    '5'    '6'    '7'  */
2535:Generated_Source\PSoC5/display.c ****               /*--------------------------------------------------------*/
2536:Generated_Source\PSoC5/display.c ****                 {0xc0u, 0xf9u, 0xa4u, 0xb0u, 0x99u, 0x92u, 0x82u, 0xf8u,
2537:Generated_Source\PSoC5/display.c ****               /*--------------------------------------------------------*/
2538:Generated_Source\PSoC5/display.c ****               /*  '8'    '9'    'A'    'B'    'C'    'D'    'E'    'F'  */
2539:Generated_Source\PSoC5/display.c ****               /*--------------------------------------------------------*/
2540:Generated_Source\PSoC5/display.c ****                  0x80u, 0x90u, 0x88u, 0x83u, 0xc6u, 0xa1u, 0x86u, 0x8eu};
2541:Generated_Source\PSoC5/display.c ****     #endif /*  display_SEG_DRIVE */
2542:Generated_Source\PSoC5/display.c **** 
2543:Generated_Source\PSoC5/display.c ****     uint8 valNum;
2544:Generated_Source\PSoC5/display.c ****     uint8 valHex;
2545:Generated_Source\PSoC5/display.c ****     
2546:Generated_Source\PSoC5/display.c ****     valNum = (uint8)(number & display_NIBBLE_MASK);
 994              		.loc 1 2546 0
 995 0000 00F00F00 		and	r0, r0, #15
 996              	.LVL114:
2547:Generated_Source\PSoC5/display.c ****     
2548:Generated_Source\PSoC5/display.c ****     valHex = display_7SegDigits[valNum];
2549:Generated_Source\PSoC5/display.c ****     
2550:Generated_Source\PSoC5/display.c ****     return(valHex);
2551:Generated_Source\PSoC5/display.c **** }
 997              		.loc 1 2551 0
ARM GAS  C:\Users\Dell\AppData\Local\Temp\ccFHrQg5.s 			page 64


 998 0004 014B     		ldr	r3, .L99
 999 0006 185C     		ldrb	r0, [r3, r0]	@ zero_extendqisi2
 1000              	.LVL115:
 1001 0008 7047     		bx	lr
 1002              	.L100:
 1003 000a 00BF     		.align	2
 1004              	.L99:
 1005 000c 00000000 		.word	.LANCHOR2
 1006              		.cfi_endproc
 1007              	.LFE34:
 1008              		.size	display_EncodeNumber7Seg, .-display_EncodeNumber7Seg
 1009              		.section	.text.display_Write7SegNumberHex,"ax",%progbits
 1010              		.align	2
 1011              		.global	display_Write7SegNumberHex
 1012              		.thumb
 1013              		.thumb_func
 1014              		.type	display_Write7SegNumberHex, %function
 1015              	display_Write7SegNumberHex:
 1016              	.LFB15:
1122:Generated_Source\PSoC5/display.c ****     uint8 i;
 1017              		.loc 1 1122 0
 1018              		.cfi_startproc
 1019              		@ args = 0, pretend = 0, frame = 8
 1020              		@ frame_needed = 0, uses_anonymous_args = 0
 1021              	.LVL116:
 1022 0000 2DE9F043 		push	{r4, r5, r6, r7, r8, r9, lr}
 1023              		.cfi_def_cfa_offset 28
 1024              		.cfi_offset 4, -28
 1025              		.cfi_offset 5, -24
 1026              		.cfi_offset 6, -20
 1027              		.cfi_offset 7, -16
 1028              		.cfi_offset 8, -12
 1029              		.cfi_offset 9, -8
 1030              		.cfi_offset 14, -4
 1031 0004 83B0     		sub	sp, sp, #12
 1032              		.cfi_def_cfa_offset 40
 1033 0006 8146     		mov	r9, r0
 1034 0008 0E46     		mov	r6, r1
 1035 000a 1446     		mov	r4, r2
 1036 000c 9846     		mov	r8, r3
 1037              	.LVL117:
1128:Generated_Source\PSoC5/display.c ****     uint32 numberVal;
 1038              		.loc 1 1128 0
 1039 000e 0023     		movs	r3, #0
 1040              	.LVL118:
 1041 0010 0093     		str	r3, [sp]
 1042 0012 0193     		str	r3, [sp, #4]
 1043              	.LVL119:
1134:Generated_Source\PSoC5/display.c ****     {
 1044              		.loc 1 1134 0
 1045 0014 0129     		cmp	r1, #1
 1046 0016 09D9     		bls	.L127
1139:Generated_Source\PSoC5/display.c ****     {
 1047              		.loc 1 1139 0
 1048 0018 0329     		cmp	r1, #3
 1049 001a 03D8     		bhi	.L103
 1050              	.LVL120:
ARM GAS  C:\Users\Dell\AppData\Local\Temp\ccFHrQg5.s 			page 65


1142:Generated_Source\PSoC5/display.c ****     }
 1051              		.loc 1 1142 0
 1052 001c 8E1E     		subs	r6, r1, #2
 1053 001e F6B2     		uxtb	r6, r6
 1054              	.LVL121:
1141:Generated_Source\PSoC5/display.c ****         relPosition = position - display_NUM_COM;
 1055              		.loc 1 1141 0
 1056 0020 0127     		movs	r7, #1
 1057 0022 04E0     		b	.L102
 1058              	.LVL122:
 1059              	.L103:
1147:Generated_Source\PSoC5/display.c ****     }
 1060              		.loc 1 1147 0
 1061 0024 0E1F     		subs	r6, r1, #4
 1062 0026 F6B2     		uxtb	r6, r6
 1063              	.LVL123:
1146:Generated_Source\PSoC5/display.c ****         relPosition = position - display_TWO_NUM_COM;
 1064              		.loc 1 1146 0
 1065 0028 0227     		movs	r7, #2
 1066 002a 00E0     		b	.L102
 1067              	.LVL124:
 1068              	.L127:
1136:Generated_Source\PSoC5/display.c ****         relPosition = position;
 1069              		.loc 1 1136 0
 1070 002c 0027     		movs	r7, #0
 1071              	.L102:
 1072              	.LVL125:
1151:Generated_Source\PSoC5/display.c ****     {
 1073              		.loc 1 1151 0
 1074 002e 2346     		mov	r3, r4
 1075 0030 0BE0     		b	.L104
 1076              	.LVL126:
 1077              	.L105:
1154:Generated_Source\PSoC5/display.c ****         numberVal = (uint32)((uint32)numberVal >> display_SHIFT_NIBBLE);
 1078              		.loc 1 1154 0 discriminator 3
 1079 0032 5D1E     		subs	r5, r3, #1
 1080 0034 09F00F00 		and	r0, r9, #15
 1081 0038 FFF7FEFF 		bl	display_EncodeNumber7Seg
 1082              	.LVL127:
 1083 003c 02AB     		add	r3, sp, #8
 1084 003e 2B44     		add	r3, r3, r5
 1085 0040 03F8080C 		strb	r0, [r3, #-8]
1155:Generated_Source\PSoC5/display.c ****     }
 1086              		.loc 1 1155 0 discriminator 3
 1087 0044 4FEA1919 		lsr	r9, r9, #4
 1088              	.LVL128:
1151:Generated_Source\PSoC5/display.c ****     {
 1089              		.loc 1 1151 0 discriminator 3
 1090 0048 EBB2     		uxtb	r3, r5
 1091              	.LVL129:
 1092              	.L104:
1151:Generated_Source\PSoC5/display.c ****     {
 1093              		.loc 1 1151 0 is_stmt 0 discriminator 1
 1094 004a 002B     		cmp	r3, #0
 1095 004c F1D1     		bne	.L105
1159:Generated_Source\PSoC5/display.c ****     {
 1096              		.loc 1 1159 0 is_stmt 1
ARM GAS  C:\Users\Dell\AppData\Local\Temp\ccFHrQg5.s 			page 66


 1097 004e B8F1020F 		cmp	r8, #2
 1098 0052 14D1     		bne	.L128
 1099 0054 17E0     		b	.L107
 1100              	.LVL130:
 1101              	.L109:
1163:Generated_Source\PSoC5/display.c ****             {
 1102              		.loc 1 1163 0
 1103 0056 1946     		mov	r1, r3
 1104 0058 02A8     		add	r0, sp, #8
 1105 005a 1844     		add	r0, r0, r3
 1106 005c 10F8080C 		ldrb	r0, [r0, #-8]	@ zero_extendqisi2
 1107 0060 C028     		cmp	r0, #192
 1108 0062 10D1     		bne	.L107
1170:Generated_Source\PSoC5/display.c ****                 {
 1109              		.loc 1 1170 0
 1110 0064 601E     		subs	r0, r4, #1
 1111 0066 8242     		cmp	r2, r0
 1112 0068 06D0     		beq	.L108
1173:Generated_Source\PSoC5/display.c ****                     zeroCount++;
 1113              		.loc 1 1173 0
 1114 006a 02A8     		add	r0, sp, #8
 1115 006c 0144     		add	r1, r1, r0
 1116 006e FF20     		movs	r0, #255
 1117 0070 01F8080C 		strb	r0, [r1, #-8]
1174:Generated_Source\PSoC5/display.c ****                 }
 1118              		.loc 1 1174 0
 1119 0074 0132     		adds	r2, r2, #1
 1120              	.LVL131:
 1121 0076 D2B2     		uxtb	r2, r2
 1122              	.LVL132:
 1123              	.L108:
1161:Generated_Source\PSoC5/display.c ****         {
 1124              		.loc 1 1161 0 discriminator 2
 1125 0078 0133     		adds	r3, r3, #1
 1126              	.LVL133:
 1127 007a DBB2     		uxtb	r3, r3
 1128              	.LVL134:
 1129 007c 01E0     		b	.L106
 1130              	.LVL135:
 1131              	.L128:
 1132 007e 0022     		movs	r2, #0
 1133 0080 1346     		mov	r3, r2
 1134              	.LVL136:
 1135              	.L106:
1161:Generated_Source\PSoC5/display.c ****         {
 1136              		.loc 1 1161 0 is_stmt 0 discriminator 1
 1137 0082 A342     		cmp	r3, r4
 1138 0084 E7D3     		bcc	.L109
 1139              	.LVL137:
 1140              	.L107:
1181:Generated_Source\PSoC5/display.c ****     {
 1141              		.loc 1 1181 0 is_stmt 1
 1142 0086 B8F1010F 		cmp	r8, #1
 1143 008a 43D1     		bne	.L111
 1144 008c 15E0     		b	.L129
 1145              	.L116:
1185:Generated_Source\PSoC5/display.c ****             {
ARM GAS  C:\Users\Dell\AppData\Local\Temp\ccFHrQg5.s 			page 67


 1146              		.loc 1 1185 0
 1147 008e 02AA     		add	r2, sp, #8
 1148 0090 1A44     		add	r2, r2, r3
 1149 0092 12F8082C 		ldrb	r2, [r2, #-8]	@ zero_extendqisi2
 1150 0096 FF2A     		cmp	r2, #255
 1151 0098 0CD0     		beq	.L112
1187:Generated_Source\PSoC5/display.c ****                 {
 1152              		.loc 1 1187 0
 1153 009a 012E     		cmp	r6, #1
 1154 009c 08D8     		bhi	.L113
1190:Generated_Source\PSoC5/display.c ****                     {
 1155              		.loc 1 1190 0
 1156 009e 17B1     		cbz	r7, .L115
 1157 00a0 022F     		cmp	r7, #2
 1158 00a2 03D8     		bhi	.L114
 1159 00a4 04E0     		b	.L113
 1160              	.L115:
1193:Generated_Source\PSoC5/display.c ****                             break;
 1161              		.loc 1 1193 0
 1162 00a6 1E49     		ldr	r1, .L131
 1163 00a8 8A55     		strb	r2, [r1, r6]
1194:Generated_Source\PSoC5/display.c ****                         case display_SEG_REG_MID :
 1164              		.loc 1 1194 0
 1165 00aa 01E0     		b	.L113
 1166              	.L114:
1206:Generated_Source\PSoC5/display.c ****                             break;
 1167              		.loc 1 1206 0
 1168 00ac 1C49     		ldr	r1, .L131
 1169 00ae 8A55     		strb	r2, [r1, r6]
 1170              	.L113:
1210:Generated_Source\PSoC5/display.c ****             }
 1171              		.loc 1 1210 0
 1172 00b0 0136     		adds	r6, r6, #1
 1173              	.LVL138:
 1174 00b2 F6B2     		uxtb	r6, r6
 1175              	.LVL139:
 1176              	.L112:
1183:Generated_Source\PSoC5/display.c ****         {
 1177              		.loc 1 1183 0 discriminator 2
 1178 00b4 0133     		adds	r3, r3, #1
 1179              	.LVL140:
 1180 00b6 DBB2     		uxtb	r3, r3
 1181              	.LVL141:
 1182 00b8 00E0     		b	.L110
 1183              	.L129:
 1184 00ba 0023     		movs	r3, #0
 1185              	.LVL142:
 1186              	.L110:
1183:Generated_Source\PSoC5/display.c ****         {
 1187              		.loc 1 1183 0 is_stmt 0 discriminator 1
 1188 00bc A342     		cmp	r3, r4
 1189 00be E6D3     		bcc	.L116
 1190 00c0 0CE0     		b	.L117
 1191              	.LVL143:
 1192              	.L121:
1216:Generated_Source\PSoC5/display.c ****             {
 1193              		.loc 1 1216 0 is_stmt 1
ARM GAS  C:\Users\Dell\AppData\Local\Temp\ccFHrQg5.s 			page 68


 1194 00c2 17B1     		cbz	r7, .L119
 1195 00c4 022F     		cmp	r7, #2
 1196 00c6 04D8     		bhi	.L118
 1197 00c8 06E0     		b	.L120
 1198              	.L119:
1219:Generated_Source\PSoC5/display.c ****                     break;
 1199              		.loc 1 1219 0
 1200 00ca FF22     		movs	r2, #255
 1201 00cc 144B     		ldr	r3, .L131
 1202 00ce 9A55     		strb	r2, [r3, r6]
1220:Generated_Source\PSoC5/display.c ****                 case display_SEG_REG_MID :
 1203              		.loc 1 1220 0
 1204 00d0 02E0     		b	.L120
 1205              	.L118:
1232:Generated_Source\PSoC5/display.c ****                     break;
 1206              		.loc 1 1232 0
 1207 00d2 FF22     		movs	r2, #255
 1208 00d4 124B     		ldr	r3, .L131
 1209 00d6 9A55     		strb	r2, [r3, r6]
 1210              	.L120:
1235:Generated_Source\PSoC5/display.c ****         }
 1211              		.loc 1 1235 0
 1212 00d8 0136     		adds	r6, r6, #1
 1213              	.LVL144:
 1214 00da F6B2     		uxtb	r6, r6
 1215              	.LVL145:
 1216              	.L117:
1214:Generated_Source\PSoC5/display.c ****         {
 1217              		.loc 1 1214 0
 1218 00dc A642     		cmp	r6, r4
 1219 00de F0D3     		bcc	.L121
 1220 00e0 1AE0     		b	.L101
 1221              	.LVL146:
 1222              	.L126:
1243:Generated_Source\PSoC5/display.c ****             {
 1223              		.loc 1 1243 0
 1224 00e2 A319     		adds	r3, r4, r6
 1225 00e4 013B     		subs	r3, r3, #1
 1226 00e6 012B     		cmp	r3, #1
 1227 00e8 12D8     		bhi	.L123
1246:Generated_Source\PSoC5/display.c ****                 {
 1228              		.loc 1 1246 0
 1229 00ea 17B1     		cbz	r7, .L125
 1230 00ec 022F     		cmp	r7, #2
 1231 00ee 08D8     		bhi	.L124
 1232 00f0 0EE0     		b	.L123
 1233              	.L125:
1249:Generated_Source\PSoC5/display.c ****                         break;
 1234              		.loc 1 1249 0
 1235 00f2 621E     		subs	r2, r4, #1
 1236 00f4 02A9     		add	r1, sp, #8
 1237 00f6 0A44     		add	r2, r2, r1
 1238 00f8 12F8081C 		ldrb	r1, [r2, #-8]	@ zero_extendqisi2
 1239 00fc 084A     		ldr	r2, .L131
 1240 00fe D154     		strb	r1, [r2, r3]
1250:Generated_Source\PSoC5/display.c ****                     case display_SEG_REG_MID :
 1241              		.loc 1 1250 0
ARM GAS  C:\Users\Dell\AppData\Local\Temp\ccFHrQg5.s 			page 69


 1242 0100 06E0     		b	.L123
 1243              	.L124:
1262:Generated_Source\PSoC5/display.c ****                         break;
 1244              		.loc 1 1262 0
 1245 0102 621E     		subs	r2, r4, #1
 1246 0104 02A9     		add	r1, sp, #8
 1247 0106 0A44     		add	r2, r2, r1
 1248 0108 12F8081C 		ldrb	r1, [r2, #-8]	@ zero_extendqisi2
 1249 010c 044A     		ldr	r2, .L131
 1250 010e D154     		strb	r1, [r2, r3]
 1251              	.L123:
1241:Generated_Source\PSoC5/display.c ****         {
 1252              		.loc 1 1241 0 discriminator 2
 1253 0110 013C     		subs	r4, r4, #1
 1254              	.LVL147:
 1255 0112 E4B2     		uxtb	r4, r4
 1256              	.LVL148:
 1257              	.L111:
1241:Generated_Source\PSoC5/display.c ****         {
 1258              		.loc 1 1241 0 is_stmt 0 discriminator 1
 1259 0114 002C     		cmp	r4, #0
 1260 0116 E4D1     		bne	.L126
 1261              	.LVL149:
 1262              	.L101:
1268:Generated_Source\PSoC5/display.c **** 
 1263              		.loc 1 1268 0 is_stmt 1
 1264 0118 03B0     		add	sp, sp, #12
 1265              		.cfi_def_cfa_offset 28
 1266              		@ sp needed
 1267 011a BDE8F083 		pop	{r4, r5, r6, r7, r8, r9, pc}
 1268              	.LVL150:
 1269              	.L132:
 1270 011e 00BF     		.align	2
 1271              	.L131:
 1272 0120 00000000 		.word	display_segLBuffer
 1273              		.cfi_endproc
 1274              	.LFE15:
 1275              		.size	display_Write7SegNumberHex, .-display_Write7SegNumberHex
 1276              		.section	.text.display_Write7SegDigitDec,"ax",%progbits
 1277              		.align	2
 1278              		.global	display_Write7SegDigitDec
 1279              		.thumb
 1280              		.thumb_func
 1281              		.type	display_Write7SegDigitDec, %function
 1282              	display_Write7SegDigitDec:
 1283              	.LFB18:
1417:Generated_Source\PSoC5/display.c ****     uint8 relPosition;
 1284              		.loc 1 1417 0
 1285              		.cfi_startproc
 1286              		@ args = 0, pretend = 0, frame = 0
 1287              		@ frame_needed = 0, uses_anonymous_args = 0
 1288              	.LVL151:
1421:Generated_Source\PSoC5/display.c ****     {
 1289              		.loc 1 1421 0
 1290 0000 0928     		cmp	r0, #9
 1291 0002 08D8     		bhi	.L136
1423:Generated_Source\PSoC5/display.c ****         {
ARM GAS  C:\Users\Dell\AppData\Local\Temp\ccFHrQg5.s 			page 70


 1292              		.loc 1 1423 0
 1293 0004 0129     		cmp	r1, #1
 1294 0006 06D8     		bhi	.L136
1417:Generated_Source\PSoC5/display.c ****     uint8 relPosition;
 1295              		.loc 1 1417 0
 1296 0008 10B5     		push	{r4, lr}
 1297              		.cfi_def_cfa_offset 8
 1298              		.cfi_offset 4, -8
 1299              		.cfi_offset 14, -4
 1300 000a 0C46     		mov	r4, r1
 1301              	.LVL152:
1426:Generated_Source\PSoC5/display.c ****         }    
 1302              		.loc 1 1426 0
 1303 000c FFF7FEFF 		bl	display_EncodeNumber7Seg
 1304              	.LVL153:
 1305 0010 014B     		ldr	r3, .L137
 1306 0012 1855     		strb	r0, [r3, r4]
 1307 0014 10BD     		pop	{r4, pc}
 1308              	.LVL154:
 1309              	.L136:
 1310              		.cfi_def_cfa_offset 0
 1311              		.cfi_restore 4
 1312              		.cfi_restore 14
 1313 0016 7047     		bx	lr
 1314              	.L138:
 1315              		.align	2
 1316              	.L137:
 1317 0018 00000000 		.word	display_segLBuffer
 1318              		.cfi_endproc
 1319              	.LFE18:
 1320              		.size	display_Write7SegDigitDec, .-display_Write7SegDigitDec
 1321              		.section	.text.display_Write7SegDigitHex,"ax",%progbits
 1322              		.align	2
 1323              		.global	display_Write7SegDigitHex
 1324              		.thumb
 1325              		.thumb_func
 1326              		.type	display_Write7SegDigitHex, %function
 1327              	display_Write7SegDigitHex:
 1328              	.LFB19:
1470:Generated_Source\PSoC5/display.c ****     uint8 relPosition;
 1329              		.loc 1 1470 0
 1330              		.cfi_startproc
 1331              		@ args = 0, pretend = 0, frame = 0
 1332              		@ frame_needed = 0, uses_anonymous_args = 0
 1333              	.LVL155:
1473:Generated_Source\PSoC5/display.c ****     {
 1334              		.loc 1 1473 0
 1335 0000 0129     		cmp	r1, #1
 1336 0002 06D8     		bhi	.L142
1470:Generated_Source\PSoC5/display.c ****     uint8 relPosition;
 1337              		.loc 1 1470 0
 1338 0004 10B5     		push	{r4, lr}
 1339              		.cfi_def_cfa_offset 8
 1340              		.cfi_offset 4, -8
 1341              		.cfi_offset 14, -4
 1342 0006 0C46     		mov	r4, r1
 1343              	.LVL156:
ARM GAS  C:\Users\Dell\AppData\Local\Temp\ccFHrQg5.s 			page 71


1476:Generated_Source\PSoC5/display.c ****     }    
 1344              		.loc 1 1476 0
 1345 0008 FFF7FEFF 		bl	display_EncodeNumber7Seg
 1346              	.LVL157:
 1347 000c 014B     		ldr	r3, .L143
 1348 000e 1855     		strb	r0, [r3, r4]
 1349 0010 10BD     		pop	{r4, pc}
 1350              	.LVL158:
 1351              	.L142:
 1352              		.cfi_def_cfa_offset 0
 1353              		.cfi_restore 4
 1354              		.cfi_restore 14
 1355 0012 7047     		bx	lr
 1356              	.L144:
 1357              		.align	2
 1358              	.L143:
 1359 0014 00000000 		.word	display_segLBuffer
 1360              		.cfi_endproc
 1361              	.LFE19:
 1362              		.size	display_Write7SegDigitHex, .-display_Write7SegDigitHex
 1363              		.section	.text.display_EncodeChar7Seg,"ax",%progbits
 1364              		.align	2
 1365              		.global	display_EncodeChar7Seg
 1366              		.thumb
 1367              		.thumb_func
 1368              		.type	display_EncodeChar7Seg, %function
 1369              	display_EncodeChar7Seg:
 1370              	.LFB35:
2552:Generated_Source\PSoC5/display.c **** 
2553:Generated_Source\PSoC5/display.c **** 
2554:Generated_Source\PSoC5/display.c **** /*******************************************************************************
2555:Generated_Source\PSoC5/display.c **** * Function Name: display_EncodeChar7Seg
2556:Generated_Source\PSoC5/display.c **** ********************************************************************************
2557:Generated_Source\PSoC5/display.c **** *
2558:Generated_Source\PSoC5/display.c **** * Summary:
2559:Generated_Source\PSoC5/display.c **** *  Converts the ASCII encoded alphabet character input into the 7-segment data
2560:Generated_Source\PSoC5/display.c **** *  that will display the alphabet character on a display. The returned data can
2561:Generated_Source\PSoC5/display.c **** *  be written directly into the display RAM to display the desired number. It is
2562:Generated_Source\PSoC5/display.c **** *  not necessary to use this function since higher level API are provided to 
2563:Generated_Source\PSoC5/display.c **** *  both decode the value and write it to the display RAM.
2564:Generated_Source\PSoC5/display.c **** *
2565:Generated_Source\PSoC5/display.c **** * Parameters:
2566:Generated_Source\PSoC5/display.c **** *  char8 input: An ASCII alphabet character to be converted into segment data.
2567:Generated_Source\PSoC5/display.c **** *
2568:Generated_Source\PSoC5/display.c **** * Return:
2569:Generated_Source\PSoC5/display.c **** *  The value to be written into the display RAM for displaying the specified
2570:Generated_Source\PSoC5/display.c **** *  character.
2571:Generated_Source\PSoC5/display.c **** *
2572:Generated_Source\PSoC5/display.c **** * Side effects:
2573:Generated_Source\PSoC5/display.c **** *  None
2574:Generated_Source\PSoC5/display.c **** *
2575:Generated_Source\PSoC5/display.c **** *******************************************************************************/
2576:Generated_Source\PSoC5/display.c **** uint8 display_EncodeChar7Seg(char8 input)  
2577:Generated_Source\PSoC5/display.c **** {
 1371              		.loc 1 2577 0
 1372              		.cfi_startproc
 1373              		@ args = 0, pretend = 0, frame = 0
ARM GAS  C:\Users\Dell\AppData\Local\Temp\ccFHrQg5.s 			page 72


 1374              		@ frame_needed = 0, uses_anonymous_args = 0
 1375              		@ link register save eliminated.
 1376              	.LVL159:
2578:Generated_Source\PSoC5/display.c ****     /* 7-segment ASCII LUT */
2579:Generated_Source\PSoC5/display.c ****     #if(display_SEG_DRIVE == display_HIGH)
2580:Generated_Source\PSoC5/display.c ****         static const uint8 CYCODE display_7SegASCII[6][16] =
2581:Generated_Source\PSoC5/display.c ****               {
2582:Generated_Source\PSoC5/display.c ****               /*--------------------------------------------------------*/
2583:Generated_Source\PSoC5/display.c ****               /* 'Space' '!'    '"'    '#'    '$'    '%'    '&'    '''  */
2584:Generated_Source\PSoC5/display.c ****               /*--------------------------------------------------------*/
2585:Generated_Source\PSoC5/display.c ****                 {0x00u, 0x00u, 0x00u, 0x00u, 0x00u, 0x00u, 0x00u, 0x00u,
2586:Generated_Source\PSoC5/display.c ****               /*--------------------------------------------------------*/
2587:Generated_Source\PSoC5/display.c ****               /*  '('    ')'    '*'    '+'    ','    '-'    '.'    '/'  */
2588:Generated_Source\PSoC5/display.c ****               /*--------------------------------------------------------*/
2589:Generated_Source\PSoC5/display.c ****                  0x00u, 0x00u, 0x00u, 0x00u, 0x00u, 0x40u, 0x80u, 0x00u},
2590:Generated_Source\PSoC5/display.c ****               /*--------------------------------------------------------*/   
2591:Generated_Source\PSoC5/display.c ****               /*  '0'    '1'    '2'    '3'    '4'    '5'    '6'    '7'  */
2592:Generated_Source\PSoC5/display.c ****               /*--------------------------------------------------------*/
2593:Generated_Source\PSoC5/display.c ****                 {0x3fu, 0x06u, 0x5bu, 0x4fu, 0x66u, 0x6du, 0x7du, 0x07u,
2594:Generated_Source\PSoC5/display.c ****               /*--------------------------------------------------------*/
2595:Generated_Source\PSoC5/display.c ****               /*  '8'    '9'    ':'    ';'    '<'    '='    '>'    '?'  */
2596:Generated_Source\PSoC5/display.c ****               /*--------------------------------------------------------*/
2597:Generated_Source\PSoC5/display.c ****                  0x7fu, 0x6fu, 0x00u, 0x00u, 0x00u, 0x48u, 0x00u, 0x00u},
2598:Generated_Source\PSoC5/display.c ****               /*--------------------------------------------------------*/
2599:Generated_Source\PSoC5/display.c ****               /*  '@'    'A'    'B'    'C'    'D'    'E'    'F'    'G'  */
2600:Generated_Source\PSoC5/display.c ****               /*--------------------------------------------------------*/
2601:Generated_Source\PSoC5/display.c ****                 {0x00u, 0x77u, 0x7cu, 0x58u, 0x5eu, 0x79u, 0x71u, 0x3du,
2602:Generated_Source\PSoC5/display.c ****               /*--------------------------------------------------------*/
2603:Generated_Source\PSoC5/display.c ****               /*  'H'    'I'    'J'    'K'    'L'    'M'    'N'    'O'  */
2604:Generated_Source\PSoC5/display.c ****               /*--------------------------------------------------------*/
2605:Generated_Source\PSoC5/display.c ****                  0x74u, 0x10u, 0x1Eu, 0x76u, 0x38u, 0x55u, 0x54u, 0x5cu},
2606:Generated_Source\PSoC5/display.c ****               /*--------------------------------------------------------*/
2607:Generated_Source\PSoC5/display.c ****               /*  'P'    'Q'    'R'    'S'    'T'    'U'    'V'    'W'  */
2608:Generated_Source\PSoC5/display.c ****               /*--------------------------------------------------------*/
2609:Generated_Source\PSoC5/display.c ****                 {0x73u, 0x67u, 0x50u, 0x6du, 0x78u, 0x1cu, 0x1cu, 0x1du,
2610:Generated_Source\PSoC5/display.c ****               /*--------------------------------------------------------*/
2611:Generated_Source\PSoC5/display.c ****               /*  'X'    'Y'    'Z'    '['    '\'    ']'    '^'    '_'  */
2612:Generated_Source\PSoC5/display.c ****               /*--------------------------------------------------------*/
2613:Generated_Source\PSoC5/display.c ****                  0x76u, 0x6eu, 0x5bu, 0x00u, 0x00u, 0x00u, 0x00u, 0x08u},
2614:Generated_Source\PSoC5/display.c ****               /*--------------------------------------------------------*/
2615:Generated_Source\PSoC5/display.c ****               /*  '`'    'a'    'b'    'c'    'd'    'e'    'f'    'g'  */
2616:Generated_Source\PSoC5/display.c ****               /*--------------------------------------------------------*/
2617:Generated_Source\PSoC5/display.c ****                 {0x00u, 0x77u, 0x7cu, 0x58u, 0x5eu, 0x79u, 0x71u, 0x3du,
2618:Generated_Source\PSoC5/display.c ****               /*--------------------------------------------------------*/
2619:Generated_Source\PSoC5/display.c ****               /*  'h'    'i'    'j'    'k'    'l'    'm'    'n'    'o'  */
2620:Generated_Source\PSoC5/display.c ****               /*--------------------------------------------------------*/
2621:Generated_Source\PSoC5/display.c ****                  0x74u, 0x10u, 0x1Eu, 0x76u, 0x38u, 0x55u, 0x54u, 0x5cu},
2622:Generated_Source\PSoC5/display.c ****               /*--------------------------------------------------------*/
2623:Generated_Source\PSoC5/display.c ****               /*  'p'    'q'    'r'    's'    't'    'u'    'v'    'w'  */
2624:Generated_Source\PSoC5/display.c ****               /*--------------------------------------------------------*/
2625:Generated_Source\PSoC5/display.c ****                 {0x73u, 0x67u, 0x50u, 0x6du, 0x78u, 0x1cu, 0x1cu, 0x1du,
2626:Generated_Source\PSoC5/display.c ****               /*--------------------------------------------------------*/
2627:Generated_Source\PSoC5/display.c ****               /*  'x'    'y'    'z'    '{'    '|'    '}'    '~'   'DEL' */
2628:Generated_Source\PSoC5/display.c ****               /*--------------------------------------------------------*/
2629:Generated_Source\PSoC5/display.c ****                  0x76u, 0x6eu, 0x5bu, 0x00u, 0x00u, 0x00u, 0x00u, 0x00u}
2630:Generated_Source\PSoC5/display.c ****               };
2631:Generated_Source\PSoC5/display.c ****     #else
ARM GAS  C:\Users\Dell\AppData\Local\Temp\ccFHrQg5.s 			page 73


2632:Generated_Source\PSoC5/display.c ****         static const uint8 CYCODE display_7SegASCII[6][16] =
2633:Generated_Source\PSoC5/display.c ****               {
2634:Generated_Source\PSoC5/display.c ****               /*--------------------------------------------------------*/
2635:Generated_Source\PSoC5/display.c ****               /* 'Space' '!'    '"'    '#'    '$'    '%'    '&'    '''  */
2636:Generated_Source\PSoC5/display.c ****               /*--------------------------------------------------------*/
2637:Generated_Source\PSoC5/display.c ****                 {0xffu, 0xffu, 0xffu, 0xffu, 0xffu, 0xffu, 0xffu, 0xffu,
2638:Generated_Source\PSoC5/display.c ****               /*--------------------------------------------------------*/
2639:Generated_Source\PSoC5/display.c ****               /*  '('    ')'    '*'    '+'    ','    '-'    '.'    '/'  */
2640:Generated_Source\PSoC5/display.c ****               /*--------------------------------------------------------*/
2641:Generated_Source\PSoC5/display.c ****                  0xffu, 0xffu, 0xffu, 0xffu, 0xffu, 0xBfu, 0x7fu, 0xffu},
2642:Generated_Source\PSoC5/display.c ****               /*--------------------------------------------------------*/   
2643:Generated_Source\PSoC5/display.c ****               /*  '0'    '1'    '2'    '3'    '4'    '5'    '6'    '7'  */
2644:Generated_Source\PSoC5/display.c ****               /*--------------------------------------------------------*/
2645:Generated_Source\PSoC5/display.c ****                 {0xc0u, 0xf9u, 0xa4u, 0xb0u, 0x99u, 0x92u, 0x82u, 0xf8u,
2646:Generated_Source\PSoC5/display.c ****               /*--------------------------------------------------------*/
2647:Generated_Source\PSoC5/display.c ****               /*  '8'    '9'    ':'    ';'    '<'    '='    '>'    '?'  */
2648:Generated_Source\PSoC5/display.c ****               /*--------------------------------------------------------*/
2649:Generated_Source\PSoC5/display.c ****                  0x80u, 0x90u, 0xffu, 0xffu, 0xffu, 0xb7u, 0xffu, 0xffu},
2650:Generated_Source\PSoC5/display.c ****               /*--------------------------------------------------------*/
2651:Generated_Source\PSoC5/display.c ****               /*  '@'    'A'    'B'    'C'    'D'    'E'    'F'    'G'  */
2652:Generated_Source\PSoC5/display.c ****               /*--------------------------------------------------------*/
2653:Generated_Source\PSoC5/display.c ****                 {0xffu, 0x88u, 0x83u, 0xa7u, 0xa1u, 0x86u, 0x8eu, 0xc2u,
2654:Generated_Source\PSoC5/display.c ****               /*--------------------------------------------------------*/
2655:Generated_Source\PSoC5/display.c ****               /*  'H'    'I'    'J'    'K'    'L'    'M'    'N'    'O'  */
2656:Generated_Source\PSoC5/display.c ****               /*--------------------------------------------------------*/
2657:Generated_Source\PSoC5/display.c ****                  0x8bu, 0xefu, 0xe1u, 0x89u, 0xc7u, 0xaau, 0xabu, 0xa3u},
2658:Generated_Source\PSoC5/display.c ****               /*--------------------------------------------------------*/
2659:Generated_Source\PSoC5/display.c ****               /*  'P'    'Q'    'R'    'S'    'T'    'U'    'V'    'W'  */
2660:Generated_Source\PSoC5/display.c ****               /*--------------------------------------------------------*/
2661:Generated_Source\PSoC5/display.c ****                 {0x8cu, 0x98u, 0xafu, 0x92u, 0x87u, 0xe3u, 0xe3u, 0xe2u,
2662:Generated_Source\PSoC5/display.c ****               /*--------------------------------------------------------*/
2663:Generated_Source\PSoC5/display.c ****               /*  'X'    'Y'    'Z'    '['    '\'    ']'    '^'    '_'  */
2664:Generated_Source\PSoC5/display.c ****               /*--------------------------------------------------------*/
2665:Generated_Source\PSoC5/display.c ****                  0x89u, 0x91u, 0xa4u, 0xffu, 0xffu, 0xffu, 0xffu, 0xf7u},
2666:Generated_Source\PSoC5/display.c ****               /*--------------------------------------------------------*/
2667:Generated_Source\PSoC5/display.c ****               /*  '`'    'a'    'b'    'c'    'd'    'e'    'f'    'g'  */
2668:Generated_Source\PSoC5/display.c ****               /*--------------------------------------------------------*/
2669:Generated_Source\PSoC5/display.c ****                 {0xffu, 0x88u, 0x83u, 0xa7u, 0xa1u, 0x86u, 0x8eu, 0xc2u,
2670:Generated_Source\PSoC5/display.c ****               /*--------------------------------------------------------*/
2671:Generated_Source\PSoC5/display.c ****               /*  'h'    'i'    'j'    'k'    'l'    'm'    'n'    'o'  */
2672:Generated_Source\PSoC5/display.c ****               /*--------------------------------------------------------*/
2673:Generated_Source\PSoC5/display.c ****                  0x8bu, 0xefu, 0xe1u, 0x89u, 0xc7u, 0xaau, 0xabu, 0xa3u},
2674:Generated_Source\PSoC5/display.c ****               /*--------------------------------------------------------*/
2675:Generated_Source\PSoC5/display.c ****               /*  'p'    'q'    'r'    's'    't'    'u'    'v'    'w'  */
2676:Generated_Source\PSoC5/display.c ****               /*--------------------------------------------------------*/
2677:Generated_Source\PSoC5/display.c ****                 {0x8cu, 0x98u, 0xafu, 0x92u, 0x87u, 0xe3u, 0xe3u, 0xe2u,
2678:Generated_Source\PSoC5/display.c ****               /*--------------------------------------------------------*/
2679:Generated_Source\PSoC5/display.c ****               /*  'x'    'y'    'z'    '{'    '|'    '}'    '~'   'DEL' */
2680:Generated_Source\PSoC5/display.c ****               /*--------------------------------------------------------*/
2681:Generated_Source\PSoC5/display.c ****                  0x89u, 0x91u, 0xa4u, 0xffu, 0xffu, 0xffu, 0xffu, 0xffu}
2682:Generated_Source\PSoC5/display.c ****               };
2683:Generated_Source\PSoC5/display.c ****     #endif /*  display_SEG_DRIVE */
2684:Generated_Source\PSoC5/display.c ****     
2685:Generated_Source\PSoC5/display.c ****     uint8 valLow;
2686:Generated_Source\PSoC5/display.c ****     uint8 valHigh;
2687:Generated_Source\PSoC5/display.c ****     uint8 valHex;
2688:Generated_Source\PSoC5/display.c ****     
ARM GAS  C:\Users\Dell\AppData\Local\Temp\ccFHrQg5.s 			page 74


2689:Generated_Source\PSoC5/display.c ****     valLow = (uint8)((uint8)input & display_NIBBLE_MASK);
 1377              		.loc 1 2689 0
 1378 0000 00F00F03 		and	r3, r0, #15
 1379              	.LVL160:
2690:Generated_Source\PSoC5/display.c ****     
2691:Generated_Source\PSoC5/display.c ****     /* valHigh used to access the row of LUT */
2692:Generated_Source\PSoC5/display.c ****     valHigh = (uint8)((uint8)input >> display_SHIFT_NIBBLE);
 1380              		.loc 1 2692 0
 1381 0004 0009     		lsrs	r0, r0, #4
 1382              	.LVL161:
2693:Generated_Source\PSoC5/display.c ****     
2694:Generated_Source\PSoC5/display.c ****     /* Check if the high nibble is within valid ASCII range */
2695:Generated_Source\PSoC5/display.c ****     if ((valHigh > display_SEG_ASCII_LIM_LO) && (valHigh < display_SEG_ASCII_LIM_HI))
 1383              		.loc 1 2695 0
 1384 0006 0238     		subs	r0, r0, #2
 1385              	.LVL162:
 1386 0008 C0B2     		uxtb	r0, r0
 1387              	.LVL163:
 1388 000a 0528     		cmp	r0, #5
 1389 000c 05D8     		bhi	.L147
 1390              	.LVL164:
2696:Generated_Source\PSoC5/display.c ****     {
2697:Generated_Source\PSoC5/display.c ****         valHigh = valHigh - display_SEG_ASCII_OFFSET;
2698:Generated_Source\PSoC5/display.c ****         valHex = display_7SegASCII[valHigh][valLow];
 1391              		.loc 1 2698 0
 1392 000e 044A     		ldr	r2, .L148
 1393 0010 02EB0010 		add	r0, r2, r0, lsl #4
 1394              	.LVL165:
 1395 0014 0344     		add	r3, r3, r0
 1396              	.LVL166:
 1397 0016 187C     		ldrb	r0, [r3, #16]	@ zero_extendqisi2
 1398              	.LVL167:
 1399 0018 7047     		bx	lr
 1400              	.LVL168:
 1401              	.L147:
2699:Generated_Source\PSoC5/display.c ****     }
2700:Generated_Source\PSoC5/display.c ****     else
2701:Generated_Source\PSoC5/display.c ****     {
2702:Generated_Source\PSoC5/display.c ****         valHex = display_CLEAR;
 1402              		.loc 1 2702 0
 1403 001a FF20     		movs	r0, #255
 1404              	.LVL169:
2703:Generated_Source\PSoC5/display.c ****     }
2704:Generated_Source\PSoC5/display.c ****     
2705:Generated_Source\PSoC5/display.c ****     return(valHex);
2706:Generated_Source\PSoC5/display.c **** }
 1405              		.loc 1 2706 0
 1406 001c 7047     		bx	lr
 1407              	.L149:
 1408 001e 00BF     		.align	2
 1409              	.L148:
 1410 0020 00000000 		.word	.LANCHOR2
 1411              		.cfi_endproc
 1412              	.LFE35:
 1413              		.size	display_EncodeChar7Seg, .-display_EncodeChar7Seg
 1414              		.section	.text.display_Write7SegNumberDec,"ax",%progbits
 1415              		.align	2
ARM GAS  C:\Users\Dell\AppData\Local\Temp\ccFHrQg5.s 			page 75


 1416              		.global	display_Write7SegNumberDec
 1417              		.thumb
 1418              		.thumb_func
 1419              		.type	display_Write7SegNumberDec, %function
 1420              	display_Write7SegNumberDec:
 1421              	.LFB14:
 903:Generated_Source\PSoC5/display.c ****     uint8 i;
 1422              		.loc 1 903 0
 1423              		.cfi_startproc
 1424              		@ args = 0, pretend = 0, frame = 8
 1425              		@ frame_needed = 0, uses_anonymous_args = 0
 1426              	.LVL170:
 1427 0000 2DE9F047 		push	{r4, r5, r6, r7, r8, r9, r10, lr}
 1428              		.cfi_def_cfa_offset 32
 1429              		.cfi_offset 4, -32
 1430              		.cfi_offset 5, -28
 1431              		.cfi_offset 6, -24
 1432              		.cfi_offset 7, -20
 1433              		.cfi_offset 8, -16
 1434              		.cfi_offset 9, -12
 1435              		.cfi_offset 10, -8
 1436              		.cfi_offset 14, -4
 1437 0004 82B0     		sub	sp, sp, #8
 1438              		.cfi_def_cfa_offset 40
 1439 0006 0D46     		mov	r5, r1
 1440 0008 1446     		mov	r4, r2
 1441 000a 1F46     		mov	r7, r3
 1442              	.LVL171:
 910:Generated_Source\PSoC5/display.c ****     uint32 numberVal;
 1443              		.loc 1 910 0
 1444 000c 0023     		movs	r3, #0
 1445              	.LVL172:
 1446 000e 0093     		str	r3, [sp]
 1447 0010 0193     		str	r3, [sp, #4]
 914:Generated_Source\PSoC5/display.c ****     {
 1448              		.loc 1 914 0
 1449 0012 0129     		cmp	r1, #1
 1450 0014 09D9     		bls	.L180
 919:Generated_Source\PSoC5/display.c ****     {
 1451              		.loc 1 919 0
 1452 0016 0329     		cmp	r1, #3
 1453 0018 03D8     		bhi	.L152
 1454              	.LVL173:
 922:Generated_Source\PSoC5/display.c ****     }
 1455              		.loc 1 922 0
 1456 001a 8D1E     		subs	r5, r1, #2
 1457 001c EDB2     		uxtb	r5, r5
 1458              	.LVL174:
 921:Generated_Source\PSoC5/display.c ****         relPosition = position - display_NUM_COM;
 1459              		.loc 1 921 0
 1460 001e 0126     		movs	r6, #1
 1461 0020 04E0     		b	.L151
 1462              	.LVL175:
 1463              	.L152:
 927:Generated_Source\PSoC5/display.c ****     }
 1464              		.loc 1 927 0
 1465 0022 0D1F     		subs	r5, r1, #4
ARM GAS  C:\Users\Dell\AppData\Local\Temp\ccFHrQg5.s 			page 76


 1466 0024 EDB2     		uxtb	r5, r5
 1467              	.LVL176:
 926:Generated_Source\PSoC5/display.c ****         relPosition = position - display_TWO_NUM_COM;
 1468              		.loc 1 926 0
 1469 0026 0226     		movs	r6, #2
 1470 0028 00E0     		b	.L151
 1471              	.LVL177:
 1472              	.L180:
 916:Generated_Source\PSoC5/display.c ****         relPosition = position;
 1473              		.loc 1 916 0
 1474 002a 0026     		movs	r6, #0
 1475              	.L151:
 1476              	.LVL178:
 931:Generated_Source\PSoC5/display.c ****     {
 1477              		.loc 1 931 0
 1478 002c 0028     		cmp	r0, #0
 1479 002e 03DB     		blt	.L153
 933:Generated_Source\PSoC5/display.c ****         numberSign = display_UNSIGNED;
 1480              		.loc 1 933 0
 1481 0030 0246     		mov	r2, r0
 1482              	.LVL179:
 934:Generated_Source\PSoC5/display.c ****     }
 1483              		.loc 1 934 0
 1484 0032 4FF00008 		mov	r8, #0
 1485 0036 02E0     		b	.L154
 1486              	.LVL180:
 1487              	.L153:
 938:Generated_Source\PSoC5/display.c ****         numberSign = display_SIGNED;
 1488              		.loc 1 938 0
 1489 0038 4242     		negs	r2, r0
 1490              	.LVL181:
 939:Generated_Source\PSoC5/display.c ****     }
 1491              		.loc 1 939 0
 1492 003a 4FF00108 		mov	r8, #1
 1493              	.LVL182:
 1494              	.L154:
 943:Generated_Source\PSoC5/display.c ****     {
 1495              		.loc 1 943 0
 1496 003e 2346     		mov	r3, r4
 1497 0040 14E0     		b	.L155
 1498              	.LVL183:
 1499              	.L156:
 945:Generated_Source\PSoC5/display.c ****         bufArray[i-1u] = display_EncodeNumber7Seg(selectVal);
 1500              		.loc 1 945 0 discriminator 3
 1501 0042 4D48     		ldr	r0, .L184
 1502 0044 A0FB0210 		umull	r1, r0, r0, r2
 1503 0048 C008     		lsrs	r0, r0, #3
 1504 004a 8146     		mov	r9, r0
 1505 004c 00EB8000 		add	r0, r0, r0, lsl #2
 1506 0050 4100     		lsls	r1, r0, #1
 1507 0052 501A     		subs	r0, r2, r1
 1508              	.LVL184:
 946:Generated_Source\PSoC5/display.c ****         numberVal = numberVal / 10u;
 1509              		.loc 1 946 0 discriminator 3
 1510 0054 03F1FF3A 		add	r10, r3, #-1
 1511 0058 C0B2     		uxtb	r0, r0
 1512 005a FFF7FEFF 		bl	display_EncodeNumber7Seg
ARM GAS  C:\Users\Dell\AppData\Local\Temp\ccFHrQg5.s 			page 77


 1513              	.LVL185:
 1514 005e 02AB     		add	r3, sp, #8
 1515 0060 5344     		add	r3, r3, r10
 1516 0062 03F8080C 		strb	r0, [r3, #-8]
 947:Generated_Source\PSoC5/display.c ****     }
 1517              		.loc 1 947 0 discriminator 3
 1518 0066 4A46     		mov	r2, r9
 1519              	.LVL186:
 943:Generated_Source\PSoC5/display.c ****     {
 1520              		.loc 1 943 0 discriminator 3
 1521 0068 5FFA8AF3 		uxtb	r3, r10
 1522              	.LVL187:
 1523              	.L155:
 943:Generated_Source\PSoC5/display.c ****     {
 1524              		.loc 1 943 0 is_stmt 0 discriminator 1
 1525 006c 002B     		cmp	r3, #0
 1526 006e E8D1     		bne	.L156
 951:Generated_Source\PSoC5/display.c ****     {
 1527              		.loc 1 951 0 is_stmt 1
 1528 0070 022F     		cmp	r7, #2
 1529 0072 32D1     		bne	.L181
 953:Generated_Source\PSoC5/display.c ****         {
 1530              		.loc 1 953 0
 1531 0074 B8F1000F 		cmp	r8, #0
 1532 0078 33D0     		beq	.L158
 956:Generated_Source\PSoC5/display.c ****         }
 1533              		.loc 1 956 0
 1534 007a 2D20     		movs	r0, #45
 1535 007c FFF7FEFF 		bl	display_EncodeChar7Seg
 1536              	.LVL188:
 1537 0080 8DF80000 		strb	r0, [sp]
 1538 0084 2DE0     		b	.L158
 1539              	.LVL189:
 1540              	.L162:
 963:Generated_Source\PSoC5/display.c ****             {
 1541              		.loc 1 963 0
 1542 0086 9946     		mov	r9, r3
 1543 0088 02A9     		add	r1, sp, #8
 1544 008a 1944     		add	r1, r1, r3
 1545 008c 11F8081C 		ldrb	r1, [r1, #-8]	@ zero_extendqisi2
 1546 0090 C029     		cmp	r1, #192
 1547 0092 15D0     		beq	.L159
 965:Generated_Source\PSoC5/display.c ****                 {
 1548              		.loc 1 965 0
 1549 0094 B8F1000F 		cmp	r8, #0
 1550 0098 23D0     		beq	.L158
 967:Generated_Source\PSoC5/display.c ****                     {
 1551              		.loc 1 967 0
 1552 009a 3BB9     		cbnz	r3, .L160
 970:Generated_Source\PSoC5/display.c ****                     }
 1553              		.loc 1 970 0
 1554 009c 2D20     		movs	r0, #45
 1555 009e FFF7FEFF 		bl	display_EncodeChar7Seg
 1556              	.LVL190:
 1557 00a2 02AB     		add	r3, sp, #8
 1558 00a4 9944     		add	r9, r9, r3
 1559 00a6 09F8080C 		strb	r0, [r9, #-8]
ARM GAS  C:\Users\Dell\AppData\Local\Temp\ccFHrQg5.s 			page 78


 1560 00aa 1AE0     		b	.L158
 1561              	.LVL191:
 1562              	.L160:
 975:Generated_Source\PSoC5/display.c ****                     }
 1563              		.loc 1 975 0
 1564 00ac 03F1FF38 		add	r8, r3, #-1
 1565              	.LVL192:
 1566 00b0 2D20     		movs	r0, #45
 1567 00b2 FFF7FEFF 		bl	display_EncodeChar7Seg
 1568              	.LVL193:
 1569 00b6 02AB     		add	r3, sp, #8
 1570 00b8 4344     		add	r3, r3, r8
 1571 00ba 03F8080C 		strb	r0, [r3, #-8]
 1572 00be 10E0     		b	.L158
 1573              	.LVL194:
 1574              	.L159:
 983:Generated_Source\PSoC5/display.c ****                 {
 1575              		.loc 1 983 0
 1576 00c0 611E     		subs	r1, r4, #1
 1577 00c2 8A42     		cmp	r2, r1
 1578 00c4 06D0     		beq	.L161
 986:Generated_Source\PSoC5/display.c ****                     zeroCount++;
 1579              		.loc 1 986 0
 1580 00c6 02A9     		add	r1, sp, #8
 1581 00c8 8944     		add	r9, r9, r1
 1582 00ca FF21     		movs	r1, #255
 1583 00cc 09F8081C 		strb	r1, [r9, #-8]
 987:Generated_Source\PSoC5/display.c ****                 }
 1584              		.loc 1 987 0
 1585 00d0 0132     		adds	r2, r2, #1
 1586              	.LVL195:
 1587 00d2 D2B2     		uxtb	r2, r2
 1588              	.LVL196:
 1589              	.L161:
 961:Generated_Source\PSoC5/display.c ****         {
 1590              		.loc 1 961 0 discriminator 2
 1591 00d4 0133     		adds	r3, r3, #1
 1592              	.LVL197:
 1593 00d6 DBB2     		uxtb	r3, r3
 1594              	.LVL198:
 1595 00d8 01E0     		b	.L157
 1596              	.LVL199:
 1597              	.L181:
 1598 00da 0022     		movs	r2, #0
 1599              	.LVL200:
 1600 00dc 1346     		mov	r3, r2
 1601              	.LVL201:
 1602              	.L157:
 961:Generated_Source\PSoC5/display.c ****         {
 1603              		.loc 1 961 0 is_stmt 0 discriminator 1
 1604 00de A342     		cmp	r3, r4
 1605 00e0 D1D3     		bcc	.L162
 1606              	.LVL202:
 1607              	.L158:
 994:Generated_Source\PSoC5/display.c ****     {
 1608              		.loc 1 994 0 is_stmt 1
 1609 00e2 012F     		cmp	r7, #1
ARM GAS  C:\Users\Dell\AppData\Local\Temp\ccFHrQg5.s 			page 79


 1610 00e4 43D1     		bne	.L164
 1611 00e6 15E0     		b	.L182
 1612              	.LVL203:
 1613              	.L169:
 998:Generated_Source\PSoC5/display.c ****             {
 1614              		.loc 1 998 0
 1615 00e8 02AA     		add	r2, sp, #8
 1616 00ea 1A44     		add	r2, r2, r3
 1617 00ec 12F8082C 		ldrb	r2, [r2, #-8]	@ zero_extendqisi2
 1618 00f0 FF2A     		cmp	r2, #255
 1619 00f2 0CD0     		beq	.L165
1000:Generated_Source\PSoC5/display.c ****                 {
 1620              		.loc 1 1000 0
 1621 00f4 012D     		cmp	r5, #1
 1622 00f6 08D8     		bhi	.L166
1003:Generated_Source\PSoC5/display.c ****                     {
 1623              		.loc 1 1003 0
 1624 00f8 16B1     		cbz	r6, .L168
 1625 00fa 022E     		cmp	r6, #2
 1626 00fc 03D8     		bhi	.L167
 1627 00fe 04E0     		b	.L166
 1628              	.L168:
1006:Generated_Source\PSoC5/display.c ****                             break;
 1629              		.loc 1 1006 0
 1630 0100 1E49     		ldr	r1, .L184+4
 1631 0102 4A55     		strb	r2, [r1, r5]
1007:Generated_Source\PSoC5/display.c ****                         case display_SEG_REG_MID :
 1632              		.loc 1 1007 0
 1633 0104 01E0     		b	.L166
 1634              	.L167:
1019:Generated_Source\PSoC5/display.c ****                             break;
 1635              		.loc 1 1019 0
 1636 0106 1D49     		ldr	r1, .L184+4
 1637 0108 4A55     		strb	r2, [r1, r5]
 1638              	.L166:
1023:Generated_Source\PSoC5/display.c ****             }
 1639              		.loc 1 1023 0
 1640 010a 0135     		adds	r5, r5, #1
 1641              	.LVL204:
 1642 010c EDB2     		uxtb	r5, r5
 1643              	.LVL205:
 1644              	.L165:
 996:Generated_Source\PSoC5/display.c ****         {
 1645              		.loc 1 996 0 discriminator 2
 1646 010e 0133     		adds	r3, r3, #1
 1647              	.LVL206:
 1648 0110 DBB2     		uxtb	r3, r3
 1649              	.LVL207:
 1650 0112 00E0     		b	.L163
 1651              	.LVL208:
 1652              	.L182:
 1653 0114 0023     		movs	r3, #0
 1654              	.L163:
 1655              	.LVL209:
 996:Generated_Source\PSoC5/display.c ****         {
 1656              		.loc 1 996 0 is_stmt 0 discriminator 1
 1657 0116 A342     		cmp	r3, r4
ARM GAS  C:\Users\Dell\AppData\Local\Temp\ccFHrQg5.s 			page 80


 1658 0118 E6D3     		bcc	.L169
 1659 011a 0CE0     		b	.L170
 1660              	.LVL210:
 1661              	.L174:
1029:Generated_Source\PSoC5/display.c ****             {
 1662              		.loc 1 1029 0 is_stmt 1
 1663 011c 16B1     		cbz	r6, .L172
 1664 011e 022E     		cmp	r6, #2
 1665 0120 04D8     		bhi	.L171
 1666 0122 06E0     		b	.L173
 1667              	.L172:
1032:Generated_Source\PSoC5/display.c ****                     break;
 1668              		.loc 1 1032 0
 1669 0124 FF22     		movs	r2, #255
 1670 0126 154B     		ldr	r3, .L184+4
 1671 0128 5A55     		strb	r2, [r3, r5]
1033:Generated_Source\PSoC5/display.c ****                 case display_SEG_REG_MID :
 1672              		.loc 1 1033 0
 1673 012a 02E0     		b	.L173
 1674              	.L171:
1045:Generated_Source\PSoC5/display.c ****                     break;
 1675              		.loc 1 1045 0
 1676 012c FF22     		movs	r2, #255
 1677 012e 134B     		ldr	r3, .L184+4
 1678 0130 5A55     		strb	r2, [r3, r5]
 1679              	.L173:
1048:Generated_Source\PSoC5/display.c ****         }
 1680              		.loc 1 1048 0
 1681 0132 0135     		adds	r5, r5, #1
 1682              	.LVL211:
 1683 0134 EDB2     		uxtb	r5, r5
 1684              	.LVL212:
 1685              	.L170:
1027:Generated_Source\PSoC5/display.c ****         {
 1686              		.loc 1 1027 0
 1687 0136 A542     		cmp	r5, r4
 1688 0138 F0D3     		bcc	.L174
 1689 013a 1AE0     		b	.L150
 1690              	.LVL213:
 1691              	.L179:
1056:Generated_Source\PSoC5/display.c ****             {
 1692              		.loc 1 1056 0
 1693 013c 6319     		adds	r3, r4, r5
 1694 013e 013B     		subs	r3, r3, #1
 1695 0140 012B     		cmp	r3, #1
 1696 0142 12D8     		bhi	.L176
1059:Generated_Source\PSoC5/display.c ****                 {
 1697              		.loc 1 1059 0
 1698 0144 16B1     		cbz	r6, .L178
 1699 0146 022E     		cmp	r6, #2
 1700 0148 08D8     		bhi	.L177
 1701 014a 0EE0     		b	.L176
 1702              	.L178:
1062:Generated_Source\PSoC5/display.c ****                         break;
 1703              		.loc 1 1062 0
 1704 014c 621E     		subs	r2, r4, #1
 1705 014e 02A9     		add	r1, sp, #8
ARM GAS  C:\Users\Dell\AppData\Local\Temp\ccFHrQg5.s 			page 81


 1706 0150 0A44     		add	r2, r2, r1
 1707 0152 12F8081C 		ldrb	r1, [r2, #-8]	@ zero_extendqisi2
 1708 0156 094A     		ldr	r2, .L184+4
 1709 0158 D154     		strb	r1, [r2, r3]
1063:Generated_Source\PSoC5/display.c ****                     case display_SEG_REG_MID :
 1710              		.loc 1 1063 0
 1711 015a 06E0     		b	.L176
 1712              	.L177:
1075:Generated_Source\PSoC5/display.c ****                         break;
 1713              		.loc 1 1075 0
 1714 015c 621E     		subs	r2, r4, #1
 1715 015e 02A9     		add	r1, sp, #8
 1716 0160 0A44     		add	r2, r2, r1
 1717 0162 12F8081C 		ldrb	r1, [r2, #-8]	@ zero_extendqisi2
 1718 0166 054A     		ldr	r2, .L184+4
 1719 0168 D154     		strb	r1, [r2, r3]
 1720              	.L176:
1054:Generated_Source\PSoC5/display.c ****         {
 1721              		.loc 1 1054 0 discriminator 2
 1722 016a 013C     		subs	r4, r4, #1
 1723              	.LVL214:
 1724 016c E4B2     		uxtb	r4, r4
 1725              	.LVL215:
 1726              	.L164:
1054:Generated_Source\PSoC5/display.c ****         {
 1727              		.loc 1 1054 0 is_stmt 0 discriminator 1
 1728 016e 002C     		cmp	r4, #0
 1729 0170 E4D1     		bne	.L179
 1730              	.LVL216:
 1731              	.L150:
1081:Generated_Source\PSoC5/display.c **** 
 1732              		.loc 1 1081 0 is_stmt 1
 1733 0172 02B0     		add	sp, sp, #8
 1734              		.cfi_def_cfa_offset 32
 1735              		@ sp needed
 1736 0174 BDE8F087 		pop	{r4, r5, r6, r7, r8, r9, r10, pc}
 1737              	.LVL217:
 1738              	.L185:
 1739              		.align	2
 1740              	.L184:
 1741 0178 CDCCCCCC 		.word	-858993459
 1742 017c 00000000 		.word	display_segLBuffer
 1743              		.cfi_endproc
 1744              	.LFE14:
 1745              		.size	display_Write7SegNumberDec, .-display_Write7SegNumberDec
 1746              		.section	.text.display_WriteString7Seg,"ax",%progbits
 1747              		.align	2
 1748              		.global	display_WriteString7Seg
 1749              		.thumb
 1750              		.thumb_func
 1751              		.type	display_WriteString7Seg, %function
 1752              	display_WriteString7Seg:
 1753              	.LFB16:
1294:Generated_Source\PSoC5/display.c ****     uint8 relPosition;
 1754              		.loc 1 1294 0
 1755              		.cfi_startproc
 1756              		@ args = 0, pretend = 0, frame = 0
ARM GAS  C:\Users\Dell\AppData\Local\Temp\ccFHrQg5.s 			page 82


 1757              		@ frame_needed = 0, uses_anonymous_args = 0
 1758              	.LVL218:
1299:Generated_Source\PSoC5/display.c ****     {
 1759              		.loc 1 1299 0
 1760 0000 0129     		cmp	r1, #1
 1761 0002 16D8     		bhi	.L192
1294:Generated_Source\PSoC5/display.c ****     uint8 relPosition;
 1762              		.loc 1 1294 0
 1763 0004 F8B5     		push	{r3, r4, r5, r6, r7, lr}
 1764              		.cfi_def_cfa_offset 24
 1765              		.cfi_offset 3, -24
 1766              		.cfi_offset 4, -20
 1767              		.cfi_offset 5, -16
 1768              		.cfi_offset 6, -12
 1769              		.cfi_offset 7, -8
 1770              		.cfi_offset 14, -4
 1771 0006 0746     		mov	r7, r0
 1772 0008 0C46     		mov	r4, r1
1301:Generated_Source\PSoC5/display.c ****         for(relPosition = position; relPosition < display_NUM_COM; relPosition++)
 1773              		.loc 1 1301 0
 1774 000a FFF7FEFF 		bl	strlen
 1775              	.LVL219:
 1776 000e 2044     		add	r0, r0, r4
 1777 0010 C6B2     		uxtb	r6, r0
 1778              	.LVL220:
1297:Generated_Source\PSoC5/display.c ****     
 1779              		.loc 1 1297 0
 1780 0012 0025     		movs	r5, #0
1302:Generated_Source\PSoC5/display.c ****         {
 1781              		.loc 1 1302 0
 1782 0014 0AE0     		b	.L188
 1783              	.LVL221:
 1784              	.L190:
1304:Generated_Source\PSoC5/display.c ****             {
 1785              		.loc 1 1304 0
 1786 0016 B442     		cmp	r4, r6
 1787 0018 06D2     		bcs	.L189
1306:Generated_Source\PSoC5/display.c ****                 i++;
 1788              		.loc 1 1306 0
 1789 001a 785D     		ldrb	r0, [r7, r5]	@ zero_extendqisi2
 1790 001c FFF7FEFF 		bl	display_EncodeChar7Seg
 1791              	.LVL222:
 1792 0020 044B     		ldr	r3, .L193
 1793 0022 1855     		strb	r0, [r3, r4]
1307:Generated_Source\PSoC5/display.c ****             }
 1794              		.loc 1 1307 0
 1795 0024 0135     		adds	r5, r5, #1
 1796              	.LVL223:
 1797 0026 EDB2     		uxtb	r5, r5
 1798              	.LVL224:
 1799              	.L189:
1302:Generated_Source\PSoC5/display.c ****         {
 1800              		.loc 1 1302 0 discriminator 2
 1801 0028 0134     		adds	r4, r4, #1
 1802              	.LVL225:
 1803 002a E4B2     		uxtb	r4, r4
 1804              	.LVL226:
ARM GAS  C:\Users\Dell\AppData\Local\Temp\ccFHrQg5.s 			page 83


 1805              	.L188:
1302:Generated_Source\PSoC5/display.c ****         {
 1806              		.loc 1 1302 0 is_stmt 0 discriminator 1
 1807 002c 012C     		cmp	r4, #1
 1808 002e F2D9     		bls	.L190
 1809 0030 F8BD     		pop	{r3, r4, r5, r6, r7, pc}
 1810              	.LVL227:
 1811              	.L192:
 1812              		.cfi_def_cfa_offset 0
 1813              		.cfi_restore 3
 1814              		.cfi_restore 4
 1815              		.cfi_restore 5
 1816              		.cfi_restore 6
 1817              		.cfi_restore 7
 1818              		.cfi_restore 14
 1819 0032 7047     		bx	lr
 1820              	.L194:
 1821              		.align	2
 1822              	.L193:
 1823 0034 00000000 		.word	display_segLBuffer
 1824              		.cfi_endproc
 1825              	.LFE16:
 1826              		.size	display_WriteString7Seg, .-display_WriteString7Seg
 1827              		.section	.text.display_PutChar7Seg,"ax",%progbits
 1828              		.align	2
 1829              		.global	display_PutChar7Seg
 1830              		.thumb
 1831              		.thumb_func
 1832              		.type	display_PutChar7Seg, %function
 1833              	display_PutChar7Seg:
 1834              	.LFB17:
1368:Generated_Source\PSoC5/display.c ****     uint8 relPosition;
 1835              		.loc 1 1368 0 is_stmt 1
 1836              		.cfi_startproc
 1837              		@ args = 0, pretend = 0, frame = 0
 1838              		@ frame_needed = 0, uses_anonymous_args = 0
 1839              	.LVL228:
1371:Generated_Source\PSoC5/display.c ****     {
 1840              		.loc 1 1371 0
 1841 0000 0129     		cmp	r1, #1
 1842 0002 06D8     		bhi	.L198
1368:Generated_Source\PSoC5/display.c ****     uint8 relPosition;
 1843              		.loc 1 1368 0
 1844 0004 10B5     		push	{r4, lr}
 1845              		.cfi_def_cfa_offset 8
 1846              		.cfi_offset 4, -8
 1847              		.cfi_offset 14, -4
 1848 0006 0C46     		mov	r4, r1
 1849              	.LVL229:
1374:Generated_Source\PSoC5/display.c ****     }    
 1850              		.loc 1 1374 0
 1851 0008 FFF7FEFF 		bl	display_EncodeChar7Seg
 1852              	.LVL230:
 1853 000c 014B     		ldr	r3, .L199
 1854 000e 1855     		strb	r0, [r3, r4]
 1855 0010 10BD     		pop	{r4, pc}
 1856              	.LVL231:
ARM GAS  C:\Users\Dell\AppData\Local\Temp\ccFHrQg5.s 			page 84


 1857              	.L198:
 1858              		.cfi_def_cfa_offset 0
 1859              		.cfi_restore 4
 1860              		.cfi_restore 14
 1861 0012 7047     		bx	lr
 1862              	.L200:
 1863              		.align	2
 1864              	.L199:
 1865 0014 00000000 		.word	display_segLBuffer
 1866              		.cfi_endproc
 1867              	.LFE17:
 1868              		.size	display_PutChar7Seg, .-display_PutChar7Seg
 1869              		.section	.text.display_EncodeNumber14Seg,"ax",%progbits
 1870              		.align	2
 1871              		.global	display_EncodeNumber14Seg
 1872              		.thumb
 1873              		.thumb_func
 1874              		.type	display_EncodeNumber14Seg, %function
 1875              	display_EncodeNumber14Seg:
 1876              	.LFB36:
2707:Generated_Source\PSoC5/display.c **** 
2708:Generated_Source\PSoC5/display.c **** 
2709:Generated_Source\PSoC5/display.c **** /*******************************************************************************
2710:Generated_Source\PSoC5/display.c **** * Function Name: display_EncodeNumber14Seg
2711:Generated_Source\PSoC5/display.c **** ********************************************************************************
2712:Generated_Source\PSoC5/display.c **** *
2713:Generated_Source\PSoC5/display.c **** * Summary:
2714:Generated_Source\PSoC5/display.c **** *  Converts the lower 4 bits of the input into 14-segment data that will 
2715:Generated_Source\PSoC5/display.c **** *  display the number in hex on a display. 14-segment display RAM is split into 
2716:Generated_Source\PSoC5/display.c **** *  two sections (one for the lower 8 segments, one for the top 6), so the 
2717:Generated_Source\PSoC5/display.c **** *  returned data must be separated into high and low bytes before being written
2718:Generated_Source\PSoC5/display.c **** *  directly into the display RAM to display the desired number. It is not 
2719:Generated_Source\PSoC5/display.c **** *  necessary to use this function since higher level API are provided to both 
2720:Generated_Source\PSoC5/display.c **** *  decode the value and write it to the display RAM.
2721:Generated_Source\PSoC5/display.c **** *
2722:Generated_Source\PSoC5/display.c **** * Parameters:
2723:Generated_Source\PSoC5/display.c **** *  uint8 number A number between 0x0 and 0xF to be converted into segment data.
2724:Generated_Source\PSoC5/display.c **** *
2725:Generated_Source\PSoC5/display.c **** * Return:
2726:Generated_Source\PSoC5/display.c **** *  The value to be written into the display RAM for displaying the specific
2727:Generated_Source\PSoC5/display.c **** *  number.
2728:Generated_Source\PSoC5/display.c **** *
2729:Generated_Source\PSoC5/display.c **** * Side effects:
2730:Generated_Source\PSoC5/display.c **** *  None
2731:Generated_Source\PSoC5/display.c **** *
2732:Generated_Source\PSoC5/display.c **** *******************************************************************************/
2733:Generated_Source\PSoC5/display.c **** uint16 display_EncodeNumber14Seg(uint8 number) 
2734:Generated_Source\PSoC5/display.c **** {
 1877              		.loc 1 2734 0
 1878              		.cfi_startproc
 1879              		@ args = 0, pretend = 0, frame = 0
 1880              		@ frame_needed = 0, uses_anonymous_args = 0
 1881              		@ link register save eliminated.
 1882              	.LVL232:
2735:Generated_Source\PSoC5/display.c ****     #if(display_SEG_DRIVE == display_HIGH)
2736:Generated_Source\PSoC5/display.c ****         /* 14-segment numerical LUT for low byte */
2737:Generated_Source\PSoC5/display.c ****         static const uint8 CYCODE display_14SegDigitsLow[16] =
ARM GAS  C:\Users\Dell\AppData\Local\Temp\ccFHrQg5.s 			page 85


2738:Generated_Source\PSoC5/display.c ****               /*--------------------------------------------------------*/
2739:Generated_Source\PSoC5/display.c ****               /*  '0'    '1'    '2'    '3'    '4'    '5'    '6'    '7'  */
2740:Generated_Source\PSoC5/display.c ****               /*--------------------------------------------------------*/
2741:Generated_Source\PSoC5/display.c ****                 {0x3fu, 0x06u, 0xdbu, 0xcfu, 0xe6u, 0xedu, 0xfdu, 0x07u,
2742:Generated_Source\PSoC5/display.c ****               /*--------------------------------------------------------*/
2743:Generated_Source\PSoC5/display.c ****               /*  '8'    '9'    'A'    'B'    'C'    'D'    'E'    'F'  */
2744:Generated_Source\PSoC5/display.c ****               /*--------------------------------------------------------*/
2745:Generated_Source\PSoC5/display.c ****                  0xffu, 0xefu, 0xf7u, 0x8fu, 0x39u, 0x0fu, 0xf9u, 0xf1u};
2746:Generated_Source\PSoC5/display.c **** 
2747:Generated_Source\PSoC5/display.c ****         /* 14-segment numerical LUT for high byte */
2748:Generated_Source\PSoC5/display.c ****         static const uint8 CYCODE display_14SegDigitsHigh[16] =
2749:Generated_Source\PSoC5/display.c ****               /*--------------------------------------------------------*/
2750:Generated_Source\PSoC5/display.c ****               /*  '0'    '1'    '2'    '3'    '4'    '5'    '6'    '7'  */
2751:Generated_Source\PSoC5/display.c ****               /*--------------------------------------------------------*/
2752:Generated_Source\PSoC5/display.c ****                 {0x24u, 0x00u, 0x00u, 0x00u, 0x00u, 0x00u, 0x00u, 0x00u,
2753:Generated_Source\PSoC5/display.c ****               /*--------------------------------------------------------*/
2754:Generated_Source\PSoC5/display.c ****               /*  '8'    '9'    'A'    'B'    'C'    'D'    'E'    'F'  */
2755:Generated_Source\PSoC5/display.c ****               /*--------------------------------------------------------*/
2756:Generated_Source\PSoC5/display.c ****                  0x00u, 0x00u, 0x00u, 0x12u, 0x00u, 0x12u, 0x00u, 0x00u};
2757:Generated_Source\PSoC5/display.c ****     #else
2758:Generated_Source\PSoC5/display.c ****         /* 14-segment numerical LUT for low byte */
2759:Generated_Source\PSoC5/display.c ****         static const uint8 CYCODE display_14SegDigitsLow[16] =
2760:Generated_Source\PSoC5/display.c ****               /*--------------------------------------------------------*/
2761:Generated_Source\PSoC5/display.c ****               /*  '0'    '1'    '2'    '3'    '4'    '5'    '6'    '7'  */
2762:Generated_Source\PSoC5/display.c ****               /*--------------------------------------------------------*/
2763:Generated_Source\PSoC5/display.c ****                 {0xc0u, 0xf9u, 0x24u, 0x30u, 0x19u, 0x12u, 0x02u, 0xf8u,
2764:Generated_Source\PSoC5/display.c ****               /*--------------------------------------------------------*/
2765:Generated_Source\PSoC5/display.c ****               /*  '8'    '9'    'A'    'B'    'C'    'D'    'E'    'F'  */
2766:Generated_Source\PSoC5/display.c ****               /*--------------------------------------------------------*/
2767:Generated_Source\PSoC5/display.c ****                  0x00u, 0x10u, 0x08u, 0x70u, 0xc6u, 0xf0u, 0x06u, 0x0eu};
2768:Generated_Source\PSoC5/display.c **** 
2769:Generated_Source\PSoC5/display.c ****         /* 14-segment numerical LUT for high byte */
2770:Generated_Source\PSoC5/display.c ****         static const uint8 CYCODE display_14SegDigitsHigh[16] =
2771:Generated_Source\PSoC5/display.c ****               /*--------------------------------------------------------*/
2772:Generated_Source\PSoC5/display.c ****               /*  '0'    '1'    '2'    '3'    '4'    '5'    '6'    '7'  */
2773:Generated_Source\PSoC5/display.c ****               /*--------------------------------------------------------*/
2774:Generated_Source\PSoC5/display.c ****                 {0xdbu, 0xffu, 0xffu, 0xffu, 0xffu, 0xffu, 0xffu, 0xffu,
2775:Generated_Source\PSoC5/display.c ****               /*--------------------------------------------------------*/
2776:Generated_Source\PSoC5/display.c ****               /*  '8'    '9'    'A'    'B'    'C'    'D'    'E'    'F'  */
2777:Generated_Source\PSoC5/display.c ****               /*--------------------------------------------------------*/
2778:Generated_Source\PSoC5/display.c ****                  0xffu, 0xffu, 0xffu, 0xedu, 0xffu, 0xedu, 0xffu, 0xffu};
2779:Generated_Source\PSoC5/display.c ****     #endif /*  display_SEG_DRIVE */
2780:Generated_Source\PSoC5/display.c ****     
2781:Generated_Source\PSoC5/display.c ****     uint8 valNum;
2782:Generated_Source\PSoC5/display.c ****     uint16 valLow;
2783:Generated_Source\PSoC5/display.c ****     uint16 valHigh;
2784:Generated_Source\PSoC5/display.c ****     uint16 valHex;
2785:Generated_Source\PSoC5/display.c ****     
2786:Generated_Source\PSoC5/display.c ****     valNum = (uint8)(number & display_NIBBLE_MASK);
 1883              		.loc 1 2786 0
 1884 0000 00F00F00 		and	r0, r0, #15
 1885              	.LVL233:
2787:Generated_Source\PSoC5/display.c ****     
2788:Generated_Source\PSoC5/display.c ****     /* Get the 14-seg hex value from high and low byte LUTs */
2789:Generated_Source\PSoC5/display.c ****     valHigh = (uint16)((uint16)display_14SegDigitsHigh[valNum] << display_SHIFT_BYTE);
 1886              		.loc 1 2789 0
 1887 0004 044B     		ldr	r3, .L202
ARM GAS  C:\Users\Dell\AppData\Local\Temp\ccFHrQg5.s 			page 86


 1888 0006 0344     		add	r3, r3, r0
 1889 0008 93F87000 		ldrb	r0, [r3, #112]	@ zero_extendqisi2
 1890              	.LVL234:
2790:Generated_Source\PSoC5/display.c ****     valLow = (uint16)display_14SegDigitsLow[valNum];
 1891              		.loc 1 2790 0
 1892 000c 93F88030 		ldrb	r3, [r3, #128]	@ zero_extendqisi2
 1893              	.LVL235:
2791:Generated_Source\PSoC5/display.c ****     
2792:Generated_Source\PSoC5/display.c ****     valHex = valHigh | valLow;
2793:Generated_Source\PSoC5/display.c ****     
2794:Generated_Source\PSoC5/display.c ****     return(valHex);
2795:Generated_Source\PSoC5/display.c **** }
 1894              		.loc 1 2795 0
 1895 0010 43EA0020 		orr	r0, r3, r0, lsl #8
 1896              	.LVL236:
 1897 0014 7047     		bx	lr
 1898              	.L203:
 1899 0016 00BF     		.align	2
 1900              	.L202:
 1901 0018 00000000 		.word	.LANCHOR2
 1902              		.cfi_endproc
 1903              	.LFE36:
 1904              		.size	display_EncodeNumber14Seg, .-display_EncodeNumber14Seg
 1905              		.section	.text.display_Write14SegNumberHex,"ax",%progbits
 1906              		.align	2
 1907              		.global	display_Write14SegNumberHex
 1908              		.thumb
 1909              		.thumb_func
 1910              		.type	display_Write14SegNumberHex, %function
 1911              	display_Write14SegNumberHex:
 1912              	.LFB21:
1691:Generated_Source\PSoC5/display.c ****     uint8 i;
 1913              		.loc 1 1691 0
 1914              		.cfi_startproc
 1915              		@ args = 0, pretend = 0, frame = 16
 1916              		@ frame_needed = 0, uses_anonymous_args = 0
 1917              	.LVL237:
 1918 0000 2DE9F041 		push	{r4, r5, r6, r7, r8, lr}
 1919              		.cfi_def_cfa_offset 24
 1920              		.cfi_offset 4, -24
 1921              		.cfi_offset 5, -20
 1922              		.cfi_offset 6, -16
 1923              		.cfi_offset 7, -12
 1924              		.cfi_offset 8, -8
 1925              		.cfi_offset 14, -4
 1926 0004 84B0     		sub	sp, sp, #16
 1927              		.cfi_def_cfa_offset 40
 1928 0006 0746     		mov	r7, r0
 1929 0008 0E46     		mov	r6, r1
 1930 000a 1446     		mov	r4, r2
 1931 000c 9846     		mov	r8, r3
1695:Generated_Source\PSoC5/display.c ****     uint32 numberVal;
 1932              		.loc 1 1695 0
 1933 000e 0023     		movs	r3, #0
 1934              	.LVL238:
 1935 0010 0093     		str	r3, [sp]
 1936 0012 0193     		str	r3, [sp, #4]
ARM GAS  C:\Users\Dell\AppData\Local\Temp\ccFHrQg5.s 			page 87


 1937 0014 0293     		str	r3, [sp, #8]
 1938 0016 0393     		str	r3, [sp, #12]
 1939              	.LVL239:
1701:Generated_Source\PSoC5/display.c ****     {
 1940              		.loc 1 1701 0
 1941 0018 1346     		mov	r3, r2
 1942 001a 0BE0     		b	.L205
 1943              	.LVL240:
 1944              	.L206:
1704:Generated_Source\PSoC5/display.c ****         numberVal = (uint32)((uint32)numberVal >> display_SHIFT_NIBBLE);
 1945              		.loc 1 1704 0 discriminator 3
 1946 001c 5D1E     		subs	r5, r3, #1
 1947 001e 07F00F00 		and	r0, r7, #15
 1948 0022 FFF7FEFF 		bl	display_EncodeNumber14Seg
 1949              	.LVL241:
 1950 0026 04AB     		add	r3, sp, #16
 1951 0028 03EB4503 		add	r3, r3, r5, lsl #1
 1952 002c 23F8100C 		strh	r0, [r3, #-16]	@ movhi
1705:Generated_Source\PSoC5/display.c ****     }
 1953              		.loc 1 1705 0 discriminator 3
 1954 0030 3F09     		lsrs	r7, r7, #4
 1955              	.LVL242:
1701:Generated_Source\PSoC5/display.c ****     {
 1956              		.loc 1 1701 0 discriminator 3
 1957 0032 EBB2     		uxtb	r3, r5
 1958              	.LVL243:
 1959              	.L205:
1701:Generated_Source\PSoC5/display.c ****     {
 1960              		.loc 1 1701 0 is_stmt 0 discriminator 1
 1961 0034 002B     		cmp	r3, #0
 1962 0036 F1D1     		bne	.L206
 1963 0038 11E0     		b	.L207
 1964              	.L209:
1711:Generated_Source\PSoC5/display.c ****         {
 1965              		.loc 1 1711 0 is_stmt 1
 1966 003a 04AA     		add	r2, sp, #16
 1967 003c 02EB4302 		add	r2, r2, r3, lsl #1
 1968 0040 32F8101C 		ldrh	r1, [r2, #-16]
 1969 0044 4DF6C032 		movw	r2, #56256
 1970 0048 9142     		cmp	r1, r2
 1971 004a 0AD1     		bne	.L208
1719:Generated_Source\PSoC5/display.c ****         }    
 1972              		.loc 1 1719 0 discriminator 2
 1973 004c 04AA     		add	r2, sp, #16
 1974 004e 02EB4302 		add	r2, r2, r3, lsl #1
 1975 0052 4FF6FF71 		movw	r1, #65535
 1976 0056 22F8101C 		strh	r1, [r2, #-16]	@ movhi
1709:Generated_Source\PSoC5/display.c ****     {
 1977              		.loc 1 1709 0 discriminator 2
 1978 005a 0133     		adds	r3, r3, #1
 1979              	.LVL244:
 1980 005c DBB2     		uxtb	r3, r3
 1981              	.LVL245:
 1982              	.L207:
1709:Generated_Source\PSoC5/display.c ****     {
 1983              		.loc 1 1709 0 is_stmt 0 discriminator 1
 1984 005e A342     		cmp	r3, r4
ARM GAS  C:\Users\Dell\AppData\Local\Temp\ccFHrQg5.s 			page 88


 1985 0060 EBD3     		bcc	.L209
 1986              	.L208:
 1987              	.LVL246:
1726:Generated_Source\PSoC5/display.c ****     {
 1988              		.loc 1 1726 0 is_stmt 1
 1989 0062 B8F1010F 		cmp	r8, #1
 1990 0066 2CD1     		bne	.L211
 1991 0068 11E0     		b	.L220
 1992              	.L214:
1730:Generated_Source\PSoC5/display.c ****             {
 1993              		.loc 1 1730 0
 1994 006a 04AA     		add	r2, sp, #16
 1995 006c 02EB4302 		add	r2, r2, r3, lsl #1
 1996 0070 32F8102C 		ldrh	r2, [r2, #-16]
 1997 0074 4FF6FF71 		movw	r1, #65535
 1998 0078 8A42     		cmp	r2, r1
 1999 007a 05D0     		beq	.L212
1732:Generated_Source\PSoC5/display.c ****                 {
 2000              		.loc 1 1732 0
 2001 007c 012E     		cmp	r6, #1
 2002 007e 01D8     		bhi	.L213
1735:Generated_Source\PSoC5/display.c ****                 #if (display_NUM_SEG > 8u)
 2003              		.loc 1 1735 0
 2004 0080 1249     		ldr	r1, .L222
 2005 0082 8A55     		strb	r2, [r1, r6]
 2006              	.L213:
1740:Generated_Source\PSoC5/display.c ****             }
 2007              		.loc 1 1740 0
 2008 0084 0136     		adds	r6, r6, #1
 2009              	.LVL247:
 2010 0086 F6B2     		uxtb	r6, r6
 2011              	.LVL248:
 2012              	.L212:
1728:Generated_Source\PSoC5/display.c ****         {
 2013              		.loc 1 1728 0 discriminator 2
 2014 0088 0133     		adds	r3, r3, #1
 2015              	.LVL249:
 2016 008a DBB2     		uxtb	r3, r3
 2017              	.LVL250:
 2018 008c 00E0     		b	.L210
 2019              	.L220:
 2020 008e 0023     		movs	r3, #0
 2021              	.LVL251:
 2022              	.L210:
1728:Generated_Source\PSoC5/display.c ****         {
 2023              		.loc 1 1728 0 is_stmt 0 discriminator 1
 2024 0090 A342     		cmp	r3, r4
 2025 0092 EAD3     		bcc	.L214
 2026 0094 04E0     		b	.L215
 2027              	.LVL252:
 2028              	.L216:
1747:Generated_Source\PSoC5/display.c ****             #if (display_NUM_SEG > 8u)
 2029              		.loc 1 1747 0 is_stmt 1
 2030 0096 FF22     		movs	r2, #255
 2031 0098 0C4B     		ldr	r3, .L222
 2032 009a 9A55     		strb	r2, [r3, r6]
1752:Generated_Source\PSoC5/display.c ****         }
ARM GAS  C:\Users\Dell\AppData\Local\Temp\ccFHrQg5.s 			page 89


 2033              		.loc 1 1752 0
 2034 009c 0136     		adds	r6, r6, #1
 2035              	.LVL253:
 2036 009e F6B2     		uxtb	r6, r6
 2037              	.LVL254:
 2038              	.L215:
1744:Generated_Source\PSoC5/display.c ****         {
 2039              		.loc 1 1744 0
 2040 00a0 A642     		cmp	r6, r4
 2041 00a2 F8D3     		bcc	.L216
 2042 00a4 0FE0     		b	.L204
 2043              	.LVL255:
 2044              	.L219:
1759:Generated_Source\PSoC5/display.c ****             {
 2045              		.loc 1 1759 0
 2046 00a6 A319     		adds	r3, r4, r6
 2047 00a8 013B     		subs	r3, r3, #1
 2048 00aa 012B     		cmp	r3, #1
 2049 00ac 07D8     		bhi	.L218
1761:Generated_Source\PSoC5/display.c ****             #if (display_NUM_SEG > 8u)
 2050              		.loc 1 1761 0
 2051 00ae 621E     		subs	r2, r4, #1
 2052 00b0 04A9     		add	r1, sp, #16
 2053 00b2 01EB4202 		add	r2, r1, r2, lsl #1
 2054 00b6 12F8101C 		ldrb	r1, [r2, #-16]	@ zero_extendqisi2
 2055 00ba 044A     		ldr	r2, .L222
 2056 00bc D154     		strb	r1, [r2, r3]
 2057              	.L218:
1757:Generated_Source\PSoC5/display.c ****         {
 2058              		.loc 1 1757 0 discriminator 2
 2059 00be 013C     		subs	r4, r4, #1
 2060              	.LVL256:
 2061 00c0 E4B2     		uxtb	r4, r4
 2062              	.LVL257:
 2063              	.L211:
1757:Generated_Source\PSoC5/display.c ****         {
 2064              		.loc 1 1757 0 is_stmt 0 discriminator 1
 2065 00c2 002C     		cmp	r4, #0
 2066 00c4 EFD1     		bne	.L219
 2067              	.LVL258:
 2068              	.L204:
1768:Generated_Source\PSoC5/display.c **** 
 2069              		.loc 1 1768 0 is_stmt 1
 2070 00c6 04B0     		add	sp, sp, #16
 2071              		.cfi_def_cfa_offset 24
 2072              		@ sp needed
 2073 00c8 BDE8F081 		pop	{r4, r5, r6, r7, r8, pc}
 2074              	.LVL259:
 2075              	.L223:
 2076              		.align	2
 2077              	.L222:
 2078 00cc 00000000 		.word	display_segLBuffer
 2079              		.cfi_endproc
 2080              	.LFE21:
 2081              		.size	display_Write14SegNumberHex, .-display_Write14SegNumberHex
 2082              		.section	.text.display_Write14SegDigitDec,"ax",%progbits
 2083              		.align	2
ARM GAS  C:\Users\Dell\AppData\Local\Temp\ccFHrQg5.s 			page 90


 2084              		.global	display_Write14SegDigitDec
 2085              		.thumb
 2086              		.thumb_func
 2087              		.type	display_Write14SegDigitDec, %function
 2088              	display_Write14SegDigitDec:
 2089              	.LFB24:
1874:Generated_Source\PSoC5/display.c ****     uint16 charDisplay;
 2090              		.loc 1 1874 0
 2091              		.cfi_startproc
 2092              		@ args = 0, pretend = 0, frame = 0
 2093              		@ frame_needed = 0, uses_anonymous_args = 0
 2094              	.LVL260:
1877:Generated_Source\PSoC5/display.c ****     {
 2095              		.loc 1 1877 0
 2096 0000 0928     		cmp	r0, #9
 2097 0002 08D8     		bhi	.L227
1877:Generated_Source\PSoC5/display.c ****     {
 2098              		.loc 1 1877 0 is_stmt 0 discriminator 1
 2099 0004 0129     		cmp	r1, #1
 2100 0006 06D8     		bhi	.L227
1874:Generated_Source\PSoC5/display.c ****     uint16 charDisplay;
 2101              		.loc 1 1874 0 is_stmt 1
 2102 0008 10B5     		push	{r4, lr}
 2103              		.cfi_def_cfa_offset 8
 2104              		.cfi_offset 4, -8
 2105              		.cfi_offset 14, -4
 2106 000a 0C46     		mov	r4, r1
1879:Generated_Source\PSoC5/display.c ****         display_segLBuffer[position] = LO8(charDisplay);
 2107              		.loc 1 1879 0
 2108 000c FFF7FEFF 		bl	display_EncodeNumber14Seg
 2109              	.LVL261:
1880:Generated_Source\PSoC5/display.c ****     #if (display_NUM_SEG > 8u)
 2110              		.loc 1 1880 0
 2111 0010 014B     		ldr	r3, .L228
 2112 0012 1855     		strb	r0, [r3, r4]
 2113 0014 10BD     		pop	{r4, pc}
 2114              	.LVL262:
 2115              	.L227:
 2116              		.cfi_def_cfa_offset 0
 2117              		.cfi_restore 4
 2118              		.cfi_restore 14
 2119 0016 7047     		bx	lr
 2120              	.L229:
 2121              		.align	2
 2122              	.L228:
 2123 0018 00000000 		.word	display_segLBuffer
 2124              		.cfi_endproc
 2125              	.LFE24:
 2126              		.size	display_Write14SegDigitDec, .-display_Write14SegDigitDec
 2127              		.section	.text.display_Write14SegDigitHex,"ax",%progbits
 2128              		.align	2
 2129              		.global	display_Write14SegDigitHex
 2130              		.thumb
 2131              		.thumb_func
 2132              		.type	display_Write14SegDigitHex, %function
 2133              	display_Write14SegDigitHex:
 2134              	.LFB25:
ARM GAS  C:\Users\Dell\AppData\Local\Temp\ccFHrQg5.s 			page 91


1909:Generated_Source\PSoC5/display.c ****     uint16 charDisplay;
 2135              		.loc 1 1909 0
 2136              		.cfi_startproc
 2137              		@ args = 0, pretend = 0, frame = 0
 2138              		@ frame_needed = 0, uses_anonymous_args = 0
 2139              	.LVL263:
1912:Generated_Source\PSoC5/display.c ****     {
 2140              		.loc 1 1912 0
 2141 0000 0129     		cmp	r1, #1
 2142 0002 06D8     		bhi	.L233
1909:Generated_Source\PSoC5/display.c ****     uint16 charDisplay;
 2143              		.loc 1 1909 0
 2144 0004 10B5     		push	{r4, lr}
 2145              		.cfi_def_cfa_offset 8
 2146              		.cfi_offset 4, -8
 2147              		.cfi_offset 14, -4
 2148 0006 0C46     		mov	r4, r1
1914:Generated_Source\PSoC5/display.c ****         display_segLBuffer[position] = LO8(charDisplay);
 2149              		.loc 1 1914 0
 2150 0008 FFF7FEFF 		bl	display_EncodeNumber14Seg
 2151              	.LVL264:
1915:Generated_Source\PSoC5/display.c ****     #if (display_NUM_SEG > 8u)
 2152              		.loc 1 1915 0
 2153 000c 014B     		ldr	r3, .L234
 2154 000e 1855     		strb	r0, [r3, r4]
 2155 0010 10BD     		pop	{r4, pc}
 2156              	.LVL265:
 2157              	.L233:
 2158              		.cfi_def_cfa_offset 0
 2159              		.cfi_restore 4
 2160              		.cfi_restore 14
 2161 0012 7047     		bx	lr
 2162              	.L235:
 2163              		.align	2
 2164              	.L234:
 2165 0014 00000000 		.word	display_segLBuffer
 2166              		.cfi_endproc
 2167              	.LFE25:
 2168              		.size	display_Write14SegDigitHex, .-display_Write14SegDigitHex
 2169              		.section	.text.display_EncodeChar14Seg,"ax",%progbits
 2170              		.align	2
 2171              		.global	display_EncodeChar14Seg
 2172              		.thumb
 2173              		.thumb_func
 2174              		.type	display_EncodeChar14Seg, %function
 2175              	display_EncodeChar14Seg:
 2176              	.LFB37:
2796:Generated_Source\PSoC5/display.c **** 
2797:Generated_Source\PSoC5/display.c **** 
2798:Generated_Source\PSoC5/display.c **** /*******************************************************************************
2799:Generated_Source\PSoC5/display.c **** * Function Name: display_EncodeChar14Seg
2800:Generated_Source\PSoC5/display.c **** ********************************************************************************
2801:Generated_Source\PSoC5/display.c **** *
2802:Generated_Source\PSoC5/display.c **** * Summary:
2803:Generated_Source\PSoC5/display.c **** *  Converts the ASCII encoded alphabet character input into the 14-segment
2804:Generated_Source\PSoC5/display.c **** *  data that will display the alphabet character on a display. 14-segment 
2805:Generated_Source\PSoC5/display.c **** *  display RAM is split into two sections (one for the lower 8 segments, one
ARM GAS  C:\Users\Dell\AppData\Local\Temp\ccFHrQg5.s 			page 92


2806:Generated_Source\PSoC5/display.c **** *  for the top 6), so the returned data must be separated into high and low 
2807:Generated_Source\PSoC5/display.c **** *  bytes before being written directly into the display RAM to display the 
2808:Generated_Source\PSoC5/display.c **** *  desired character. It is not necessary to use this function since higher 
2809:Generated_Source\PSoC5/display.c **** *  level API are provided to both decode the value and write it to the display
2810:Generated_Source\PSoC5/display.c **** *  RAM.
2811:Generated_Source\PSoC5/display.c **** *
2812:Generated_Source\PSoC5/display.c **** * Parameters:
2813:Generated_Source\PSoC5/display.c **** *  char8 input: An ASCII alphabet character to be converted into segment data.
2814:Generated_Source\PSoC5/display.c **** *
2815:Generated_Source\PSoC5/display.c **** * Return:
2816:Generated_Source\PSoC5/display.c **** *  The value to be written into the display RAM for displaying the specified
2817:Generated_Source\PSoC5/display.c **** *  character.
2818:Generated_Source\PSoC5/display.c **** *
2819:Generated_Source\PSoC5/display.c **** * Side effects:
2820:Generated_Source\PSoC5/display.c **** *  None
2821:Generated_Source\PSoC5/display.c **** *
2822:Generated_Source\PSoC5/display.c **** *******************************************************************************/
2823:Generated_Source\PSoC5/display.c **** uint16 display_EncodeChar14Seg(char8 input) 
2824:Generated_Source\PSoC5/display.c **** {
 2177              		.loc 1 2824 0
 2178              		.cfi_startproc
 2179              		@ args = 0, pretend = 0, frame = 0
 2180              		@ frame_needed = 0, uses_anonymous_args = 0
 2181              		@ link register save eliminated.
 2182              	.LVL266:
2825:Generated_Source\PSoC5/display.c ****     #if(display_SEG_DRIVE == display_HIGH)
2826:Generated_Source\PSoC5/display.c ****         /* 14-segment ASCII LUT for low byte */
2827:Generated_Source\PSoC5/display.c ****         static const uint8 CYCODE display_14SegASCIILow[6][16] =
2828:Generated_Source\PSoC5/display.c ****               {
2829:Generated_Source\PSoC5/display.c ****               /*--------------------------------------------------------*/
2830:Generated_Source\PSoC5/display.c ****               /* 'Space' '!'    '"'    '#'    '$'    '%'    '&'    '''  */
2831:Generated_Source\PSoC5/display.c ****               /*--------------------------------------------------------*/
2832:Generated_Source\PSoC5/display.c ****                 {0x00u, 0x30u, 0x20u, 0x00u, 0x00u, 0x00u, 0x00u, 0x20u,
2833:Generated_Source\PSoC5/display.c ****               /*--------------------------------------------------------*/
2834:Generated_Source\PSoC5/display.c ****               /*  '('    ')'    '*'    '+'    ','    '-'    '.'    '/'  */
2835:Generated_Source\PSoC5/display.c ****               /*--------------------------------------------------------*/
2836:Generated_Source\PSoC5/display.c ****                  0x00u, 0x00u, 0xc0u, 0x00u, 0x00u, 0xc0u, 0x00u, 0x00u},
2837:Generated_Source\PSoC5/display.c ****               /*--------------------------------------------------------*/   
2838:Generated_Source\PSoC5/display.c ****               /*  '0'    '1'    '2'    '3'    '4'    '5'    '6'    '7'  */
2839:Generated_Source\PSoC5/display.c ****               /*--------------------------------------------------------*/
2840:Generated_Source\PSoC5/display.c ****                 {0x3fu, 0x06u, 0xdbu, 0xcfu, 0xe6u, 0xedu, 0xfdu, 0x07u,
2841:Generated_Source\PSoC5/display.c ****               /*--------------------------------------------------------*/
2842:Generated_Source\PSoC5/display.c ****               /*  '8'    '9'    ':'    ';'    '<'    '='    '>'    '?'  */
2843:Generated_Source\PSoC5/display.c ****               /*--------------------------------------------------------*/
2844:Generated_Source\PSoC5/display.c ****                  0xffu, 0xefu, 0x00u, 0x00u, 0x00u, 0xc8u, 0x00u, 0x83u},
2845:Generated_Source\PSoC5/display.c ****               /*--------------------------------------------------------*/
2846:Generated_Source\PSoC5/display.c ****               /*  '@'    'A'    'B'    'C'    'D'    'E'    'F'    'G'  */
2847:Generated_Source\PSoC5/display.c ****               /*--------------------------------------------------------*/
2848:Generated_Source\PSoC5/display.c ****                 {0x00u, 0xf7u, 0x8fu, 0x39u, 0x0fu, 0xf9u, 0xf1u, 0xbdu,
2849:Generated_Source\PSoC5/display.c ****               /*--------------------------------------------------------*/
2850:Generated_Source\PSoC5/display.c ****               /*  'H'    'I'    'J'    'K'    'L'    'M'    'N'    'O'  */
2851:Generated_Source\PSoC5/display.c ****               /*--------------------------------------------------------*/
2852:Generated_Source\PSoC5/display.c ****                  0xf6u, 0x09u, 0x1Eu, 0x70u, 0x38u, 0x36u, 0x36u, 0x3fu},
2853:Generated_Source\PSoC5/display.c ****               /*--------------------------------------------------------*/
2854:Generated_Source\PSoC5/display.c ****               /*  'P'    'Q'    'R'    'S'    'T'    'U'    'V'    'W'  */
2855:Generated_Source\PSoC5/display.c ****               /*--------------------------------------------------------*/
2856:Generated_Source\PSoC5/display.c ****                 {0xf3u, 0x3fu, 0xf3u, 0xedu, 0x01u, 0x3eu, 0x30u, 0x36u,
ARM GAS  C:\Users\Dell\AppData\Local\Temp\ccFHrQg5.s 			page 93


2857:Generated_Source\PSoC5/display.c ****               /*--------------------------------------------------------*/
2858:Generated_Source\PSoC5/display.c ****               /*  'X'    'Y'    'Z'    '['    '\'    ']'    '^'    '_'  */
2859:Generated_Source\PSoC5/display.c ****               /*--------------------------------------------------------*/
2860:Generated_Source\PSoC5/display.c ****                  0x00u, 0x00u, 0x09u, 0x00u, 0x00u, 0x00u, 0x00u, 0x08u},
2861:Generated_Source\PSoC5/display.c ****               /*--------------------------------------------------------*/
2862:Generated_Source\PSoC5/display.c ****               /*  '`'    'a'    'b'    'c'    'd'    'e'    'f'    'g'  */
2863:Generated_Source\PSoC5/display.c ****               /*--------------------------------------------------------*/
2864:Generated_Source\PSoC5/display.c ****                 {0x00u, 0xf7u, 0xfcu, 0xd8u, 0xdeu, 0xf9u, 0xf1u, 0xefu,
2865:Generated_Source\PSoC5/display.c ****               /*--------------------------------------------------------*/
2866:Generated_Source\PSoC5/display.c ****               /*  'h'    'i'    'j'    'k'    'l'    'm'    'n'    'o'  */
2867:Generated_Source\PSoC5/display.c ****               /*--------------------------------------------------------*/
2868:Generated_Source\PSoC5/display.c ****                  0xf4u, 0x00u, 0x1Eu, 0x70u, 0x00u, 0xd4u, 0xd4u, 0xdcu},
2869:Generated_Source\PSoC5/display.c ****               /*--------------------------------------------------------*/
2870:Generated_Source\PSoC5/display.c ****               /*  'p'    'q'    'r'    's'    't'    'u'    'v'    'w'  */
2871:Generated_Source\PSoC5/display.c ****               /*--------------------------------------------------------*/
2872:Generated_Source\PSoC5/display.c ****                 {0xf3u, 0x3fu, 0xd0u, 0xedu, 0xc0u, 0x1cu, 0x10u, 0x1cu,
2873:Generated_Source\PSoC5/display.c ****               /*--------------------------------------------------------*/
2874:Generated_Source\PSoC5/display.c ****               /*  'x'    'y'    'z'    '{'    '|'    '}'    '~'   'DEL' */
2875:Generated_Source\PSoC5/display.c ****               /*--------------------------------------------------------*/
2876:Generated_Source\PSoC5/display.c ****                  0x00u, 0x00u, 0x09u, 0x00u, 0x00u, 0x00u, 0x00u, 0x00u}
2877:Generated_Source\PSoC5/display.c ****               };
2878:Generated_Source\PSoC5/display.c **** 
2879:Generated_Source\PSoC5/display.c ****         /* 14-segment ASCII LUT for high byte */
2880:Generated_Source\PSoC5/display.c ****         static const uint8 CYCODE display_14SegASCIIHigh[6][16] =
2881:Generated_Source\PSoC5/display.c ****               {
2882:Generated_Source\PSoC5/display.c ****               /*--------------------------------------------------------*/
2883:Generated_Source\PSoC5/display.c ****               /* 'Space' '!'    '"'    '#'    '$'    '%'    '&'    '''  */
2884:Generated_Source\PSoC5/display.c ****               /*--------------------------------------------------------*/
2885:Generated_Source\PSoC5/display.c ****                 {0x00u, 0x00u, 0x02u, 0x00u, 0x00u, 0x00u, 0x00u, 0x00u,
2886:Generated_Source\PSoC5/display.c ****               /*--------------------------------------------------------*/
2887:Generated_Source\PSoC5/display.c ****               /*  '('    ')'    '*'    '+'    ','    '-'    '.'    '/'  */
2888:Generated_Source\PSoC5/display.c ****               /*--------------------------------------------------------*/
2889:Generated_Source\PSoC5/display.c ****                  0x0cu, 0x21u, 0x3fu, 0x00u, 0x20u, 0x00u, 0x00u, 0x00u},
2890:Generated_Source\PSoC5/display.c ****               /*--------------------------------------------------------*/   
2891:Generated_Source\PSoC5/display.c ****               /*  '0'    '1'    '2'    '3'    '4'    '5'    '6'    '7'  */
2892:Generated_Source\PSoC5/display.c ****               /*--------------------------------------------------------*/
2893:Generated_Source\PSoC5/display.c ****                 {0x24u, 0x00u, 0x00u, 0x00u, 0x00u, 0x00u, 0x00u, 0x00u,
2894:Generated_Source\PSoC5/display.c ****               /*--------------------------------------------------------*/
2895:Generated_Source\PSoC5/display.c ****               /*  '8'    '9'    ':'    ';'    '<'    '='    '>'    '?'  */
2896:Generated_Source\PSoC5/display.c ****               /*--------------------------------------------------------*/
2897:Generated_Source\PSoC5/display.c ****                  0x00u, 0x00u, 0x00u, 0x00u, 0x00u, 0x00u, 0x00u, 0x10u},
2898:Generated_Source\PSoC5/display.c ****               /*--------------------------------------------------------*/
2899:Generated_Source\PSoC5/display.c ****               /*  '@'    'A'    'B'    'C'    'D'    'E'    'F'    'G'  */
2900:Generated_Source\PSoC5/display.c ****               /*--------------------------------------------------------*/
2901:Generated_Source\PSoC5/display.c ****                 {0x00u, 0x00u, 0x12u, 0x00u, 0x12u, 0x00u, 0x00u, 0x00u,
2902:Generated_Source\PSoC5/display.c ****               /*--------------------------------------------------------*/
2903:Generated_Source\PSoC5/display.c ****               /*  'H'    'I'    'J'    'K'    'L'    'M'    'N'    'O'  */
2904:Generated_Source\PSoC5/display.c ****               /*--------------------------------------------------------*/
2905:Generated_Source\PSoC5/display.c ****                  0x00u, 0x12u, 0x00u, 0x0cu, 0x00u, 0x05u, 0x09u, 0x00u},
2906:Generated_Source\PSoC5/display.c ****               /*--------------------------------------------------------*/
2907:Generated_Source\PSoC5/display.c ****               /*  'P'    'Q'    'R'    'S'    'T'    'U'    'V'    'W'  */
2908:Generated_Source\PSoC5/display.c ****               /*--------------------------------------------------------*/
2909:Generated_Source\PSoC5/display.c ****                 {0x00u, 0x08u, 0x08u, 0x00u, 0x12u, 0x00u, 0x24u, 0x28u,
2910:Generated_Source\PSoC5/display.c ****               /*--------------------------------------------------------*/
2911:Generated_Source\PSoC5/display.c ****               /*  'X'    'Y'    'Z'    '['    '\'    ']'    '^'    '_'  */
2912:Generated_Source\PSoC5/display.c ****               /*--------------------------------------------------------*/
2913:Generated_Source\PSoC5/display.c ****                  0x2du, 0x15u, 0x24u, 0x00u, 0x00u, 0x00u, 0x00u, 0x00u},
ARM GAS  C:\Users\Dell\AppData\Local\Temp\ccFHrQg5.s 			page 94


2914:Generated_Source\PSoC5/display.c ****               /*--------------------------------------------------------*/
2915:Generated_Source\PSoC5/display.c ****               /*  '`'    'a'    'b'    'c'    'd'    'e'    'f'    'g'  */
2916:Generated_Source\PSoC5/display.c ****               /*--------------------------------------------------------*/
2917:Generated_Source\PSoC5/display.c ****                 {0x00u, 0x00u, 0x00u, 0x00u, 0x00u, 0x00u, 0x00u, 0x00u,
2918:Generated_Source\PSoC5/display.c ****               /*--------------------------------------------------------*/
2919:Generated_Source\PSoC5/display.c ****               /*  'h'    'i'    'j'    'k'    'l'    'm'    'n'    'o'  */
2920:Generated_Source\PSoC5/display.c ****               /*--------------------------------------------------------*/
2921:Generated_Source\PSoC5/display.c ****                  0x00u, 0x10u, 0x00u, 0x0cu, 0x12u, 0x10u, 0x00u, 0x00u},
2922:Generated_Source\PSoC5/display.c ****               /*--------------------------------------------------------*/
2923:Generated_Source\PSoC5/display.c ****               /*  'p'    'q'    'r'    's'    't'    'u'    'v'    'w'  */
2924:Generated_Source\PSoC5/display.c ****               /*--------------------------------------------------------*/
2925:Generated_Source\PSoC5/display.c ****                 {0x00u, 0x08u, 0x00u, 0x00u, 0x12u, 0x00u, 0x20u, 0x10u,
2926:Generated_Source\PSoC5/display.c ****               /*--------------------------------------------------------*/
2927:Generated_Source\PSoC5/display.c ****               /*  'x'    'y'    'z'    '{'    '|'    '}'    '~'   'DEL' */
2928:Generated_Source\PSoC5/display.c ****               /*--------------------------------------------------------*/
2929:Generated_Source\PSoC5/display.c ****                  0x2du, 0x15u, 0x24u, 0x00u, 0x00u, 0x00u, 0x00u, 0x00u}
2930:Generated_Source\PSoC5/display.c ****               };
2931:Generated_Source\PSoC5/display.c ****     #else
2932:Generated_Source\PSoC5/display.c ****         /* 14-segment ASCII LUT for low byte */
2933:Generated_Source\PSoC5/display.c ****         static const uint8 CYCODE display_14SegASCIILow[6][16] =
2934:Generated_Source\PSoC5/display.c ****               {
2935:Generated_Source\PSoC5/display.c ****               /*--------------------------------------------------------*/
2936:Generated_Source\PSoC5/display.c ****               /* 'Space' '!'    '"'    '#'    '$'    '%'    '&'    '''  */
2937:Generated_Source\PSoC5/display.c ****               /*--------------------------------------------------------*/
2938:Generated_Source\PSoC5/display.c ****                 {0xffu, 0xcfu, 0xdfu, 0xffu, 0xffu, 0xffu, 0xffu, 0xdfu,
2939:Generated_Source\PSoC5/display.c ****               /*--------------------------------------------------------*/
2940:Generated_Source\PSoC5/display.c ****               /*  '('    ')'    '*'    '+'    ','    '-'    '.'    '/'  */
2941:Generated_Source\PSoC5/display.c ****               /*--------------------------------------------------------*/
2942:Generated_Source\PSoC5/display.c ****                  0xffu, 0xffu, 0x3fu, 0xffu, 0xffu, 0x3fu, 0xffu, 0xffu},
2943:Generated_Source\PSoC5/display.c ****               /*--------------------------------------------------------*/   
2944:Generated_Source\PSoC5/display.c ****               /*  '0'    '1'    '2'    '3'    '4'    '5'    '6'    '7'  */
2945:Generated_Source\PSoC5/display.c ****               /*--------------------------------------------------------*/
2946:Generated_Source\PSoC5/display.c ****                 {0xc0u, 0xf9u, 0x24u, 0x30u, 0x19u, 0x12u, 0x02u, 0xf8u,
2947:Generated_Source\PSoC5/display.c ****               /*--------------------------------------------------------*/
2948:Generated_Source\PSoC5/display.c ****               /*  '8'    '9'    ':'    ';'    '<'    '='    '>'    '?'  */
2949:Generated_Source\PSoC5/display.c ****               /*--------------------------------------------------------*/
2950:Generated_Source\PSoC5/display.c ****                  0x00u, 0x10u, 0xffu, 0xffu, 0xffu, 0x37u, 0xffu, 0x7cu},
2951:Generated_Source\PSoC5/display.c ****               /*--------------------------------------------------------*/
2952:Generated_Source\PSoC5/display.c ****               /*  '@'    'A'    'B'    'C'    'D'    'E'    'F'    'G'  */
2953:Generated_Source\PSoC5/display.c ****               /*--------------------------------------------------------*/
2954:Generated_Source\PSoC5/display.c ****                 {0xffu, 0x08u, 0x70u, 0xc6u, 0xf0u, 0x06u, 0x0eu, 0x42u,
2955:Generated_Source\PSoC5/display.c ****               /*--------------------------------------------------------*/
2956:Generated_Source\PSoC5/display.c ****               /*  'H'    'I'    'J'    'K'    'L'    'M'    'N'    'O'  */
2957:Generated_Source\PSoC5/display.c ****               /*--------------------------------------------------------*/
2958:Generated_Source\PSoC5/display.c ****                  0x09u, 0xf6u, 0xe1u, 0x8fu, 0xc7u, 0xc9u, 0xc9u, 0xc0u},
2959:Generated_Source\PSoC5/display.c ****               /*--------------------------------------------------------*/
2960:Generated_Source\PSoC5/display.c ****               /*  'P'    'Q'    'R'    'S'    'T'    'U'    'V'    'W'  */
2961:Generated_Source\PSoC5/display.c ****               /*--------------------------------------------------------*/
2962:Generated_Source\PSoC5/display.c ****                 {0x0cu, 0xc0u, 0x0cu, 0x12u, 0xfeu, 0xc1u, 0xcfu, 0xc9u,
2963:Generated_Source\PSoC5/display.c ****               /*--------------------------------------------------------*/
2964:Generated_Source\PSoC5/display.c ****               /*  'X'    'Y'    'Z'    '['    '\'    ']'    '^'    '_'  */
2965:Generated_Source\PSoC5/display.c ****               /*--------------------------------------------------------*/
2966:Generated_Source\PSoC5/display.c ****                  0xffu, 0xffu, 0xf6u, 0xffu, 0xffu, 0xffu, 0xffu, 0xf7u},
2967:Generated_Source\PSoC5/display.c ****               /*--------------------------------------------------------*/
2968:Generated_Source\PSoC5/display.c ****               /*  '`'    'a'    'b'    'c'    'd'    'e'    'f'    'g'  */
2969:Generated_Source\PSoC5/display.c ****               /*--------------------------------------------------------*/
2970:Generated_Source\PSoC5/display.c ****                 {0xffu, 0x08u, 0x03u, 0x27u, 0x21u, 0x06u, 0x0eu, 0x10u,
ARM GAS  C:\Users\Dell\AppData\Local\Temp\ccFHrQg5.s 			page 95


2971:Generated_Source\PSoC5/display.c ****               /*--------------------------------------------------------*/
2972:Generated_Source\PSoC5/display.c ****               /*  'h'    'i'    'j'    'k'    'l'    'm'    'n'    'o'  */
2973:Generated_Source\PSoC5/display.c ****               /*--------------------------------------------------------*/
2974:Generated_Source\PSoC5/display.c ****                  0x0bu, 0xffu, 0xe1u, 0x8fu, 0xffu, 0x2bu, 0x2bu, 0x23u},
2975:Generated_Source\PSoC5/display.c ****               /*--------------------------------------------------------*/
2976:Generated_Source\PSoC5/display.c ****               /*  'p'    'q'    'r'    's'    't'    'u'    'v'    'w'  */
2977:Generated_Source\PSoC5/display.c ****               /*--------------------------------------------------------*/
2978:Generated_Source\PSoC5/display.c ****                 {0x0cu, 0xc0u, 0x2fu, 0x12u, 0x3fu, 0xe3u, 0xefu, 0xe3u,
2979:Generated_Source\PSoC5/display.c ****               /*--------------------------------------------------------*/
2980:Generated_Source\PSoC5/display.c ****               /*  'x'    'y'    'z'    '{'    '|'    '}'    '~'   'DEL' */
2981:Generated_Source\PSoC5/display.c ****               /*--------------------------------------------------------*/
2982:Generated_Source\PSoC5/display.c ****                  0xffu, 0xffu, 0xf6u, 0xffu, 0xffu, 0xffu, 0xffu, 0xffu}
2983:Generated_Source\PSoC5/display.c ****               };
2984:Generated_Source\PSoC5/display.c **** 
2985:Generated_Source\PSoC5/display.c ****         /* 14-segment ASCII LUT for high byte */
2986:Generated_Source\PSoC5/display.c ****         static const uint8 CYCODE display_14SegASCIIHigh[6][16] =
2987:Generated_Source\PSoC5/display.c ****               {
2988:Generated_Source\PSoC5/display.c ****               /*--------------------------------------------------------*/
2989:Generated_Source\PSoC5/display.c ****               /* 'Space' '!'    '"'    '#'    '$'    '%'    '&'    '''  */
2990:Generated_Source\PSoC5/display.c ****               /*--------------------------------------------------------*/
2991:Generated_Source\PSoC5/display.c ****                 {0xffu, 0xffu, 0xfdu, 0xffu, 0xffu, 0xffu, 0xffu, 0xffu,
2992:Generated_Source\PSoC5/display.c ****               /*--------------------------------------------------------*/
2993:Generated_Source\PSoC5/display.c ****               /*  '('    ')'    '*'    '+'    ','    '-'    '.'    '/'  */
2994:Generated_Source\PSoC5/display.c ****               /*--------------------------------------------------------*/
2995:Generated_Source\PSoC5/display.c ****                  0xf3u, 0xdeu, 0xc0u, 0xffu, 0xdfu, 0xffu, 0xffu, 0xffu},
2996:Generated_Source\PSoC5/display.c ****               /*--------------------------------------------------------*/   
2997:Generated_Source\PSoC5/display.c ****               /*  '0'    '1'    '2'    '3'    '4'    '5'    '6'    '7'  */
2998:Generated_Source\PSoC5/display.c ****               /*--------------------------------------------------------*/
2999:Generated_Source\PSoC5/display.c ****                 {0xdbu, 0xffu, 0xffu, 0xffu, 0xffu, 0xffu, 0xffu, 0xffu,
3000:Generated_Source\PSoC5/display.c ****               /*--------------------------------------------------------*/
3001:Generated_Source\PSoC5/display.c ****               /*  '8'    '9'    ':'    ';'    '<'    '='    '>'    '?'  */
3002:Generated_Source\PSoC5/display.c ****               /*--------------------------------------------------------*/
3003:Generated_Source\PSoC5/display.c ****                  0xffu, 0xffu, 0xffu, 0xffu, 0xffu, 0xffu, 0xffu, 0xefu},
3004:Generated_Source\PSoC5/display.c ****               /*--------------------------------------------------------*/
3005:Generated_Source\PSoC5/display.c ****               /*  '@'    'A'    'B'    'C'    'D'    'E'    'F'    'G'  */
3006:Generated_Source\PSoC5/display.c ****               /*--------------------------------------------------------*/
3007:Generated_Source\PSoC5/display.c ****                 {0xffu, 0xffu, 0xedu, 0xffu, 0xedu, 0xffu, 0xffu, 0xffu,
3008:Generated_Source\PSoC5/display.c ****               /*--------------------------------------------------------*/
3009:Generated_Source\PSoC5/display.c ****               /*  'H'    'I'    'J'    'K'    'L'    'M'    'N'    'O'  */
3010:Generated_Source\PSoC5/display.c ****               /*--------------------------------------------------------*/
3011:Generated_Source\PSoC5/display.c ****                  0xffu, 0xedu, 0xffu, 0xf3u, 0xffu, 0xfau, 0xf6u, 0xffu},
3012:Generated_Source\PSoC5/display.c ****               /*--------------------------------------------------------*/
3013:Generated_Source\PSoC5/display.c ****               /*  'P'    'Q'    'R'    'S'    'T'    'U'    'V'    'W'  */
3014:Generated_Source\PSoC5/display.c ****               /*--------------------------------------------------------*/
3015:Generated_Source\PSoC5/display.c ****                 {0xffu, 0xf7u, 0xf7u, 0xffu, 0xedu, 0xffu, 0xdbu, 0xd7u,
3016:Generated_Source\PSoC5/display.c ****               /*--------------------------------------------------------*/
3017:Generated_Source\PSoC5/display.c ****               /*  'X'    'Y'    'Z'    '['    '\'    ']'    '^'    '_'  */
3018:Generated_Source\PSoC5/display.c ****               /*--------------------------------------------------------*/
3019:Generated_Source\PSoC5/display.c ****                  0xd2u, 0xeau, 0xdbu, 0xffu, 0xffu, 0xffu, 0xffu, 0xffu},
3020:Generated_Source\PSoC5/display.c ****               /*--------------------------------------------------------*/
3021:Generated_Source\PSoC5/display.c ****               /*  '`'    'a'    'b'    'c'    'd'    'e'    'f'    'g'  */
3022:Generated_Source\PSoC5/display.c ****               /*--------------------------------------------------------*/
3023:Generated_Source\PSoC5/display.c ****                 {0xffu, 0xffu, 0xffu, 0xffu, 0xffu, 0xffu, 0xffu, 0xffu,
3024:Generated_Source\PSoC5/display.c ****               /*--------------------------------------------------------*/
3025:Generated_Source\PSoC5/display.c ****               /*  'h'    'i'    'j'    'k'    'l'    'm'    'n'    'o'  */
3026:Generated_Source\PSoC5/display.c ****               /*--------------------------------------------------------*/
3027:Generated_Source\PSoC5/display.c ****                  0xffu, 0xefu, 0xffu, 0xf3u, 0xedu, 0xefu, 0xffu, 0xffu},
ARM GAS  C:\Users\Dell\AppData\Local\Temp\ccFHrQg5.s 			page 96


3028:Generated_Source\PSoC5/display.c ****               /*--------------------------------------------------------*/
3029:Generated_Source\PSoC5/display.c ****               /*  'p'    'q'    'r'    's'    't'    'u'    'v'    'w'  */
3030:Generated_Source\PSoC5/display.c ****               /*--------------------------------------------------------*/
3031:Generated_Source\PSoC5/display.c ****                 {0xffu, 0xf7u, 0xffu, 0xffu, 0xedu, 0xffu, 0xdfu, 0xefu,
3032:Generated_Source\PSoC5/display.c ****               /*--------------------------------------------------------*/
3033:Generated_Source\PSoC5/display.c ****               /*  'x'    'y'    'z'    '{'    '|'    '}'    '~'   'DEL' */
3034:Generated_Source\PSoC5/display.c ****               /*--------------------------------------------------------*/
3035:Generated_Source\PSoC5/display.c ****                  0xd2u, 0xeau, 0xdbu, 0xffu, 0xffu, 0xffu, 0xffu, 0xffu}
3036:Generated_Source\PSoC5/display.c ****               };
3037:Generated_Source\PSoC5/display.c ****     #endif /*  display_SEG_DRIVE */
3038:Generated_Source\PSoC5/display.c ****     
3039:Generated_Source\PSoC5/display.c ****     uint8 valLow;
3040:Generated_Source\PSoC5/display.c ****     uint8 valHigh;
3041:Generated_Source\PSoC5/display.c ****     uint16 valHexLow;
3042:Generated_Source\PSoC5/display.c ****     uint16 valHexHigh;
3043:Generated_Source\PSoC5/display.c ****     uint16 valHex;
3044:Generated_Source\PSoC5/display.c ****     
3045:Generated_Source\PSoC5/display.c ****     valLow = (uint8)((uint8)input & display_NIBBLE_MASK);
 2183              		.loc 1 3045 0
 2184 0000 00F00F03 		and	r3, r0, #15
 2185              	.LVL267:
3046:Generated_Source\PSoC5/display.c ****     
3047:Generated_Source\PSoC5/display.c ****     /* valHigh used to access the row of LUT */
3048:Generated_Source\PSoC5/display.c ****     valHigh = (uint8)((uint8)input >> display_SHIFT_NIBBLE);
 2186              		.loc 1 3048 0
 2187 0004 0009     		lsrs	r0, r0, #4
 2188              	.LVL268:
3049:Generated_Source\PSoC5/display.c ****     
3050:Generated_Source\PSoC5/display.c ****     /* Check if the high nibble is within valid ASCII range */
3051:Generated_Source\PSoC5/display.c ****     if ((valHigh > display_SEG_ASCII_LIM_LO) && (valHigh < display_SEG_ASCII_LIM_HI))
 2189              		.loc 1 3051 0
 2190 0006 0238     		subs	r0, r0, #2
 2191              	.LVL269:
 2192 0008 C0B2     		uxtb	r0, r0
 2193              	.LVL270:
 2194 000a 0528     		cmp	r0, #5
 2195 000c 0AD8     		bhi	.L238
 2196              	.LVL271:
3052:Generated_Source\PSoC5/display.c ****     {
3053:Generated_Source\PSoC5/display.c ****         valHigh = valHigh - display_SEG_ASCII_OFFSET;
3054:Generated_Source\PSoC5/display.c ****         
3055:Generated_Source\PSoC5/display.c ****         /* Get the 14-seg hex value from high and low byte LUTs */
3056:Generated_Source\PSoC5/display.c ****         valHexHigh = (uint16)((uint16)display_14SegASCIIHigh[valHigh][valLow] << display_SHIFT_BYTE
 2197              		.loc 1 3056 0
 2198 000e 074A     		ldr	r2, .L239
 2199 0010 02EB0010 		add	r0, r2, r0, lsl #4
 2200              	.LVL272:
 2201 0014 0344     		add	r3, r3, r0
 2202              	.LVL273:
 2203 0016 93F89000 		ldrb	r0, [r3, #144]	@ zero_extendqisi2
 2204              	.LVL274:
3057:Generated_Source\PSoC5/display.c ****         valHexLow = (uint16)display_14SegASCIILow[valHigh][valLow];
 2205              		.loc 1 3057 0
 2206 001a 93F8F030 		ldrb	r3, [r3, #240]	@ zero_extendqisi2
 2207              	.LVL275:
3058:Generated_Source\PSoC5/display.c ****         
3059:Generated_Source\PSoC5/display.c ****         valHex = valHexHigh | valHexLow;
ARM GAS  C:\Users\Dell\AppData\Local\Temp\ccFHrQg5.s 			page 97


 2208              		.loc 1 3059 0
 2209 001e 43EA0020 		orr	r0, r3, r0, lsl #8
 2210              	.LVL276:
 2211 0022 7047     		bx	lr
 2212              	.LVL277:
 2213              	.L238:
3060:Generated_Source\PSoC5/display.c ****     }
3061:Generated_Source\PSoC5/display.c ****     else
3062:Generated_Source\PSoC5/display.c ****     {
3063:Generated_Source\PSoC5/display.c ****         valHex = display_CLEAR_16;
 2214              		.loc 1 3063 0
 2215 0024 4FF6FF70 		movw	r0, #65535
 2216              	.LVL278:
3064:Generated_Source\PSoC5/display.c ****     }
3065:Generated_Source\PSoC5/display.c ****         
3066:Generated_Source\PSoC5/display.c ****     return(valHex);
3067:Generated_Source\PSoC5/display.c **** }
 2217              		.loc 1 3067 0
 2218 0028 7047     		bx	lr
 2219              	.L240:
 2220 002a 00BF     		.align	2
 2221              	.L239:
 2222 002c 00000000 		.word	.LANCHOR2
 2223              		.cfi_endproc
 2224              	.LFE37:
 2225              		.size	display_EncodeChar14Seg, .-display_EncodeChar14Seg
 2226              		.section	.text.display_Write14SegNumberDec,"ax",%progbits
 2227              		.align	2
 2228              		.global	display_Write14SegNumberDec
 2229              		.thumb
 2230              		.thumb_func
 2231              		.type	display_Write14SegNumberDec, %function
 2232              	display_Write14SegNumberDec:
 2233              	.LFB20:
1534:Generated_Source\PSoC5/display.c ****     uint8 i;
 2234              		.loc 1 1534 0
 2235              		.cfi_startproc
 2236              		@ args = 0, pretend = 0, frame = 16
 2237              		@ frame_needed = 0, uses_anonymous_args = 0
 2238              	.LVL279:
 2239 0000 2DE9F043 		push	{r4, r5, r6, r7, r8, r9, lr}
 2240              		.cfi_def_cfa_offset 28
 2241              		.cfi_offset 4, -28
 2242              		.cfi_offset 5, -24
 2243              		.cfi_offset 6, -20
 2244              		.cfi_offset 7, -16
 2245              		.cfi_offset 8, -12
 2246              		.cfi_offset 9, -8
 2247              		.cfi_offset 14, -4
 2248 0004 85B0     		sub	sp, sp, #20
 2249              		.cfi_def_cfa_offset 48
 2250 0006 0D46     		mov	r5, r1
 2251 0008 1446     		mov	r4, r2
 2252 000a 1E46     		mov	r6, r3
 2253              	.LVL280:
1540:Generated_Source\PSoC5/display.c ****     uint32 numberVal;
 2254              		.loc 1 1540 0
ARM GAS  C:\Users\Dell\AppData\Local\Temp\ccFHrQg5.s 			page 98


 2255 000c 0023     		movs	r3, #0
 2256              	.LVL281:
 2257 000e 0093     		str	r3, [sp]
 2258 0010 0193     		str	r3, [sp, #4]
 2259 0012 0293     		str	r3, [sp, #8]
 2260 0014 0393     		str	r3, [sp, #12]
1544:Generated_Source\PSoC5/display.c ****     {
 2261              		.loc 1 1544 0
 2262 0016 0028     		cmp	r0, #0
 2263 0018 02DB     		blt	.L242
1546:Generated_Source\PSoC5/display.c ****         numberSign = display_UNSIGNED;
 2264              		.loc 1 1546 0
 2265 001a 0246     		mov	r2, r0
 2266              	.LVL282:
1547:Generated_Source\PSoC5/display.c ****     }
 2267              		.loc 1 1547 0
 2268 001c 1F46     		mov	r7, r3
 2269 001e 01E0     		b	.L243
 2270              	.LVL283:
 2271              	.L242:
1551:Generated_Source\PSoC5/display.c ****         numberSign = display_SIGNED;
 2272              		.loc 1 1551 0
 2273 0020 4242     		negs	r2, r0
 2274              	.LVL284:
1552:Generated_Source\PSoC5/display.c ****     }
 2275              		.loc 1 1552 0
 2276 0022 0127     		movs	r7, #1
 2277              	.LVL285:
 2278              	.L243:
1556:Generated_Source\PSoC5/display.c ****     {
 2279              		.loc 1 1556 0
 2280 0024 2346     		mov	r3, r4
 2281 0026 15E0     		b	.L244
 2282              	.LVL286:
 2283              	.L245:
1558:Generated_Source\PSoC5/display.c ****         bufArray[i-1u] = display_EncodeNumber14Seg(selectVal);
 2284              		.loc 1 1558 0 discriminator 3
 2285 0028 4348     		ldr	r0, .L265
 2286 002a A0FB0210 		umull	r1, r0, r0, r2
 2287 002e C008     		lsrs	r0, r0, #3
 2288 0030 8046     		mov	r8, r0
 2289 0032 00EB8000 		add	r0, r0, r0, lsl #2
 2290 0036 4100     		lsls	r1, r0, #1
 2291 0038 501A     		subs	r0, r2, r1
 2292              	.LVL287:
1559:Generated_Source\PSoC5/display.c ****         numberVal = numberVal / 10u;
 2293              		.loc 1 1559 0 discriminator 3
 2294 003a 03F1FF39 		add	r9, r3, #-1
 2295 003e C0B2     		uxtb	r0, r0
 2296 0040 FFF7FEFF 		bl	display_EncodeNumber14Seg
 2297              	.LVL288:
 2298 0044 04AB     		add	r3, sp, #16
 2299 0046 03EB4903 		add	r3, r3, r9, lsl #1
 2300 004a 23F8100C 		strh	r0, [r3, #-16]	@ movhi
1560:Generated_Source\PSoC5/display.c ****     }
 2301              		.loc 1 1560 0 discriminator 3
 2302 004e 4246     		mov	r2, r8
ARM GAS  C:\Users\Dell\AppData\Local\Temp\ccFHrQg5.s 			page 99


 2303              	.LVL289:
1556:Generated_Source\PSoC5/display.c ****     {
 2304              		.loc 1 1556 0 discriminator 3
 2305 0050 5FFA89F3 		uxtb	r3, r9
 2306              	.LVL290:
 2307              	.L244:
1556:Generated_Source\PSoC5/display.c ****     {
 2308              		.loc 1 1556 0 is_stmt 0 discriminator 1
 2309 0054 002B     		cmp	r3, #0
 2310 0056 E7D1     		bne	.L245
1564:Generated_Source\PSoC5/display.c ****     {
 2311              		.loc 1 1564 0 is_stmt 1
 2312 0058 022E     		cmp	r6, #2
 2313 005a 34D1     		bne	.L262
1566:Generated_Source\PSoC5/display.c ****         {
 2314              		.loc 1 1566 0
 2315 005c BFB3     		cbz	r7, .L247
1569:Generated_Source\PSoC5/display.c ****         }
 2316              		.loc 1 1569 0
 2317 005e 2D20     		movs	r0, #45
 2318 0060 FFF7FEFF 		bl	display_EncodeChar14Seg
 2319              	.LVL291:
 2320 0064 ADF80000 		strh	r0, [sp]	@ movhi
 2321 0068 31E0     		b	.L247
 2322              	.LVL292:
 2323              	.L251:
1576:Generated_Source\PSoC5/display.c ****             {
 2324              		.loc 1 1576 0
 2325 006a 9846     		mov	r8, r3
 2326 006c 04A9     		add	r1, sp, #16
 2327 006e 01EB4301 		add	r1, r1, r3, lsl #1
 2328 0072 31F8100C 		ldrh	r0, [r1, #-16]
 2329 0076 4DF6C031 		movw	r1, #56256
 2330 007a 8842     		cmp	r0, r1
 2331 007c 14D0     		beq	.L248
1578:Generated_Source\PSoC5/display.c ****                 {
 2332              		.loc 1 1578 0
 2333 007e 37B3     		cbz	r7, .L247
1580:Generated_Source\PSoC5/display.c ****                     {
 2334              		.loc 1 1580 0
 2335 0080 43B9     		cbnz	r3, .L249
1583:Generated_Source\PSoC5/display.c ****                     }
 2336              		.loc 1 1583 0
 2337 0082 2D20     		movs	r0, #45
 2338 0084 FFF7FEFF 		bl	display_EncodeChar14Seg
 2339              	.LVL293:
 2340 0088 04AB     		add	r3, sp, #16
 2341 008a 03EB4808 		add	r8, r3, r8, lsl #1
 2342 008e 28F8100C 		strh	r0, [r8, #-16]	@ movhi
 2343 0092 1CE0     		b	.L247
 2344              	.LVL294:
 2345              	.L249:
1588:Generated_Source\PSoC5/display.c ****                     }
 2346              		.loc 1 1588 0
 2347 0094 5F1E     		subs	r7, r3, #1
 2348              	.LVL295:
 2349 0096 2D20     		movs	r0, #45
ARM GAS  C:\Users\Dell\AppData\Local\Temp\ccFHrQg5.s 			page 100


 2350 0098 FFF7FEFF 		bl	display_EncodeChar14Seg
 2351              	.LVL296:
 2352 009c 04AB     		add	r3, sp, #16
 2353 009e 03EB4703 		add	r3, r3, r7, lsl #1
 2354 00a2 23F8100C 		strh	r0, [r3, #-16]	@ movhi
 2355 00a6 12E0     		b	.L247
 2356              	.LVL297:
 2357              	.L248:
1596:Generated_Source\PSoC5/display.c ****                 {
 2358              		.loc 1 1596 0
 2359 00a8 611E     		subs	r1, r4, #1
 2360 00aa 8A42     		cmp	r2, r1
 2361 00ac 08D0     		beq	.L250
1599:Generated_Source\PSoC5/display.c ****                     zeroCount++;
 2362              		.loc 1 1599 0
 2363 00ae 04A9     		add	r1, sp, #16
 2364 00b0 01EB4308 		add	r8, r1, r3, lsl #1
 2365 00b4 4FF6FF71 		movw	r1, #65535
 2366 00b8 28F8101C 		strh	r1, [r8, #-16]	@ movhi
1600:Generated_Source\PSoC5/display.c ****                 }
 2367              		.loc 1 1600 0
 2368 00bc 0132     		adds	r2, r2, #1
 2369              	.LVL298:
 2370 00be D2B2     		uxtb	r2, r2
 2371              	.LVL299:
 2372              	.L250:
1574:Generated_Source\PSoC5/display.c ****         {
 2373              		.loc 1 1574 0 discriminator 2
 2374 00c0 0133     		adds	r3, r3, #1
 2375              	.LVL300:
 2376 00c2 DBB2     		uxtb	r3, r3
 2377              	.LVL301:
 2378 00c4 01E0     		b	.L246
 2379              	.LVL302:
 2380              	.L262:
 2381 00c6 0022     		movs	r2, #0
 2382              	.LVL303:
 2383 00c8 1346     		mov	r3, r2
 2384              	.LVL304:
 2385              	.L246:
1574:Generated_Source\PSoC5/display.c ****         {
 2386              		.loc 1 1574 0 is_stmt 0 discriminator 1
 2387 00ca A342     		cmp	r3, r4
 2388 00cc CDD3     		bcc	.L251
 2389              	.LVL305:
 2390              	.L247:
1609:Generated_Source\PSoC5/display.c ****     {
 2391              		.loc 1 1609 0 is_stmt 1
 2392 00ce 012E     		cmp	r6, #1
 2393 00d0 2CD1     		bne	.L253
 2394 00d2 11E0     		b	.L263
 2395              	.LVL306:
 2396              	.L256:
1613:Generated_Source\PSoC5/display.c ****             {
 2397              		.loc 1 1613 0
 2398 00d4 04AA     		add	r2, sp, #16
 2399 00d6 02EB4302 		add	r2, r2, r3, lsl #1
ARM GAS  C:\Users\Dell\AppData\Local\Temp\ccFHrQg5.s 			page 101


 2400 00da 32F8102C 		ldrh	r2, [r2, #-16]
 2401 00de 4FF6FF71 		movw	r1, #65535
 2402 00e2 8A42     		cmp	r2, r1
 2403 00e4 05D0     		beq	.L254
1615:Generated_Source\PSoC5/display.c ****                 {
 2404              		.loc 1 1615 0
 2405 00e6 012D     		cmp	r5, #1
 2406 00e8 01D8     		bhi	.L255
1618:Generated_Source\PSoC5/display.c ****                 #if (display_NUM_SEG > 8u)
 2407              		.loc 1 1618 0
 2408 00ea 1449     		ldr	r1, .L265+4
 2409 00ec 4A55     		strb	r2, [r1, r5]
 2410              	.L255:
1623:Generated_Source\PSoC5/display.c ****             }
 2411              		.loc 1 1623 0
 2412 00ee 0135     		adds	r5, r5, #1
 2413              	.LVL307:
 2414 00f0 EDB2     		uxtb	r5, r5
 2415              	.LVL308:
 2416              	.L254:
1611:Generated_Source\PSoC5/display.c ****         {
 2417              		.loc 1 1611 0 discriminator 2
 2418 00f2 0133     		adds	r3, r3, #1
 2419              	.LVL309:
 2420 00f4 DBB2     		uxtb	r3, r3
 2421              	.LVL310:
 2422 00f6 00E0     		b	.L252
 2423              	.LVL311:
 2424              	.L263:
 2425 00f8 0023     		movs	r3, #0
 2426              	.L252:
 2427              	.LVL312:
1611:Generated_Source\PSoC5/display.c ****         {
 2428              		.loc 1 1611 0 is_stmt 0 discriminator 1
 2429 00fa A342     		cmp	r3, r4
 2430 00fc EAD3     		bcc	.L256
 2431 00fe 04E0     		b	.L257
 2432              	.LVL313:
 2433              	.L258:
1630:Generated_Source\PSoC5/display.c ****             #if (display_NUM_SEG > 8u)
 2434              		.loc 1 1630 0 is_stmt 1
 2435 0100 FF22     		movs	r2, #255
 2436 0102 0E4B     		ldr	r3, .L265+4
 2437 0104 5A55     		strb	r2, [r3, r5]
1635:Generated_Source\PSoC5/display.c ****         }
 2438              		.loc 1 1635 0
 2439 0106 0135     		adds	r5, r5, #1
 2440              	.LVL314:
 2441 0108 EDB2     		uxtb	r5, r5
 2442              	.LVL315:
 2443              	.L257:
1627:Generated_Source\PSoC5/display.c ****         {
 2444              		.loc 1 1627 0
 2445 010a A542     		cmp	r5, r4
 2446 010c F8D3     		bcc	.L258
 2447 010e 0FE0     		b	.L241
 2448              	.LVL316:
ARM GAS  C:\Users\Dell\AppData\Local\Temp\ccFHrQg5.s 			page 102


 2449              	.L261:
1642:Generated_Source\PSoC5/display.c ****             {
 2450              		.loc 1 1642 0
 2451 0110 6319     		adds	r3, r4, r5
 2452 0112 013B     		subs	r3, r3, #1
 2453 0114 012B     		cmp	r3, #1
 2454 0116 07D8     		bhi	.L260
1644:Generated_Source\PSoC5/display.c ****             #if (display_NUM_SEG > 8u)
 2455              		.loc 1 1644 0
 2456 0118 621E     		subs	r2, r4, #1
 2457 011a 04A9     		add	r1, sp, #16
 2458 011c 01EB4202 		add	r2, r1, r2, lsl #1
 2459 0120 12F8101C 		ldrb	r1, [r2, #-16]	@ zero_extendqisi2
 2460 0124 054A     		ldr	r2, .L265+4
 2461 0126 D154     		strb	r1, [r2, r3]
 2462              	.L260:
1640:Generated_Source\PSoC5/display.c ****         {
 2463              		.loc 1 1640 0 discriminator 2
 2464 0128 013C     		subs	r4, r4, #1
 2465              	.LVL317:
 2466 012a E4B2     		uxtb	r4, r4
 2467              	.LVL318:
 2468              	.L253:
1640:Generated_Source\PSoC5/display.c ****         {
 2469              		.loc 1 1640 0 is_stmt 0 discriminator 1
 2470 012c 002C     		cmp	r4, #0
 2471 012e EFD1     		bne	.L261
 2472              	.LVL319:
 2473              	.L241:
1651:Generated_Source\PSoC5/display.c **** 
 2474              		.loc 1 1651 0 is_stmt 1
 2475 0130 05B0     		add	sp, sp, #20
 2476              		.cfi_def_cfa_offset 28
 2477              		@ sp needed
 2478 0132 BDE8F083 		pop	{r4, r5, r6, r7, r8, r9, pc}
 2479              	.LVL320:
 2480              	.L266:
 2481 0136 00BF     		.align	2
 2482              	.L265:
 2483 0138 CDCCCCCC 		.word	-858993459
 2484 013c 00000000 		.word	display_segLBuffer
 2485              		.cfi_endproc
 2486              	.LFE20:
 2487              		.size	display_Write14SegNumberDec, .-display_Write14SegNumberDec
 2488              		.section	.text.display_WriteString14Seg,"ax",%progbits
 2489              		.align	2
 2490              		.global	display_WriteString14Seg
 2491              		.thumb
 2492              		.thumb_func
 2493              		.type	display_WriteString14Seg, %function
 2494              	display_WriteString14Seg:
 2495              	.LFB22:
1794:Generated_Source\PSoC5/display.c ****     uint8 currPosition;
 2496              		.loc 1 1794 0
 2497              		.cfi_startproc
 2498              		@ args = 0, pretend = 0, frame = 0
 2499              		@ frame_needed = 0, uses_anonymous_args = 0
ARM GAS  C:\Users\Dell\AppData\Local\Temp\ccFHrQg5.s 			page 103


 2500              	.LVL321:
 2501 0000 F8B5     		push	{r3, r4, r5, r6, r7, lr}
 2502              		.cfi_def_cfa_offset 24
 2503              		.cfi_offset 3, -24
 2504              		.cfi_offset 4, -20
 2505              		.cfi_offset 5, -16
 2506              		.cfi_offset 6, -12
 2507              		.cfi_offset 7, -8
 2508              		.cfi_offset 14, -4
 2509 0002 0746     		mov	r7, r0
 2510 0004 0C46     		mov	r4, r1
 2511              	.LVL322:
1800:Generated_Source\PSoC5/display.c ****     
 2512              		.loc 1 1800 0
 2513 0006 FFF7FEFF 		bl	strlen
 2514              	.LVL323:
 2515 000a 2044     		add	r0, r0, r4
 2516 000c C6B2     		uxtb	r6, r0
 2517              	.LVL324:
1797:Generated_Source\PSoC5/display.c ****     uint16 charDisplay;
 2518              		.loc 1 1797 0
 2519 000e 0025     		movs	r5, #0
1802:Generated_Source\PSoC5/display.c ****     {
 2520              		.loc 1 1802 0
 2521 0010 0AE0     		b	.L268
 2522              	.LVL325:
 2523              	.L270:
1804:Generated_Source\PSoC5/display.c ****         {
 2524              		.loc 1 1804 0
 2525 0012 B442     		cmp	r4, r6
 2526 0014 06D2     		bcs	.L269
1806:Generated_Source\PSoC5/display.c ****             display_segLBuffer[currPosition] = LO8(charDisplay);
 2527              		.loc 1 1806 0
 2528 0016 785D     		ldrb	r0, [r7, r5]	@ zero_extendqisi2
 2529 0018 FFF7FEFF 		bl	display_EncodeChar14Seg
 2530              	.LVL326:
1807:Generated_Source\PSoC5/display.c ****             #if (display_NUM_SEG > 8u)
 2531              		.loc 1 1807 0
 2532 001c 044B     		ldr	r3, .L272
 2533 001e 1855     		strb	r0, [r3, r4]
1811:Generated_Source\PSoC5/display.c ****         }
 2534              		.loc 1 1811 0
 2535 0020 0135     		adds	r5, r5, #1
 2536              	.LVL327:
 2537 0022 EDB2     		uxtb	r5, r5
 2538              	.LVL328:
 2539              	.L269:
1802:Generated_Source\PSoC5/display.c ****     {
 2540              		.loc 1 1802 0 discriminator 2
 2541 0024 0134     		adds	r4, r4, #1
 2542              	.LVL329:
 2543 0026 E4B2     		uxtb	r4, r4
 2544              	.LVL330:
 2545              	.L268:
1802:Generated_Source\PSoC5/display.c ****     {
 2546              		.loc 1 1802 0 is_stmt 0 discriminator 1
 2547 0028 012C     		cmp	r4, #1
ARM GAS  C:\Users\Dell\AppData\Local\Temp\ccFHrQg5.s 			page 104


 2548 002a F2D9     		bls	.L270
1814:Generated_Source\PSoC5/display.c **** 
 2549              		.loc 1 1814 0 is_stmt 1
 2550 002c F8BD     		pop	{r3, r4, r5, r6, r7, pc}
 2551              	.LVL331:
 2552              	.L273:
 2553 002e 00BF     		.align	2
 2554              	.L272:
 2555 0030 00000000 		.word	display_segLBuffer
 2556              		.cfi_endproc
 2557              	.LFE22:
 2558              		.size	display_WriteString14Seg, .-display_WriteString14Seg
 2559              		.section	.text.display_PutChar14Seg,"ax",%progbits
 2560              		.align	2
 2561              		.global	display_PutChar14Seg
 2562              		.thumb
 2563              		.thumb_func
 2564              		.type	display_PutChar14Seg, %function
 2565              	display_PutChar14Seg:
 2566              	.LFB23:
1839:Generated_Source\PSoC5/display.c ****     uint16 charDisplay;
 2567              		.loc 1 1839 0
 2568              		.cfi_startproc
 2569              		@ args = 0, pretend = 0, frame = 0
 2570              		@ frame_needed = 0, uses_anonymous_args = 0
 2571              	.LVL332:
1842:Generated_Source\PSoC5/display.c ****     {
 2572              		.loc 1 1842 0
 2573 0000 0129     		cmp	r1, #1
 2574 0002 06D8     		bhi	.L277
1839:Generated_Source\PSoC5/display.c ****     uint16 charDisplay;
 2575              		.loc 1 1839 0
 2576 0004 10B5     		push	{r4, lr}
 2577              		.cfi_def_cfa_offset 8
 2578              		.cfi_offset 4, -8
 2579              		.cfi_offset 14, -4
 2580 0006 0C46     		mov	r4, r1
1844:Generated_Source\PSoC5/display.c ****         display_segLBuffer[position] = LO8(charDisplay);
 2581              		.loc 1 1844 0
 2582 0008 FFF7FEFF 		bl	display_EncodeChar14Seg
 2583              	.LVL333:
1845:Generated_Source\PSoC5/display.c ****     #if (display_NUM_SEG > 8u)
 2584              		.loc 1 1845 0
 2585 000c 014B     		ldr	r3, .L278
 2586 000e 1855     		strb	r0, [r3, r4]
 2587 0010 10BD     		pop	{r4, pc}
 2588              	.LVL334:
 2589              	.L277:
 2590              		.cfi_def_cfa_offset 0
 2591              		.cfi_restore 4
 2592              		.cfi_restore 14
 2593 0012 7047     		bx	lr
 2594              	.L279:
 2595              		.align	2
 2596              	.L278:
 2597 0014 00000000 		.word	display_segLBuffer
 2598              		.cfi_endproc
ARM GAS  C:\Users\Dell\AppData\Local\Temp\ccFHrQg5.s 			page 105


 2599              	.LFE23:
 2600              		.size	display_PutChar14Seg, .-display_PutChar14Seg
 2601              		.section	.text.display_EncodeNumber16Seg,"ax",%progbits
 2602              		.align	2
 2603              		.global	display_EncodeNumber16Seg
 2604              		.thumb
 2605              		.thumb_func
 2606              		.type	display_EncodeNumber16Seg, %function
 2607              	display_EncodeNumber16Seg:
 2608              	.LFB38:
3068:Generated_Source\PSoC5/display.c **** 
3069:Generated_Source\PSoC5/display.c **** 
3070:Generated_Source\PSoC5/display.c **** /*******************************************************************************
3071:Generated_Source\PSoC5/display.c **** * Function Name: display_EncodeNumber16Seg
3072:Generated_Source\PSoC5/display.c **** ********************************************************************************
3073:Generated_Source\PSoC5/display.c **** *
3074:Generated_Source\PSoC5/display.c **** * Summary:
3075:Generated_Source\PSoC5/display.c **** *  Converts the lower 4 bits of the input into 16-segment data that will 
3076:Generated_Source\PSoC5/display.c **** *  display the number in hex on a display. 16-segment display RAM is split into
3077:Generated_Source\PSoC5/display.c **** *  two sections for each of the eight segments, so the returned data must be 
3078:Generated_Source\PSoC5/display.c **** *  separated into high and low bytes before being written directly into the
3079:Generated_Source\PSoC5/display.c **** *  display RAM to display the desired number. It is not necessary to use this
3080:Generated_Source\PSoC5/display.c **** *  function since higher level API are provided to both decode the value and 
3081:Generated_Source\PSoC5/display.c **** *  write it to the display RAM.
3082:Generated_Source\PSoC5/display.c **** *
3083:Generated_Source\PSoC5/display.c **** * Parameters:
3084:Generated_Source\PSoC5/display.c **** *  uint8 number: A number between 0x0 and 0xF to be converted into segment data.
3085:Generated_Source\PSoC5/display.c **** *
3086:Generated_Source\PSoC5/display.c **** * Return:
3087:Generated_Source\PSoC5/display.c **** *  The value to be written into the display RAM for displaying the specified
3088:Generated_Source\PSoC5/display.c **** *  character.
3089:Generated_Source\PSoC5/display.c **** *
3090:Generated_Source\PSoC5/display.c **** * Side effects:
3091:Generated_Source\PSoC5/display.c **** *  None
3092:Generated_Source\PSoC5/display.c **** *
3093:Generated_Source\PSoC5/display.c **** *******************************************************************************/
3094:Generated_Source\PSoC5/display.c **** uint16 display_EncodeNumber16Seg(uint8 number) 
3095:Generated_Source\PSoC5/display.c **** {
 2609              		.loc 1 3095 0
 2610              		.cfi_startproc
 2611              		@ args = 0, pretend = 0, frame = 0
 2612              		@ frame_needed = 0, uses_anonymous_args = 0
 2613              		@ link register save eliminated.
 2614              	.LVL335:
3096:Generated_Source\PSoC5/display.c ****     #if(display_SEG_DRIVE == display_HIGH)
3097:Generated_Source\PSoC5/display.c ****         /* 16-segment numerical LUT for low byte */
3098:Generated_Source\PSoC5/display.c ****         static const uint8 CYCODE display_16SegDigitsLow[16] =
3099:Generated_Source\PSoC5/display.c ****               /*--------------------------------------------------------*/
3100:Generated_Source\PSoC5/display.c ****               /*  '0'    '1'    '2'    '3'    '4'    '5'    '6'    '7'  */
3101:Generated_Source\PSoC5/display.c ****               /*--------------------------------------------------------*/
3102:Generated_Source\PSoC5/display.c ****                 {0xffu, 0x0cu, 0x77u, 0x3fu, 0x8cu, 0xbbu, 0xfbu, 0x0fu,
3103:Generated_Source\PSoC5/display.c ****               /*--------------------------------------------------------*/
3104:Generated_Source\PSoC5/display.c ****               /*  '8'    '9'    'A'    'B'    'C'    'D'    'E'    'F'  */
3105:Generated_Source\PSoC5/display.c ****               /*--------------------------------------------------------*/
3106:Generated_Source\PSoC5/display.c ****                  0xffu, 0x8fu, 0xcfu, 0x3fu, 0xf3u, 0x3fu, 0xf3u, 0xc3u};
3107:Generated_Source\PSoC5/display.c **** 
3108:Generated_Source\PSoC5/display.c ****         /* 16-segment numerical LUT for high byte */
ARM GAS  C:\Users\Dell\AppData\Local\Temp\ccFHrQg5.s 			page 106


3109:Generated_Source\PSoC5/display.c ****         static const uint8 CYCODE display_16SegDigitsHigh[16] =
3110:Generated_Source\PSoC5/display.c ****               /*--------------------------------------------------------*/
3111:Generated_Source\PSoC5/display.c ****               /*  '0'    '1'    '2'    '3'    '4'    '5'    '6'    '7'  */
3112:Generated_Source\PSoC5/display.c ****               /*--------------------------------------------------------*/
3113:Generated_Source\PSoC5/display.c ****                 {0x90u, 0x00u, 0x03u, 0x03u, 0x03u, 0x03u, 0x03u, 0x00u,
3114:Generated_Source\PSoC5/display.c ****               /*--------------------------------------------------------*/
3115:Generated_Source\PSoC5/display.c ****               /*  '8'    '9'    'A'    'B'    'C'    'D'    'E'    'F'  */
3116:Generated_Source\PSoC5/display.c ****               /*--------------------------------------------------------*/
3117:Generated_Source\PSoC5/display.c ****                  0x03u, 0x03u, 0x03u, 0x4au, 0x00u, 0x48u, 0x03u, 0x03u};
3118:Generated_Source\PSoC5/display.c ****     #else
3119:Generated_Source\PSoC5/display.c ****         /* 16-segment numerical LUT for low byte */
3120:Generated_Source\PSoC5/display.c ****         static const uint8 CYCODE display_16SegDigitsLow[16] =
3121:Generated_Source\PSoC5/display.c ****               /*--------------------------------------------------------*/
3122:Generated_Source\PSoC5/display.c ****               /*  '0'    '1'    '2'    '3'    '4'    '5'    '6'    '7'  */
3123:Generated_Source\PSoC5/display.c ****               /*--------------------------------------------------------*/
3124:Generated_Source\PSoC5/display.c ****                 {0x00u, 0xf3u, 0x88u, 0xc0u, 0x73u, 0x44u, 0x04u, 0xf0u,
3125:Generated_Source\PSoC5/display.c ****               /*--------------------------------------------------------*/
3126:Generated_Source\PSoC5/display.c ****               /*  '8'    '9'    'A'    'B'    'C'    'D'    'E'    'F'  */
3127:Generated_Source\PSoC5/display.c ****               /*--------------------------------------------------------*/
3128:Generated_Source\PSoC5/display.c ****                  0x00u, 0x70u, 0x30u, 0xc0u, 0x0cu, 0xc0u, 0x0cu, 0x3cu};
3129:Generated_Source\PSoC5/display.c **** 
3130:Generated_Source\PSoC5/display.c ****         /* 16-segment numerical LUT for high byte */
3131:Generated_Source\PSoC5/display.c ****         static const uint8 CYCODE display_16SegDigitsHigh[16] =
3132:Generated_Source\PSoC5/display.c ****               /*--------------------------------------------------------*/
3133:Generated_Source\PSoC5/display.c ****               /*  '0'    '1'    '2'    '3'    '4'    '5'    '6'    '7'  */
3134:Generated_Source\PSoC5/display.c ****               /*--------------------------------------------------------*/
3135:Generated_Source\PSoC5/display.c ****                 {0x6fu, 0xffu, 0xfcu, 0xfcu, 0xfcu, 0xfcu, 0xfcu, 0xffu,
3136:Generated_Source\PSoC5/display.c ****               /*--------------------------------------------------------*/
3137:Generated_Source\PSoC5/display.c ****               /*  '8'    '9'    'A'    'B'    'C'    'D'    'E'    'F'  */
3138:Generated_Source\PSoC5/display.c ****               /*--------------------------------------------------------*/
3139:Generated_Source\PSoC5/display.c ****                  0xfcu, 0xfcu, 0xfcu, 0xb5u, 0xffu, 0xb7u, 0xfcu, 0xfcu};
3140:Generated_Source\PSoC5/display.c ****     #endif /*  display_SEG_DRIVE */
3141:Generated_Source\PSoC5/display.c ****     
3142:Generated_Source\PSoC5/display.c ****     uint8 valNum;
3143:Generated_Source\PSoC5/display.c ****     uint16 valLow;
3144:Generated_Source\PSoC5/display.c ****     uint16 valHigh;
3145:Generated_Source\PSoC5/display.c ****     uint16 valHex;
3146:Generated_Source\PSoC5/display.c ****     
3147:Generated_Source\PSoC5/display.c ****     valNum = (uint8)(number & display_NIBBLE_MASK);
 2615              		.loc 1 3147 0
 2616 0000 00F00F00 		and	r0, r0, #15
 2617              	.LVL336:
3148:Generated_Source\PSoC5/display.c ****     
3149:Generated_Source\PSoC5/display.c ****     /* Get the 16-seg hex value from high and low byte LUTs */
3150:Generated_Source\PSoC5/display.c ****     valHigh = (uint16)((uint16)display_16SegDigitsHigh[valNum] << display_SHIFT_BYTE);
 2618              		.loc 1 3150 0
 2619 0004 044B     		ldr	r3, .L281
 2620 0006 0344     		add	r3, r3, r0
 2621 0008 93F85001 		ldrb	r0, [r3, #336]	@ zero_extendqisi2
 2622              	.LVL337:
3151:Generated_Source\PSoC5/display.c ****     valLow = (uint16)display_16SegDigitsLow[valNum];
 2623              		.loc 1 3151 0
 2624 000c 93F86031 		ldrb	r3, [r3, #352]	@ zero_extendqisi2
 2625              	.LVL338:
3152:Generated_Source\PSoC5/display.c ****     
3153:Generated_Source\PSoC5/display.c ****     valHex = valHigh | valLow;
3154:Generated_Source\PSoC5/display.c ****     
ARM GAS  C:\Users\Dell\AppData\Local\Temp\ccFHrQg5.s 			page 107


3155:Generated_Source\PSoC5/display.c ****     return(valHex);
3156:Generated_Source\PSoC5/display.c **** }
 2626              		.loc 1 3156 0
 2627 0010 43EA0020 		orr	r0, r3, r0, lsl #8
 2628              	.LVL339:
 2629 0014 7047     		bx	lr
 2630              	.L282:
 2631 0016 00BF     		.align	2
 2632              	.L281:
 2633 0018 00000000 		.word	.LANCHOR2
 2634              		.cfi_endproc
 2635              	.LFE38:
 2636              		.size	display_EncodeNumber16Seg, .-display_EncodeNumber16Seg
 2637              		.section	.text.display_Write16SegNumberHex,"ax",%progbits
 2638              		.align	2
 2639              		.global	display_Write16SegNumberHex
 2640              		.thumb
 2641              		.thumb_func
 2642              		.type	display_Write16SegNumberHex, %function
 2643              	display_Write16SegNumberHex:
 2644              	.LFB27:
2113:Generated_Source\PSoC5/display.c ****     uint8 i;
 2645              		.loc 1 2113 0
 2646              		.cfi_startproc
 2647              		@ args = 0, pretend = 0, frame = 16
 2648              		@ frame_needed = 0, uses_anonymous_args = 0
 2649              	.LVL340:
 2650 0000 2DE9F041 		push	{r4, r5, r6, r7, r8, lr}
 2651              		.cfi_def_cfa_offset 24
 2652              		.cfi_offset 4, -24
 2653              		.cfi_offset 5, -20
 2654              		.cfi_offset 6, -16
 2655              		.cfi_offset 7, -12
 2656              		.cfi_offset 8, -8
 2657              		.cfi_offset 14, -4
 2658 0004 84B0     		sub	sp, sp, #16
 2659              		.cfi_def_cfa_offset 40
 2660 0006 0746     		mov	r7, r0
 2661 0008 0E46     		mov	r6, r1
 2662 000a 1446     		mov	r4, r2
 2663 000c 9846     		mov	r8, r3
2117:Generated_Source\PSoC5/display.c ****     uint32 numberVal;
 2664              		.loc 1 2117 0
 2665 000e 0023     		movs	r3, #0
 2666              	.LVL341:
 2667 0010 0093     		str	r3, [sp]
 2668 0012 0193     		str	r3, [sp, #4]
 2669 0014 0293     		str	r3, [sp, #8]
 2670 0016 0393     		str	r3, [sp, #12]
 2671              	.LVL342:
2123:Generated_Source\PSoC5/display.c ****     {
 2672              		.loc 1 2123 0
 2673 0018 1346     		mov	r3, r2
 2674 001a 0BE0     		b	.L284
 2675              	.LVL343:
 2676              	.L285:
2126:Generated_Source\PSoC5/display.c ****         numberVal = (uint32)((uint32)numberVal >> display_SHIFT_NIBBLE);
ARM GAS  C:\Users\Dell\AppData\Local\Temp\ccFHrQg5.s 			page 108


 2677              		.loc 1 2126 0 discriminator 3
 2678 001c 5D1E     		subs	r5, r3, #1
 2679 001e 07F00F00 		and	r0, r7, #15
 2680 0022 FFF7FEFF 		bl	display_EncodeNumber16Seg
 2681              	.LVL344:
 2682 0026 04AB     		add	r3, sp, #16
 2683 0028 03EB4503 		add	r3, r3, r5, lsl #1
 2684 002c 23F8100C 		strh	r0, [r3, #-16]	@ movhi
2127:Generated_Source\PSoC5/display.c ****     }
 2685              		.loc 1 2127 0 discriminator 3
 2686 0030 3F09     		lsrs	r7, r7, #4
 2687              	.LVL345:
2123:Generated_Source\PSoC5/display.c ****     {
 2688              		.loc 1 2123 0 discriminator 3
 2689 0032 EBB2     		uxtb	r3, r5
 2690              	.LVL346:
 2691              	.L284:
2123:Generated_Source\PSoC5/display.c ****     {
 2692              		.loc 1 2123 0 is_stmt 0 discriminator 1
 2693 0034 002B     		cmp	r3, #0
 2694 0036 F1D1     		bne	.L285
 2695 0038 10E0     		b	.L286
 2696              	.L288:
2133:Generated_Source\PSoC5/display.c ****         {
 2697              		.loc 1 2133 0 is_stmt 1
 2698 003a 04AA     		add	r2, sp, #16
 2699 003c 02EB4302 		add	r2, r2, r3, lsl #1
 2700 0040 32F8102C 		ldrh	r2, [r2, #-16]
 2701 0044 B2F5DE4F 		cmp	r2, #28416
 2702 0048 0AD1     		bne	.L287
2141:Generated_Source\PSoC5/display.c ****         }    
 2703              		.loc 1 2141 0 discriminator 2
 2704 004a 04AA     		add	r2, sp, #16
 2705 004c 02EB4302 		add	r2, r2, r3, lsl #1
 2706 0050 4FF6FF71 		movw	r1, #65535
 2707 0054 22F8101C 		strh	r1, [r2, #-16]	@ movhi
2131:Generated_Source\PSoC5/display.c ****     {
 2708              		.loc 1 2131 0 discriminator 2
 2709 0058 0133     		adds	r3, r3, #1
 2710              	.LVL347:
 2711 005a DBB2     		uxtb	r3, r3
 2712              	.LVL348:
 2713              	.L286:
2131:Generated_Source\PSoC5/display.c ****     {
 2714              		.loc 1 2131 0 is_stmt 0 discriminator 1
 2715 005c A342     		cmp	r3, r4
 2716 005e ECD3     		bcc	.L288
 2717              	.L287:
 2718              	.LVL349:
2148:Generated_Source\PSoC5/display.c ****     {
 2719              		.loc 1 2148 0 is_stmt 1
 2720 0060 B8F1010F 		cmp	r8, #1
 2721 0064 2CD1     		bne	.L290
 2722 0066 11E0     		b	.L299
 2723              	.L293:
2152:Generated_Source\PSoC5/display.c ****             {
 2724              		.loc 1 2152 0
ARM GAS  C:\Users\Dell\AppData\Local\Temp\ccFHrQg5.s 			page 109


 2725 0068 04AA     		add	r2, sp, #16
 2726 006a 02EB4302 		add	r2, r2, r3, lsl #1
 2727 006e 32F8102C 		ldrh	r2, [r2, #-16]
 2728 0072 4FF6FF71 		movw	r1, #65535
 2729 0076 8A42     		cmp	r2, r1
 2730 0078 05D0     		beq	.L291
2154:Generated_Source\PSoC5/display.c ****                 {
 2731              		.loc 1 2154 0
 2732 007a 012E     		cmp	r6, #1
 2733 007c 01D8     		bhi	.L292
2157:Generated_Source\PSoC5/display.c ****                 #if (display_NUM_SEG > 8u)
 2734              		.loc 1 2157 0
 2735 007e 1349     		ldr	r1, .L301
 2736 0080 8A55     		strb	r2, [r1, r6]
 2737              	.L292:
2162:Generated_Source\PSoC5/display.c ****             }
 2738              		.loc 1 2162 0
 2739 0082 0136     		adds	r6, r6, #1
 2740              	.LVL350:
 2741 0084 F6B2     		uxtb	r6, r6
 2742              	.LVL351:
 2743              	.L291:
2150:Generated_Source\PSoC5/display.c ****         {
 2744              		.loc 1 2150 0 discriminator 2
 2745 0086 0133     		adds	r3, r3, #1
 2746              	.LVL352:
 2747 0088 DBB2     		uxtb	r3, r3
 2748              	.LVL353:
 2749 008a 00E0     		b	.L289
 2750              	.L299:
 2751 008c 0023     		movs	r3, #0
 2752              	.LVL354:
 2753              	.L289:
2150:Generated_Source\PSoC5/display.c ****         {
 2754              		.loc 1 2150 0 is_stmt 0 discriminator 1
 2755 008e A342     		cmp	r3, r4
 2756 0090 EAD3     		bcc	.L293
 2757 0092 04E0     		b	.L294
 2758              	.LVL355:
 2759              	.L295:
2169:Generated_Source\PSoC5/display.c ****             #if (display_NUM_SEG > 8u)
 2760              		.loc 1 2169 0 is_stmt 1
 2761 0094 FF22     		movs	r2, #255
 2762 0096 0D4B     		ldr	r3, .L301
 2763 0098 9A55     		strb	r2, [r3, r6]
2174:Generated_Source\PSoC5/display.c ****         }
 2764              		.loc 1 2174 0
 2765 009a 0136     		adds	r6, r6, #1
 2766              	.LVL356:
 2767 009c F6B2     		uxtb	r6, r6
 2768              	.LVL357:
 2769              	.L294:
2166:Generated_Source\PSoC5/display.c ****         {
 2770              		.loc 1 2166 0
 2771 009e A642     		cmp	r6, r4
 2772 00a0 F8D3     		bcc	.L295
 2773 00a2 0FE0     		b	.L283
ARM GAS  C:\Users\Dell\AppData\Local\Temp\ccFHrQg5.s 			page 110


 2774              	.LVL358:
 2775              	.L298:
2181:Generated_Source\PSoC5/display.c ****             {
 2776              		.loc 1 2181 0
 2777 00a4 A319     		adds	r3, r4, r6
 2778 00a6 013B     		subs	r3, r3, #1
 2779 00a8 012B     		cmp	r3, #1
 2780 00aa 07D8     		bhi	.L297
2183:Generated_Source\PSoC5/display.c ****             #if (display_NUM_SEG > 8u)
 2781              		.loc 1 2183 0
 2782 00ac 621E     		subs	r2, r4, #1
 2783 00ae 04A9     		add	r1, sp, #16
 2784 00b0 01EB4202 		add	r2, r1, r2, lsl #1
 2785 00b4 12F8101C 		ldrb	r1, [r2, #-16]	@ zero_extendqisi2
 2786 00b8 044A     		ldr	r2, .L301
 2787 00ba D154     		strb	r1, [r2, r3]
 2788              	.L297:
2179:Generated_Source\PSoC5/display.c ****         {
 2789              		.loc 1 2179 0 discriminator 2
 2790 00bc 013C     		subs	r4, r4, #1
 2791              	.LVL359:
 2792 00be E4B2     		uxtb	r4, r4
 2793              	.LVL360:
 2794              	.L290:
2179:Generated_Source\PSoC5/display.c ****         {
 2795              		.loc 1 2179 0 is_stmt 0 discriminator 1
 2796 00c0 002C     		cmp	r4, #0
 2797 00c2 EFD1     		bne	.L298
 2798              	.LVL361:
 2799              	.L283:
2190:Generated_Source\PSoC5/display.c **** 
 2800              		.loc 1 2190 0 is_stmt 1
 2801 00c4 04B0     		add	sp, sp, #16
 2802              		.cfi_def_cfa_offset 24
 2803              		@ sp needed
 2804 00c6 BDE8F081 		pop	{r4, r5, r6, r7, r8, pc}
 2805              	.LVL362:
 2806              	.L302:
 2807 00ca 00BF     		.align	2
 2808              	.L301:
 2809 00cc 00000000 		.word	display_segLBuffer
 2810              		.cfi_endproc
 2811              	.LFE27:
 2812              		.size	display_Write16SegNumberHex, .-display_Write16SegNumberHex
 2813              		.section	.text.display_Write16SegDigitDec,"ax",%progbits
 2814              		.align	2
 2815              		.global	display_Write16SegDigitDec
 2816              		.thumb
 2817              		.thumb_func
 2818              		.type	display_Write16SegDigitDec, %function
 2819              	display_Write16SegDigitDec:
 2820              	.LFB30:
2293:Generated_Source\PSoC5/display.c ****     uint16 charDisplay;
 2821              		.loc 1 2293 0
 2822              		.cfi_startproc
 2823              		@ args = 0, pretend = 0, frame = 0
 2824              		@ frame_needed = 0, uses_anonymous_args = 0
ARM GAS  C:\Users\Dell\AppData\Local\Temp\ccFHrQg5.s 			page 111


 2825              	.LVL363:
2296:Generated_Source\PSoC5/display.c ****     {
 2826              		.loc 1 2296 0
 2827 0000 0928     		cmp	r0, #9
 2828 0002 08D8     		bhi	.L306
2296:Generated_Source\PSoC5/display.c ****     {
 2829              		.loc 1 2296 0 is_stmt 0 discriminator 1
 2830 0004 0129     		cmp	r1, #1
 2831 0006 06D8     		bhi	.L306
2293:Generated_Source\PSoC5/display.c ****     uint16 charDisplay;
 2832              		.loc 1 2293 0 is_stmt 1
 2833 0008 10B5     		push	{r4, lr}
 2834              		.cfi_def_cfa_offset 8
 2835              		.cfi_offset 4, -8
 2836              		.cfi_offset 14, -4
 2837 000a 0C46     		mov	r4, r1
2298:Generated_Source\PSoC5/display.c ****         display_segLBuffer[position] = LO8(charDisplay);
 2838              		.loc 1 2298 0
 2839 000c FFF7FEFF 		bl	display_EncodeNumber16Seg
 2840              	.LVL364:
2299:Generated_Source\PSoC5/display.c ****         #if (display_NUM_SEG > 8u)
 2841              		.loc 1 2299 0
 2842 0010 014B     		ldr	r3, .L307
 2843 0012 1855     		strb	r0, [r3, r4]
 2844 0014 10BD     		pop	{r4, pc}
 2845              	.LVL365:
 2846              	.L306:
 2847              		.cfi_def_cfa_offset 0
 2848              		.cfi_restore 4
 2849              		.cfi_restore 14
 2850 0016 7047     		bx	lr
 2851              	.L308:
 2852              		.align	2
 2853              	.L307:
 2854 0018 00000000 		.word	display_segLBuffer
 2855              		.cfi_endproc
 2856              	.LFE30:
 2857              		.size	display_Write16SegDigitDec, .-display_Write16SegDigitDec
 2858              		.section	.text.display_Write16SegDigitHex,"ax",%progbits
 2859              		.align	2
 2860              		.global	display_Write16SegDigitHex
 2861              		.thumb
 2862              		.thumb_func
 2863              		.type	display_Write16SegDigitHex, %function
 2864              	display_Write16SegDigitHex:
 2865              	.LFB31:
2327:Generated_Source\PSoC5/display.c ****     uint16 charDisplay;
 2866              		.loc 1 2327 0
 2867              		.cfi_startproc
 2868              		@ args = 0, pretend = 0, frame = 0
 2869              		@ frame_needed = 0, uses_anonymous_args = 0
 2870              	.LVL366:
2330:Generated_Source\PSoC5/display.c ****     {
 2871              		.loc 1 2330 0
 2872 0000 0129     		cmp	r1, #1
 2873 0002 06D8     		bhi	.L312
2327:Generated_Source\PSoC5/display.c ****     uint16 charDisplay;
ARM GAS  C:\Users\Dell\AppData\Local\Temp\ccFHrQg5.s 			page 112


 2874              		.loc 1 2327 0
 2875 0004 10B5     		push	{r4, lr}
 2876              		.cfi_def_cfa_offset 8
 2877              		.cfi_offset 4, -8
 2878              		.cfi_offset 14, -4
 2879 0006 0C46     		mov	r4, r1
2332:Generated_Source\PSoC5/display.c ****         display_segLBuffer[position] = LO8(charDisplay);
 2880              		.loc 1 2332 0
 2881 0008 FFF7FEFF 		bl	display_EncodeNumber16Seg
 2882              	.LVL367:
2333:Generated_Source\PSoC5/display.c ****         #if (display_NUM_SEG > 8u)
 2883              		.loc 1 2333 0
 2884 000c 014B     		ldr	r3, .L313
 2885 000e 1855     		strb	r0, [r3, r4]
 2886 0010 10BD     		pop	{r4, pc}
 2887              	.LVL368:
 2888              	.L312:
 2889              		.cfi_def_cfa_offset 0
 2890              		.cfi_restore 4
 2891              		.cfi_restore 14
 2892 0012 7047     		bx	lr
 2893              	.L314:
 2894              		.align	2
 2895              	.L313:
 2896 0014 00000000 		.word	display_segLBuffer
 2897              		.cfi_endproc
 2898              	.LFE31:
 2899              		.size	display_Write16SegDigitHex, .-display_Write16SegDigitHex
 2900              		.section	.text.display_EncodeChar16Seg,"ax",%progbits
 2901              		.align	2
 2902              		.global	display_EncodeChar16Seg
 2903              		.thumb
 2904              		.thumb_func
 2905              		.type	display_EncodeChar16Seg, %function
 2906              	display_EncodeChar16Seg:
 2907              	.LFB39:
3157:Generated_Source\PSoC5/display.c **** 
3158:Generated_Source\PSoC5/display.c **** 
3159:Generated_Source\PSoC5/display.c **** /*******************************************************************************
3160:Generated_Source\PSoC5/display.c **** * Function Name: display_EncodeChar16Seg
3161:Generated_Source\PSoC5/display.c **** ********************************************************************************
3162:Generated_Source\PSoC5/display.c **** *
3163:Generated_Source\PSoC5/display.c **** * Summary:
3164:Generated_Source\PSoC5/display.c **** *  Converts the ASCII encoded alphabet character input into the 16-segment
3165:Generated_Source\PSoC5/display.c **** *  data that will display the alphabet character on a display. 16-segment 
3166:Generated_Source\PSoC5/display.c **** *  display RAM is split into two sections for each of the eight segments, so 
3167:Generated_Source\PSoC5/display.c **** *  the returned data must be separated into high and low bytes before being 
3168:Generated_Source\PSoC5/display.c **** *  written directly into the display RAM to display the desired character. It
3169:Generated_Source\PSoC5/display.c **** *  is not necessary to use this function since higher level API are provided 
3170:Generated_Source\PSoC5/display.c **** *  to both decode the value and write it to the display RAM.
3171:Generated_Source\PSoC5/display.c **** *
3172:Generated_Source\PSoC5/display.c **** * Parameters:
3173:Generated_Source\PSoC5/display.c **** *  char8 input: An ASCII alphabet character to be converted into segment data.
3174:Generated_Source\PSoC5/display.c **** *
3175:Generated_Source\PSoC5/display.c **** * Return:
3176:Generated_Source\PSoC5/display.c **** *  The value to be written into the display RAM for displaying the specified
3177:Generated_Source\PSoC5/display.c **** *  character.
ARM GAS  C:\Users\Dell\AppData\Local\Temp\ccFHrQg5.s 			page 113


3178:Generated_Source\PSoC5/display.c **** *
3179:Generated_Source\PSoC5/display.c **** * Side effects:
3180:Generated_Source\PSoC5/display.c **** *  None
3181:Generated_Source\PSoC5/display.c **** *
3182:Generated_Source\PSoC5/display.c **** *******************************************************************************/
3183:Generated_Source\PSoC5/display.c **** uint16 display_EncodeChar16Seg(char8 input) 
3184:Generated_Source\PSoC5/display.c **** {
 2908              		.loc 1 3184 0
 2909              		.cfi_startproc
 2910              		@ args = 0, pretend = 0, frame = 0
 2911              		@ frame_needed = 0, uses_anonymous_args = 0
 2912              		@ link register save eliminated.
 2913              	.LVL369:
3185:Generated_Source\PSoC5/display.c ****     #if(display_SEG_DRIVE == display_HIGH)
3186:Generated_Source\PSoC5/display.c ****         /* 16-segment ASCII LUT for low byte */
3187:Generated_Source\PSoC5/display.c ****         static const uint8 CYCODE display_16SegASCIILow[6][16] =
3188:Generated_Source\PSoC5/display.c ****               {
3189:Generated_Source\PSoC5/display.c ****               /*--------------------------------------------------------*/
3190:Generated_Source\PSoC5/display.c ****               /* 'Space' '!'    '"'    '#'    '$'    '%'    '&'    '''  */
3191:Generated_Source\PSoC5/display.c ****               /*--------------------------------------------------------*/
3192:Generated_Source\PSoC5/display.c ****                 {0x00u, 0xc0u, 0x80u, 0x00u, 0x00u, 0x00u, 0x00u, 0x80u,
3193:Generated_Source\PSoC5/display.c ****               /*--------------------------------------------------------*/
3194:Generated_Source\PSoC5/display.c ****               /*  '('    ')'    '*'    '+'    ','    '-'    '.'    '/'  */
3195:Generated_Source\PSoC5/display.c ****               /*--------------------------------------------------------*/
3196:Generated_Source\PSoC5/display.c ****                  0x00u, 0x00u, 0x00u, 0x00u, 0x00u, 0x00u, 0x00u, 0x00u},
3197:Generated_Source\PSoC5/display.c ****               /*--------------------------------------------------------*/   
3198:Generated_Source\PSoC5/display.c ****               /*  '0'    '1'    '2'    '3'    '4'    '5'    '6'    '7'  */
3199:Generated_Source\PSoC5/display.c ****               /*--------------------------------------------------------*/
3200:Generated_Source\PSoC5/display.c ****                 {0xffu, 0x0cu, 0x77u, 0x3fu, 0x8cu, 0xbbu, 0xfbu, 0x0fu,
3201:Generated_Source\PSoC5/display.c ****               /*--------------------------------------------------------*/
3202:Generated_Source\PSoC5/display.c ****               /*  '8'    '9'    ':'    ';'    '<'    '='    '>'    '?'  */
3203:Generated_Source\PSoC5/display.c ****               /*--------------------------------------------------------*/
3204:Generated_Source\PSoC5/display.c ****                  0xffu, 0x8fu, 0x00u, 0x00u, 0x00u, 0x30u, 0x00u, 0x07u},
3205:Generated_Source\PSoC5/display.c ****               /*--------------------------------------------------------*/
3206:Generated_Source\PSoC5/display.c ****               /*  '@'    'A'    'B'    'C'    'D'    'E'    'F'    'G'  */
3207:Generated_Source\PSoC5/display.c ****               /*--------------------------------------------------------*/
3208:Generated_Source\PSoC5/display.c ****                 {0x00u, 0xcfu, 0x3fu, 0xf3u, 0x3fu, 0xf3u, 0xc3u, 0xfbu,
3209:Generated_Source\PSoC5/display.c ****               /*--------------------------------------------------------*/
3210:Generated_Source\PSoC5/display.c ****               /*  'H'    'I'    'J'    'K'    'L'    'M'    'N'    'O'  */
3211:Generated_Source\PSoC5/display.c ****               /*--------------------------------------------------------*/
3212:Generated_Source\PSoC5/display.c ****                  0xccu, 0x33u, 0x7cu, 0xc0u, 0xf0u, 0xccu, 0xccu, 0xffu},
3213:Generated_Source\PSoC5/display.c ****               /*--------------------------------------------------------*/
3214:Generated_Source\PSoC5/display.c ****               /*  'P'    'Q'    'R'    'S'    'T'    'U'    'V'    'W'  */
3215:Generated_Source\PSoC5/display.c ****               /*--------------------------------------------------------*/
3216:Generated_Source\PSoC5/display.c ****                 {0xc7u, 0xffu, 0xc7u, 0xbbu, 0x03u, 0xfcu, 0xc0u, 0xccu,
3217:Generated_Source\PSoC5/display.c ****               /*--------------------------------------------------------*/
3218:Generated_Source\PSoC5/display.c ****               /*  'X'    'Y'    'Z'    '['    '\'    ']'    '^'    '_'  */
3219:Generated_Source\PSoC5/display.c ****               /*--------------------------------------------------------*/
3220:Generated_Source\PSoC5/display.c ****                  0x00u, 0x00u, 0x33u, 0x00u, 0x00u, 0x00u, 0x00u, 0x30u},
3221:Generated_Source\PSoC5/display.c ****               /*--------------------------------------------------------*/
3222:Generated_Source\PSoC5/display.c ****               /*  '`'    'a'    'b'    'c'    'd'    'e'    'f'    'g'  */
3223:Generated_Source\PSoC5/display.c ****               /*--------------------------------------------------------*/
3224:Generated_Source\PSoC5/display.c ****                 {0x00u, 0x70u, 0xe0u, 0x60u, 0x60u, 0x60u, 0x02u, 0xa1u,
3225:Generated_Source\PSoC5/display.c ****               /*--------------------------------------------------------*/
3226:Generated_Source\PSoC5/display.c ****               /*  'h'    'i'    'j'    'k'    'l'    'm'    'n'    'o'  */
3227:Generated_Source\PSoC5/display.c ****               /*--------------------------------------------------------*/
3228:Generated_Source\PSoC5/display.c ****                  0xc0u, 0x00u, 0x20u, 0x00u, 0x00u, 0x48u, 0x08u, 0x60u},
ARM GAS  C:\Users\Dell\AppData\Local\Temp\ccFHrQg5.s 			page 114


3229:Generated_Source\PSoC5/display.c ****               /*--------------------------------------------------------*/
3230:Generated_Source\PSoC5/display.c ****               /*  'p'    'q'    'r'    's'    't'    'u'    'v'    'w'  */
3231:Generated_Source\PSoC5/display.c ****               /*--------------------------------------------------------*/
3232:Generated_Source\PSoC5/display.c ****                 {0xc1u, 0x91u, 0x00u, 0x10u, 0x00u, 0x70u, 0x40u, 0x78u,
3233:Generated_Source\PSoC5/display.c ****               /*--------------------------------------------------------*/
3234:Generated_Source\PSoC5/display.c ****               /*  'x'    'y'    'z'    '{'    '|'    '}'    '~'   'DEL' */
3235:Generated_Source\PSoC5/display.c ****               /*--------------------------------------------------------*/
3236:Generated_Source\PSoC5/display.c ****                  0x00u, 0xa0u, 0x20u, 0x00u, 0x00u, 0x00u, 0x00u, 0x00u}
3237:Generated_Source\PSoC5/display.c ****               };
3238:Generated_Source\PSoC5/display.c **** 
3239:Generated_Source\PSoC5/display.c ****         /* 16-segment ASCII LUT for high byte */
3240:Generated_Source\PSoC5/display.c ****         static const uint8 CYCODE display_16SegASCIIHigh[6][16] =
3241:Generated_Source\PSoC5/display.c ****               {
3242:Generated_Source\PSoC5/display.c ****               /*--------------------------------------------------------*/
3243:Generated_Source\PSoC5/display.c ****               /* 'Space' '!'    '"'    '#'    '$'    '%'    '&'    '''  */
3244:Generated_Source\PSoC5/display.c ****               /*--------------------------------------------------------*/
3245:Generated_Source\PSoC5/display.c ****                 {0x00u, 0x00u, 0x08u, 0x00u, 0x00u, 0x00u, 0x00u, 0x00u,
3246:Generated_Source\PSoC5/display.c ****               /*--------------------------------------------------------*/
3247:Generated_Source\PSoC5/display.c ****               /*  '('    ')'    '*'    '+'    ','    '-'    '.'    '/'  */
3248:Generated_Source\PSoC5/display.c ****               /*--------------------------------------------------------*/
3249:Generated_Source\PSoC5/display.c ****                  0x30u, 0x84u, 0xffu, 0x00u, 0x80u, 0x03u, 0x00u, 0x00u},
3250:Generated_Source\PSoC5/display.c ****               /*--------------------------------------------------------*/   
3251:Generated_Source\PSoC5/display.c ****               /*  '0'    '1'    '2'    '3'    '4'    '5'    '6'    '7'  */
3252:Generated_Source\PSoC5/display.c ****               /*--------------------------------------------------------*/
3253:Generated_Source\PSoC5/display.c ****                 {0x90u, 0x00u, 0x03u, 0x03u, 0x03u, 0x03u, 0x03u, 0x00u,
3254:Generated_Source\PSoC5/display.c ****               /*--------------------------------------------------------*/
3255:Generated_Source\PSoC5/display.c ****               /*  '8'    '9'    ':'    ';'    '<'    '='    '>'    '?'  */
3256:Generated_Source\PSoC5/display.c ****               /*--------------------------------------------------------*/
3257:Generated_Source\PSoC5/display.c ****                  0x03u, 0x03u, 0x00u, 0x00u, 0x00u, 0x03u, 0x00u, 0x42u},
3258:Generated_Source\PSoC5/display.c ****               /*--------------------------------------------------------*/
3259:Generated_Source\PSoC5/display.c ****               /*  '@'    'A'    'B'    'C'    'D'    'E'    'F'    'G'  */
3260:Generated_Source\PSoC5/display.c ****               /*--------------------------------------------------------*/
3261:Generated_Source\PSoC5/display.c ****                 {0x00u, 0x03u, 0x4au, 0x00u, 0x48u, 0x03u, 0x03u, 0x02u,
3262:Generated_Source\PSoC5/display.c ****               /*--------------------------------------------------------*/
3263:Generated_Source\PSoC5/display.c ****               /*  'H'    'I'    'J'    'K'    'L'    'M'    'N'    'O'  */
3264:Generated_Source\PSoC5/display.c ****               /*--------------------------------------------------------*/
3265:Generated_Source\PSoC5/display.c ****                  0x03u, 0x48u, 0x00u, 0x31u, 0x00u, 0x14u, 0x24u, 0x00u},
3266:Generated_Source\PSoC5/display.c ****               /*--------------------------------------------------------*/
3267:Generated_Source\PSoC5/display.c ****               /*  'P'    'Q'    'R'    'S'    'T'    'U'    'V'    'W'  */
3268:Generated_Source\PSoC5/display.c ****               /*--------------------------------------------------------*/
3269:Generated_Source\PSoC5/display.c ****                 {0x03u, 0x20u, 0x23u, 0x03u, 0x48u, 0x00u, 0x90u, 0xa0u,
3270:Generated_Source\PSoC5/display.c ****               /*--------------------------------------------------------*/
3271:Generated_Source\PSoC5/display.c ****               /*  'X'    'Y'    'Z'    '['    '\'    ']'    '^'    '_'  */
3272:Generated_Source\PSoC5/display.c ****               /*--------------------------------------------------------*/
3273:Generated_Source\PSoC5/display.c ****                  0xb4u, 0x54u, 0x90u, 0x00u, 0x00u, 0x00u, 0x00u, 0x00u},
3274:Generated_Source\PSoC5/display.c ****               /*--------------------------------------------------------*/
3275:Generated_Source\PSoC5/display.c ****               /*  '`'    'a'    'b'    'c'    'd'    'e'    'f'    'g'  */
3276:Generated_Source\PSoC5/display.c ****               /*--------------------------------------------------------*/
3277:Generated_Source\PSoC5/display.c ****                 {0x00u, 0x41u, 0x41u, 0x01u, 0x49u, 0x81u, 0x4bu, 0x49u,
3278:Generated_Source\PSoC5/display.c ****               /*--------------------------------------------------------*/
3279:Generated_Source\PSoC5/display.c ****               /*  'h'    'i'    'j'    'k'    'l'    'm'    'n'    'o'  */
3280:Generated_Source\PSoC5/display.c ****               /*--------------------------------------------------------*/
3281:Generated_Source\PSoC5/display.c ****                  0x41u, 0x40u, 0x48u, 0x6au, 0x48u, 0x43u, 0x43u, 0x41u},
3282:Generated_Source\PSoC5/display.c ****               /*--------------------------------------------------------*/
3283:Generated_Source\PSoC5/display.c ****               /*  'p'    'q'    'r'    's'    't'    'u'    'v'    'w'  */
3284:Generated_Source\PSoC5/display.c ****               /*--------------------------------------------------------*/
3285:Generated_Source\PSoC5/display.c ****                 {0x09u, 0x49u, 0x42u, 0x22u, 0x4bu, 0x40u, 0x80u, 0x40u,
ARM GAS  C:\Users\Dell\AppData\Local\Temp\ccFHrQg5.s 			page 115


3286:Generated_Source\PSoC5/display.c ****               /*--------------------------------------------------------*/
3287:Generated_Source\PSoC5/display.c ****               /*  'x'    'y'    'z'    '{'    '|'    '}'    '~'   'DEL' */
3288:Generated_Source\PSoC5/display.c ****               /*--------------------------------------------------------*/
3289:Generated_Source\PSoC5/display.c ****                  0xb4u, 0x49u, 0x81u, 0x00u, 0x00u, 0x00u, 0x00u, 0x00u}
3290:Generated_Source\PSoC5/display.c ****               };
3291:Generated_Source\PSoC5/display.c ****     #else
3292:Generated_Source\PSoC5/display.c ****         /* 16-segment ASCII LUT for low byte */
3293:Generated_Source\PSoC5/display.c ****         static const uint8 CYCODE display_16SegASCIILow[6][16] =
3294:Generated_Source\PSoC5/display.c ****               {
3295:Generated_Source\PSoC5/display.c ****               /*--------------------------------------------------------*/
3296:Generated_Source\PSoC5/display.c ****               /* 'Space' '!'    '"'    '#'    '$'    '%'    '&'    '''  */
3297:Generated_Source\PSoC5/display.c ****               /*--------------------------------------------------------*/
3298:Generated_Source\PSoC5/display.c ****                 {0xffu, 0x3fu, 0x7fu, 0xffu, 0xffu, 0xffu, 0xffu, 0x7fu,
3299:Generated_Source\PSoC5/display.c ****               /*--------------------------------------------------------*/
3300:Generated_Source\PSoC5/display.c ****               /*  '('    ')'    '*'    '+'    ','    '-'    '.'    '/'  */
3301:Generated_Source\PSoC5/display.c ****               /*--------------------------------------------------------*/
3302:Generated_Source\PSoC5/display.c ****                  0xffu, 0xffu, 0xffu, 0xffu, 0xffu, 0xffu, 0xffu, 0xffu},
3303:Generated_Source\PSoC5/display.c ****               /*--------------------------------------------------------*/   
3304:Generated_Source\PSoC5/display.c ****               /*  '0'    '1'    '2'    '3'    '4'    '5'    '6'    '7'  */
3305:Generated_Source\PSoC5/display.c ****               /*--------------------------------------------------------*/
3306:Generated_Source\PSoC5/display.c ****                 {0x00u, 0xf3u, 0x88u, 0xc0u, 0x73u, 0x44u, 0x04u, 0xf0u,
3307:Generated_Source\PSoC5/display.c ****               /*--------------------------------------------------------*/
3308:Generated_Source\PSoC5/display.c ****               /*  '8'    '9'    ':'    ';'    '<'    '='    '>'    '?'  */
3309:Generated_Source\PSoC5/display.c ****               /*--------------------------------------------------------*/
3310:Generated_Source\PSoC5/display.c ****                  0x00u, 0x70u, 0xffu, 0xffu, 0xffu, 0xcfu, 0xffu, 0xf8u},
3311:Generated_Source\PSoC5/display.c ****               /*--------------------------------------------------------*/
3312:Generated_Source\PSoC5/display.c ****               /*  '@'    'A'    'B'    'C'    'D'    'E'    'F'    'G'  */
3313:Generated_Source\PSoC5/display.c ****               /*--------------------------------------------------------*/
3314:Generated_Source\PSoC5/display.c ****                 {0xffu, 0x30u, 0xc0u, 0x0cu, 0xc0u, 0x0cu, 0x3cu, 0x04u,
3315:Generated_Source\PSoC5/display.c ****               /*--------------------------------------------------------*/
3316:Generated_Source\PSoC5/display.c ****               /*  'H'    'I'    'J'    'K'    'L'    'M'    'N'    'O'  */
3317:Generated_Source\PSoC5/display.c ****               /*--------------------------------------------------------*/
3318:Generated_Source\PSoC5/display.c ****                  0x33u, 0xccu, 0x83u, 0x3fu, 0x0fu, 0x33u, 0x33u, 0x00u},
3319:Generated_Source\PSoC5/display.c ****               /*--------------------------------------------------------*/
3320:Generated_Source\PSoC5/display.c ****               /*  'P'    'Q'    'R'    'S'    'T'    'U'    'V'    'W'  */
3321:Generated_Source\PSoC5/display.c ****               /*--------------------------------------------------------*/
3322:Generated_Source\PSoC5/display.c ****                 {0x38u, 0x00u, 0x38u, 0x44u, 0xfcu, 0x03u, 0x3fu, 0x33u,
3323:Generated_Source\PSoC5/display.c ****               /*--------------------------------------------------------*/
3324:Generated_Source\PSoC5/display.c ****               /*  'X'    'Y'    'Z'    '['    '\'    ']'    '^'    '_'  */
3325:Generated_Source\PSoC5/display.c ****               /*--------------------------------------------------------*/
3326:Generated_Source\PSoC5/display.c ****                  0xffu, 0xffu, 0xccu, 0xffu, 0xffu, 0xffu, 0xffu, 0xcfu},
3327:Generated_Source\PSoC5/display.c ****               /*--------------------------------------------------------*/
3328:Generated_Source\PSoC5/display.c ****               /*  '`'    'a'    'b'    'c'    'd'    'e'    'f'    'g'  */
3329:Generated_Source\PSoC5/display.c ****               /*--------------------------------------------------------*/
3330:Generated_Source\PSoC5/display.c ****                 {0xffu, 0x8fu, 0x1fu, 0x9fu, 0x9fu, 0x9fu, 0xfdu, 0x5eu,
3331:Generated_Source\PSoC5/display.c ****               /*--------------------------------------------------------*/
3332:Generated_Source\PSoC5/display.c ****               /*  'h'    'i'    'j'    'k'    'l'    'm'    'n'    'o'  */
3333:Generated_Source\PSoC5/display.c ****               /*--------------------------------------------------------*/
3334:Generated_Source\PSoC5/display.c ****                  0x3fu, 0xffu, 0xdfu, 0xffu, 0xffu, 0xb7u, 0xf7u, 0x9fu},
3335:Generated_Source\PSoC5/display.c ****               /*--------------------------------------------------------*/
3336:Generated_Source\PSoC5/display.c ****               /*  'p'    'q'    'r'    's'    't'    'u'    'v'    'w'  */
3337:Generated_Source\PSoC5/display.c ****               /*--------------------------------------------------------*/
3338:Generated_Source\PSoC5/display.c ****                 {0x3eu, 0x6eu, 0xffu, 0xefu, 0xffu, 0x8fu, 0xbfu, 0x87u,
3339:Generated_Source\PSoC5/display.c ****               /*--------------------------------------------------------*/
3340:Generated_Source\PSoC5/display.c ****               /*  'x'    'y'    'z'    '{'    '|'    '}'    '~'   'DEL' */
3341:Generated_Source\PSoC5/display.c ****               /*--------------------------------------------------------*/
3342:Generated_Source\PSoC5/display.c ****                  0xffu, 0x5fu, 0xdfu, 0xffu, 0xffu, 0xffu, 0xffu, 0xffu}
ARM GAS  C:\Users\Dell\AppData\Local\Temp\ccFHrQg5.s 			page 116


3343:Generated_Source\PSoC5/display.c ****               };
3344:Generated_Source\PSoC5/display.c **** 
3345:Generated_Source\PSoC5/display.c ****         /* 16-segment ASCII LUT for high byte */
3346:Generated_Source\PSoC5/display.c ****         static const uint8 CYCODE display_16SegASCIIHigh[6][16] =
3347:Generated_Source\PSoC5/display.c ****               {
3348:Generated_Source\PSoC5/display.c ****               /*--------------------------------------------------------*/
3349:Generated_Source\PSoC5/display.c ****               /* 'Space' '!'    '"'    '#'    '$'    '%'    '&'    '''  */
3350:Generated_Source\PSoC5/display.c ****               /*--------------------------------------------------------*/
3351:Generated_Source\PSoC5/display.c ****                 {0xffu, 0xffu, 0xf7u, 0xffu, 0xffu, 0xffu, 0xffu, 0xffu,
3352:Generated_Source\PSoC5/display.c ****               /*--------------------------------------------------------*/
3353:Generated_Source\PSoC5/display.c ****               /*  '('    ')'    '*'    '+'    ','    '-'    '.'    '/'  */
3354:Generated_Source\PSoC5/display.c ****               /*--------------------------------------------------------*/
3355:Generated_Source\PSoC5/display.c ****                  0xcfu, 0x7bu, 0x00u, 0xffu, 0x7fu, 0xfcu, 0xffu, 0xffu},
3356:Generated_Source\PSoC5/display.c ****               /*--------------------------------------------------------*/   
3357:Generated_Source\PSoC5/display.c ****               /*  '0'    '1'    '2'    '3'    '4'    '5'    '6'    '7'  */
3358:Generated_Source\PSoC5/display.c ****               /*--------------------------------------------------------*/
3359:Generated_Source\PSoC5/display.c ****                 {0x6fu, 0xffu, 0xfcu, 0xfcu, 0xfcu, 0xfcu, 0xfcu, 0xffu,
3360:Generated_Source\PSoC5/display.c ****               /*--------------------------------------------------------*/
3361:Generated_Source\PSoC5/display.c ****               /*  '8'    '9'    ':'    ';'    '<'    '='    '>'    '?'  */
3362:Generated_Source\PSoC5/display.c ****               /*--------------------------------------------------------*/
3363:Generated_Source\PSoC5/display.c ****                  0xfcu, 0xfcu, 0xffu, 0xffu, 0xffu, 0xfcu, 0xffu, 0xbdu},
3364:Generated_Source\PSoC5/display.c ****               /*--------------------------------------------------------*/
3365:Generated_Source\PSoC5/display.c ****               /*  '@'    'A'    'B'    'C'    'D'    'E'    'F'    'G'  */
3366:Generated_Source\PSoC5/display.c ****               /*--------------------------------------------------------*/
3367:Generated_Source\PSoC5/display.c ****                 {0xffu, 0xfcu, 0xb5u, 0xffu, 0xb7u, 0xfcu, 0xfcu, 0xfdu,
3368:Generated_Source\PSoC5/display.c ****               /*--------------------------------------------------------*/
3369:Generated_Source\PSoC5/display.c ****               /*  'H'    'I'    'J'    'K'    'L'    'M'    'N'    'O'  */
3370:Generated_Source\PSoC5/display.c ****               /*--------------------------------------------------------*/
3371:Generated_Source\PSoC5/display.c ****                  0xfcu, 0xb7u, 0xffu, 0xceu, 0xffu, 0xebu, 0xdbu, 0xffu},
3372:Generated_Source\PSoC5/display.c ****               /*--------------------------------------------------------*/
3373:Generated_Source\PSoC5/display.c ****               /*  'P'    'Q'    'R'    'S'    'T'    'U'    'V'    'W'  */
3374:Generated_Source\PSoC5/display.c ****               /*--------------------------------------------------------*/
3375:Generated_Source\PSoC5/display.c ****                 {0xfcu, 0xdfu, 0xdcu, 0xfcu, 0xb7u, 0xffu, 0x6fu, 0x5fu,
3376:Generated_Source\PSoC5/display.c ****               /*--------------------------------------------------------*/
3377:Generated_Source\PSoC5/display.c ****               /*  'X'    'Y'    'Z'    '['    '\'    ']'    '^'    '_'  */
3378:Generated_Source\PSoC5/display.c ****               /*--------------------------------------------------------*/
3379:Generated_Source\PSoC5/display.c ****                  0x4bu, 0xabu, 0x6fu, 0xffu, 0xffu, 0xffu, 0xffu, 0xffu},
3380:Generated_Source\PSoC5/display.c ****               /*--------------------------------------------------------*/
3381:Generated_Source\PSoC5/display.c ****               /*  '`'    'a'    'b'    'c'    'd'    'e'    'f'    'g'  */
3382:Generated_Source\PSoC5/display.c ****               /*--------------------------------------------------------*/
3383:Generated_Source\PSoC5/display.c ****                 {0xffu, 0xbeu, 0xbeu, 0xfeu, 0xb6u, 0x7eu, 0xb4u, 0xb6u,
3384:Generated_Source\PSoC5/display.c ****               /*--------------------------------------------------------*/
3385:Generated_Source\PSoC5/display.c ****               /*  'h'    'i'    'j'    'k'    'l'    'm'    'n'    'o'  */
3386:Generated_Source\PSoC5/display.c ****               /*--------------------------------------------------------*/
3387:Generated_Source\PSoC5/display.c ****                  0xbeu, 0xbfu, 0xb7u, 0x95u, 0xb7u, 0xbcu, 0xbcu, 0xbeu},
3388:Generated_Source\PSoC5/display.c ****               /*--------------------------------------------------------*/
3389:Generated_Source\PSoC5/display.c ****               /*  'p'    'q'    'r'    's'    't'    'u'    'v'    'w'  */
3390:Generated_Source\PSoC5/display.c ****               /*--------------------------------------------------------*/
3391:Generated_Source\PSoC5/display.c ****                 {0xf6u, 0xb6u, 0xbdu, 0xddu, 0xb4u, 0xbfu, 0x7fu, 0xbfu,
3392:Generated_Source\PSoC5/display.c ****               /*--------------------------------------------------------*/
3393:Generated_Source\PSoC5/display.c ****               /*  'x'    'y'    'z'    '{'    '|'    '}'    '~'   'DEL' */
3394:Generated_Source\PSoC5/display.c ****               /*--------------------------------------------------------*/
3395:Generated_Source\PSoC5/display.c ****                  0x4bu, 0xb6u, 0x7eu, 0xffu, 0xffu, 0xffu, 0xffu, 0xffu}
3396:Generated_Source\PSoC5/display.c ****               };
3397:Generated_Source\PSoC5/display.c ****     #endif /*  display_SEG_DRIVE */
3398:Generated_Source\PSoC5/display.c ****     
3399:Generated_Source\PSoC5/display.c ****     uint8 valLow;
ARM GAS  C:\Users\Dell\AppData\Local\Temp\ccFHrQg5.s 			page 117


3400:Generated_Source\PSoC5/display.c ****     uint8 valHigh;
3401:Generated_Source\PSoC5/display.c ****     uint16 valHexLow;
3402:Generated_Source\PSoC5/display.c ****     uint16 valHexHigh;
3403:Generated_Source\PSoC5/display.c ****     uint16 valHex;
3404:Generated_Source\PSoC5/display.c ****     
3405:Generated_Source\PSoC5/display.c ****     valLow = (uint8)((uint8)input & display_NIBBLE_MASK);
 2914              		.loc 1 3405 0
 2915 0000 00F00F03 		and	r3, r0, #15
 2916              	.LVL370:
3406:Generated_Source\PSoC5/display.c ****     
3407:Generated_Source\PSoC5/display.c ****     /* valHigh used to access the row of LUT */
3408:Generated_Source\PSoC5/display.c ****     valHigh = (uint8)((uint8)input >> display_SHIFT_NIBBLE);
 2917              		.loc 1 3408 0
 2918 0004 0009     		lsrs	r0, r0, #4
 2919              	.LVL371:
3409:Generated_Source\PSoC5/display.c ****     
3410:Generated_Source\PSoC5/display.c ****     /* Check if the high nibble is within valid ASCII range */
3411:Generated_Source\PSoC5/display.c ****     if ((valHigh > display_SEG_ASCII_LIM_LO) && (valHigh < display_SEG_ASCII_LIM_HI))
 2920              		.loc 1 3411 0
 2921 0006 0238     		subs	r0, r0, #2
 2922              	.LVL372:
 2923 0008 C0B2     		uxtb	r0, r0
 2924              	.LVL373:
 2925 000a 0528     		cmp	r0, #5
 2926 000c 0AD8     		bhi	.L317
 2927              	.LVL374:
3412:Generated_Source\PSoC5/display.c ****     {
3413:Generated_Source\PSoC5/display.c ****         valHigh = valHigh - display_SEG_ASCII_OFFSET;
3414:Generated_Source\PSoC5/display.c ****         
3415:Generated_Source\PSoC5/display.c ****         /* Get the 16-seg hex value from high and low byte LUTs */
3416:Generated_Source\PSoC5/display.c ****         valHexHigh = (uint16)((uint16)display_16SegASCIIHigh[valHigh][valLow] << display_SHIFT_BYTE
 2928              		.loc 1 3416 0
 2929 000e 074A     		ldr	r2, .L318
 2930 0010 02EB0010 		add	r0, r2, r0, lsl #4
 2931              	.LVL375:
 2932 0014 0344     		add	r3, r3, r0
 2933              	.LVL376:
 2934 0016 93F87001 		ldrb	r0, [r3, #368]	@ zero_extendqisi2
 2935              	.LVL377:
3417:Generated_Source\PSoC5/display.c ****         valHexLow = (uint16)display_16SegASCIILow[valHigh][valLow];
 2936              		.loc 1 3417 0
 2937 001a 93F8D031 		ldrb	r3, [r3, #464]	@ zero_extendqisi2
 2938              	.LVL378:
3418:Generated_Source\PSoC5/display.c ****         
3419:Generated_Source\PSoC5/display.c ****         valHex = valHexHigh | valHexLow;
 2939              		.loc 1 3419 0
 2940 001e 43EA0020 		orr	r0, r3, r0, lsl #8
 2941              	.LVL379:
 2942 0022 7047     		bx	lr
 2943              	.LVL380:
 2944              	.L317:
3420:Generated_Source\PSoC5/display.c ****     }
3421:Generated_Source\PSoC5/display.c ****     else
3422:Generated_Source\PSoC5/display.c ****     {
3423:Generated_Source\PSoC5/display.c ****         valHex = display_CLEAR_16;
 2945              		.loc 1 3423 0
 2946 0024 4FF6FF70 		movw	r0, #65535
ARM GAS  C:\Users\Dell\AppData\Local\Temp\ccFHrQg5.s 			page 118


 2947              	.LVL381:
3424:Generated_Source\PSoC5/display.c ****     }
3425:Generated_Source\PSoC5/display.c ****         
3426:Generated_Source\PSoC5/display.c ****     return(valHex);
3427:Generated_Source\PSoC5/display.c **** }
 2948              		.loc 1 3427 0
 2949 0028 7047     		bx	lr
 2950              	.L319:
 2951 002a 00BF     		.align	2
 2952              	.L318:
 2953 002c 00000000 		.word	.LANCHOR2
 2954              		.cfi_endproc
 2955              	.LFE39:
 2956              		.size	display_EncodeChar16Seg, .-display_EncodeChar16Seg
 2957              		.section	.text.display_Write16SegNumberDec,"ax",%progbits
 2958              		.align	2
 2959              		.global	display_Write16SegNumberDec
 2960              		.thumb
 2961              		.thumb_func
 2962              		.type	display_Write16SegNumberDec, %function
 2963              	display_Write16SegNumberDec:
 2964              	.LFB26:
1959:Generated_Source\PSoC5/display.c ****     uint8 i;
 2965              		.loc 1 1959 0
 2966              		.cfi_startproc
 2967              		@ args = 0, pretend = 0, frame = 16
 2968              		@ frame_needed = 0, uses_anonymous_args = 0
 2969              	.LVL382:
 2970 0000 2DE9F043 		push	{r4, r5, r6, r7, r8, r9, lr}
 2971              		.cfi_def_cfa_offset 28
 2972              		.cfi_offset 4, -28
 2973              		.cfi_offset 5, -24
 2974              		.cfi_offset 6, -20
 2975              		.cfi_offset 7, -16
 2976              		.cfi_offset 8, -12
 2977              		.cfi_offset 9, -8
 2978              		.cfi_offset 14, -4
 2979 0004 85B0     		sub	sp, sp, #20
 2980              		.cfi_def_cfa_offset 48
 2981 0006 0D46     		mov	r5, r1
 2982 0008 1446     		mov	r4, r2
 2983 000a 1E46     		mov	r6, r3
 2984              	.LVL383:
1965:Generated_Source\PSoC5/display.c ****     uint32 numberVal;
 2985              		.loc 1 1965 0
 2986 000c 0023     		movs	r3, #0
 2987              	.LVL384:
 2988 000e 0093     		str	r3, [sp]
 2989 0010 0193     		str	r3, [sp, #4]
 2990 0012 0293     		str	r3, [sp, #8]
 2991 0014 0393     		str	r3, [sp, #12]
1969:Generated_Source\PSoC5/display.c ****     {
 2992              		.loc 1 1969 0
 2993 0016 0028     		cmp	r0, #0
 2994 0018 02DB     		blt	.L321
1971:Generated_Source\PSoC5/display.c ****         numberSign = display_UNSIGNED;
 2995              		.loc 1 1971 0
ARM GAS  C:\Users\Dell\AppData\Local\Temp\ccFHrQg5.s 			page 119


 2996 001a 0246     		mov	r2, r0
 2997              	.LVL385:
1972:Generated_Source\PSoC5/display.c ****     }
 2998              		.loc 1 1972 0
 2999 001c 1F46     		mov	r7, r3
 3000 001e 01E0     		b	.L322
 3001              	.LVL386:
 3002              	.L321:
1976:Generated_Source\PSoC5/display.c ****         numberSign = display_SIGNED;
 3003              		.loc 1 1976 0
 3004 0020 4242     		negs	r2, r0
 3005              	.LVL387:
1977:Generated_Source\PSoC5/display.c ****     }
 3006              		.loc 1 1977 0
 3007 0022 0127     		movs	r7, #1
 3008              	.LVL388:
 3009              	.L322:
1981:Generated_Source\PSoC5/display.c ****     {
 3010              		.loc 1 1981 0
 3011 0024 2346     		mov	r3, r4
 3012 0026 15E0     		b	.L323
 3013              	.LVL389:
 3014              	.L324:
1983:Generated_Source\PSoC5/display.c ****         bufArray[i-1u] = display_EncodeNumber16Seg(selectVal);
 3015              		.loc 1 1983 0 discriminator 3
 3016 0028 4248     		ldr	r0, .L344
 3017 002a A0FB0210 		umull	r1, r0, r0, r2
 3018 002e C008     		lsrs	r0, r0, #3
 3019 0030 8046     		mov	r8, r0
 3020 0032 00EB8000 		add	r0, r0, r0, lsl #2
 3021 0036 4100     		lsls	r1, r0, #1
 3022 0038 501A     		subs	r0, r2, r1
 3023              	.LVL390:
1984:Generated_Source\PSoC5/display.c ****         numberVal = numberVal / 10u;
 3024              		.loc 1 1984 0 discriminator 3
 3025 003a 03F1FF39 		add	r9, r3, #-1
 3026 003e C0B2     		uxtb	r0, r0
 3027 0040 FFF7FEFF 		bl	display_EncodeNumber16Seg
 3028              	.LVL391:
 3029 0044 04AB     		add	r3, sp, #16
 3030 0046 03EB4903 		add	r3, r3, r9, lsl #1
 3031 004a 23F8100C 		strh	r0, [r3, #-16]	@ movhi
1985:Generated_Source\PSoC5/display.c ****     }
 3032              		.loc 1 1985 0 discriminator 3
 3033 004e 4246     		mov	r2, r8
 3034              	.LVL392:
1981:Generated_Source\PSoC5/display.c ****     {
 3035              		.loc 1 1981 0 discriminator 3
 3036 0050 5FFA89F3 		uxtb	r3, r9
 3037              	.LVL393:
 3038              	.L323:
1981:Generated_Source\PSoC5/display.c ****     {
 3039              		.loc 1 1981 0 is_stmt 0 discriminator 1
 3040 0054 002B     		cmp	r3, #0
 3041 0056 E7D1     		bne	.L324
1989:Generated_Source\PSoC5/display.c ****     {
 3042              		.loc 1 1989 0 is_stmt 1
ARM GAS  C:\Users\Dell\AppData\Local\Temp\ccFHrQg5.s 			page 120


 3043 0058 022E     		cmp	r6, #2
 3044 005a 33D1     		bne	.L341
1991:Generated_Source\PSoC5/display.c ****         {
 3045              		.loc 1 1991 0
 3046 005c B7B3     		cbz	r7, .L326
1994:Generated_Source\PSoC5/display.c ****         }
 3047              		.loc 1 1994 0
 3048 005e 2D20     		movs	r0, #45
 3049 0060 FFF7FEFF 		bl	display_EncodeChar16Seg
 3050              	.LVL394:
 3051 0064 ADF80000 		strh	r0, [sp]	@ movhi
 3052 0068 30E0     		b	.L326
 3053              	.LVL395:
 3054              	.L330:
2001:Generated_Source\PSoC5/display.c ****             {
 3055              		.loc 1 2001 0
 3056 006a 9846     		mov	r8, r3
 3057 006c 04A9     		add	r1, sp, #16
 3058 006e 01EB4301 		add	r1, r1, r3, lsl #1
 3059 0072 31F8101C 		ldrh	r1, [r1, #-16]
 3060 0076 B1F5DE4F 		cmp	r1, #28416
 3061 007a 14D0     		beq	.L327
2003:Generated_Source\PSoC5/display.c ****                 {
 3062              		.loc 1 2003 0
 3063 007c 37B3     		cbz	r7, .L326
2005:Generated_Source\PSoC5/display.c ****                     {
 3064              		.loc 1 2005 0
 3065 007e 43B9     		cbnz	r3, .L328
2008:Generated_Source\PSoC5/display.c ****                     }
 3066              		.loc 1 2008 0
 3067 0080 2D20     		movs	r0, #45
 3068 0082 FFF7FEFF 		bl	display_EncodeChar16Seg
 3069              	.LVL396:
 3070 0086 04AB     		add	r3, sp, #16
 3071 0088 03EB4808 		add	r8, r3, r8, lsl #1
 3072 008c 28F8100C 		strh	r0, [r8, #-16]	@ movhi
 3073 0090 1CE0     		b	.L326
 3074              	.LVL397:
 3075              	.L328:
2013:Generated_Source\PSoC5/display.c ****                     }
 3076              		.loc 1 2013 0
 3077 0092 5F1E     		subs	r7, r3, #1
 3078              	.LVL398:
 3079 0094 2D20     		movs	r0, #45
 3080 0096 FFF7FEFF 		bl	display_EncodeChar16Seg
 3081              	.LVL399:
 3082 009a 04AB     		add	r3, sp, #16
 3083 009c 03EB4703 		add	r3, r3, r7, lsl #1
 3084 00a0 23F8100C 		strh	r0, [r3, #-16]	@ movhi
 3085 00a4 12E0     		b	.L326
 3086              	.LVL400:
 3087              	.L327:
2021:Generated_Source\PSoC5/display.c ****                 {
 3088              		.loc 1 2021 0
 3089 00a6 611E     		subs	r1, r4, #1
 3090 00a8 8A42     		cmp	r2, r1
 3091 00aa 08D0     		beq	.L329
ARM GAS  C:\Users\Dell\AppData\Local\Temp\ccFHrQg5.s 			page 121


2024:Generated_Source\PSoC5/display.c ****                     zeroCount++;
 3092              		.loc 1 2024 0
 3093 00ac 04A9     		add	r1, sp, #16
 3094 00ae 01EB4308 		add	r8, r1, r3, lsl #1
 3095 00b2 4FF6FF71 		movw	r1, #65535
 3096 00b6 28F8101C 		strh	r1, [r8, #-16]	@ movhi
2025:Generated_Source\PSoC5/display.c ****                 }
 3097              		.loc 1 2025 0
 3098 00ba 0132     		adds	r2, r2, #1
 3099              	.LVL401:
 3100 00bc D2B2     		uxtb	r2, r2
 3101              	.LVL402:
 3102              	.L329:
1999:Generated_Source\PSoC5/display.c ****         {
 3103              		.loc 1 1999 0 discriminator 2
 3104 00be 0133     		adds	r3, r3, #1
 3105              	.LVL403:
 3106 00c0 DBB2     		uxtb	r3, r3
 3107              	.LVL404:
 3108 00c2 01E0     		b	.L325
 3109              	.LVL405:
 3110              	.L341:
 3111 00c4 0022     		movs	r2, #0
 3112              	.LVL406:
 3113 00c6 1346     		mov	r3, r2
 3114              	.LVL407:
 3115              	.L325:
1999:Generated_Source\PSoC5/display.c ****         {
 3116              		.loc 1 1999 0 is_stmt 0 discriminator 1
 3117 00c8 A342     		cmp	r3, r4
 3118 00ca CED3     		bcc	.L330
 3119              	.LVL408:
 3120              	.L326:
2034:Generated_Source\PSoC5/display.c ****     {
 3121              		.loc 1 2034 0 is_stmt 1
 3122 00cc 012E     		cmp	r6, #1
 3123 00ce 2CD1     		bne	.L332
 3124 00d0 11E0     		b	.L342
 3125              	.LVL409:
 3126              	.L335:
2038:Generated_Source\PSoC5/display.c ****             {
 3127              		.loc 1 2038 0
 3128 00d2 04AA     		add	r2, sp, #16
 3129 00d4 02EB4302 		add	r2, r2, r3, lsl #1
 3130 00d8 32F8102C 		ldrh	r2, [r2, #-16]
 3131 00dc 4FF6FF71 		movw	r1, #65535
 3132 00e0 8A42     		cmp	r2, r1
 3133 00e2 05D0     		beq	.L333
2040:Generated_Source\PSoC5/display.c ****                 {
 3134              		.loc 1 2040 0
 3135 00e4 012D     		cmp	r5, #1
 3136 00e6 01D8     		bhi	.L334
2043:Generated_Source\PSoC5/display.c ****                 #if (display_NUM_SEG > 8u)
 3137              		.loc 1 2043 0
 3138 00e8 1349     		ldr	r1, .L344+4
 3139 00ea 4A55     		strb	r2, [r1, r5]
 3140              	.L334:
ARM GAS  C:\Users\Dell\AppData\Local\Temp\ccFHrQg5.s 			page 122


2048:Generated_Source\PSoC5/display.c ****             }
 3141              		.loc 1 2048 0
 3142 00ec 0135     		adds	r5, r5, #1
 3143              	.LVL410:
 3144 00ee EDB2     		uxtb	r5, r5
 3145              	.LVL411:
 3146              	.L333:
2036:Generated_Source\PSoC5/display.c ****         {
 3147              		.loc 1 2036 0 discriminator 2
 3148 00f0 0133     		adds	r3, r3, #1
 3149              	.LVL412:
 3150 00f2 DBB2     		uxtb	r3, r3
 3151              	.LVL413:
 3152 00f4 00E0     		b	.L331
 3153              	.LVL414:
 3154              	.L342:
 3155 00f6 0023     		movs	r3, #0
 3156              	.L331:
 3157              	.LVL415:
2036:Generated_Source\PSoC5/display.c ****         {
 3158              		.loc 1 2036 0 is_stmt 0 discriminator 1
 3159 00f8 A342     		cmp	r3, r4
 3160 00fa EAD3     		bcc	.L335
 3161 00fc 04E0     		b	.L336
 3162              	.LVL416:
 3163              	.L337:
2055:Generated_Source\PSoC5/display.c ****             #if (display_NUM_SEG > 8u)
 3164              		.loc 1 2055 0 is_stmt 1
 3165 00fe FF22     		movs	r2, #255
 3166 0100 0D4B     		ldr	r3, .L344+4
 3167 0102 5A55     		strb	r2, [r3, r5]
2060:Generated_Source\PSoC5/display.c ****         }
 3168              		.loc 1 2060 0
 3169 0104 0135     		adds	r5, r5, #1
 3170              	.LVL417:
 3171 0106 EDB2     		uxtb	r5, r5
 3172              	.LVL418:
 3173              	.L336:
2052:Generated_Source\PSoC5/display.c ****         {
 3174              		.loc 1 2052 0
 3175 0108 A542     		cmp	r5, r4
 3176 010a F8D3     		bcc	.L337
 3177 010c 0FE0     		b	.L320
 3178              	.LVL419:
 3179              	.L340:
2067:Generated_Source\PSoC5/display.c ****             {
 3180              		.loc 1 2067 0
 3181 010e 6319     		adds	r3, r4, r5
 3182 0110 013B     		subs	r3, r3, #1
 3183 0112 012B     		cmp	r3, #1
 3184 0114 07D8     		bhi	.L339
2069:Generated_Source\PSoC5/display.c ****             #if (display_NUM_SEG > 8u)
 3185              		.loc 1 2069 0
 3186 0116 621E     		subs	r2, r4, #1
 3187 0118 04A9     		add	r1, sp, #16
 3188 011a 01EB4202 		add	r2, r1, r2, lsl #1
 3189 011e 12F8101C 		ldrb	r1, [r2, #-16]	@ zero_extendqisi2
ARM GAS  C:\Users\Dell\AppData\Local\Temp\ccFHrQg5.s 			page 123


 3190 0122 054A     		ldr	r2, .L344+4
 3191 0124 D154     		strb	r1, [r2, r3]
 3192              	.L339:
2065:Generated_Source\PSoC5/display.c ****         {
 3193              		.loc 1 2065 0 discriminator 2
 3194 0126 013C     		subs	r4, r4, #1
 3195              	.LVL420:
 3196 0128 E4B2     		uxtb	r4, r4
 3197              	.LVL421:
 3198              	.L332:
2065:Generated_Source\PSoC5/display.c ****         {
 3199              		.loc 1 2065 0 is_stmt 0 discriminator 1
 3200 012a 002C     		cmp	r4, #0
 3201 012c EFD1     		bne	.L340
 3202              	.LVL422:
 3203              	.L320:
2076:Generated_Source\PSoC5/display.c **** 
 3204              		.loc 1 2076 0 is_stmt 1
 3205 012e 05B0     		add	sp, sp, #20
 3206              		.cfi_def_cfa_offset 28
 3207              		@ sp needed
 3208 0130 BDE8F083 		pop	{r4, r5, r6, r7, r8, r9, pc}
 3209              	.LVL423:
 3210              	.L345:
 3211              		.align	2
 3212              	.L344:
 3213 0134 CDCCCCCC 		.word	-858993459
 3214 0138 00000000 		.word	display_segLBuffer
 3215              		.cfi_endproc
 3216              	.LFE26:
 3217              		.size	display_Write16SegNumberDec, .-display_Write16SegNumberDec
 3218              		.section	.text.display_WriteString16Seg,"ax",%progbits
 3219              		.align	2
 3220              		.global	display_WriteString16Seg
 3221              		.thumb
 3222              		.thumb_func
 3223              		.type	display_WriteString16Seg, %function
 3224              	display_WriteString16Seg:
 3225              	.LFB28:
2215:Generated_Source\PSoC5/display.c ****     uint8 currPosition;
 3226              		.loc 1 2215 0
 3227              		.cfi_startproc
 3228              		@ args = 0, pretend = 0, frame = 0
 3229              		@ frame_needed = 0, uses_anonymous_args = 0
 3230              	.LVL424:
 3231 0000 F8B5     		push	{r3, r4, r5, r6, r7, lr}
 3232              		.cfi_def_cfa_offset 24
 3233              		.cfi_offset 3, -24
 3234              		.cfi_offset 4, -20
 3235              		.cfi_offset 5, -16
 3236              		.cfi_offset 6, -12
 3237              		.cfi_offset 7, -8
 3238              		.cfi_offset 14, -4
 3239 0002 0746     		mov	r7, r0
 3240 0004 0C46     		mov	r4, r1
 3241              	.LVL425:
2221:Generated_Source\PSoC5/display.c ****     
ARM GAS  C:\Users\Dell\AppData\Local\Temp\ccFHrQg5.s 			page 124


 3242              		.loc 1 2221 0
 3243 0006 FFF7FEFF 		bl	strlen
 3244              	.LVL426:
 3245 000a 2044     		add	r0, r0, r4
 3246 000c C6B2     		uxtb	r6, r0
 3247              	.LVL427:
2218:Generated_Source\PSoC5/display.c ****     uint16 charDisplay;
 3248              		.loc 1 2218 0
 3249 000e 0025     		movs	r5, #0
2223:Generated_Source\PSoC5/display.c ****     {
 3250              		.loc 1 2223 0
 3251 0010 0AE0     		b	.L347
 3252              	.LVL428:
 3253              	.L349:
2225:Generated_Source\PSoC5/display.c ****         {
 3254              		.loc 1 2225 0
 3255 0012 B442     		cmp	r4, r6
 3256 0014 06D2     		bcs	.L348
2227:Generated_Source\PSoC5/display.c ****             display_segLBuffer[currPosition] = LO8(charDisplay);
 3257              		.loc 1 2227 0
 3258 0016 785D     		ldrb	r0, [r7, r5]	@ zero_extendqisi2
 3259 0018 FFF7FEFF 		bl	display_EncodeChar16Seg
 3260              	.LVL429:
2228:Generated_Source\PSoC5/display.c ****             #if (display_NUM_SEG > 8u)
 3261              		.loc 1 2228 0
 3262 001c 044B     		ldr	r3, .L351
 3263 001e 1855     		strb	r0, [r3, r4]
2232:Generated_Source\PSoC5/display.c ****         }
 3264              		.loc 1 2232 0
 3265 0020 0135     		adds	r5, r5, #1
 3266              	.LVL430:
 3267 0022 EDB2     		uxtb	r5, r5
 3268              	.LVL431:
 3269              	.L348:
2223:Generated_Source\PSoC5/display.c ****     {
 3270              		.loc 1 2223 0 discriminator 2
 3271 0024 0134     		adds	r4, r4, #1
 3272              	.LVL432:
 3273 0026 E4B2     		uxtb	r4, r4
 3274              	.LVL433:
 3275              	.L347:
2223:Generated_Source\PSoC5/display.c ****     {
 3276              		.loc 1 2223 0 is_stmt 0 discriminator 1
 3277 0028 012C     		cmp	r4, #1
 3278 002a F2D9     		bls	.L349
2235:Generated_Source\PSoC5/display.c **** 
 3279              		.loc 1 2235 0 is_stmt 1
 3280 002c F8BD     		pop	{r3, r4, r5, r6, r7, pc}
 3281              	.LVL434:
 3282              	.L352:
 3283 002e 00BF     		.align	2
 3284              	.L351:
 3285 0030 00000000 		.word	display_segLBuffer
 3286              		.cfi_endproc
 3287              	.LFE28:
 3288              		.size	display_WriteString16Seg, .-display_WriteString16Seg
 3289              		.section	.text.display_PutChar16Seg,"ax",%progbits
ARM GAS  C:\Users\Dell\AppData\Local\Temp\ccFHrQg5.s 			page 125


 3290              		.align	2
 3291              		.global	display_PutChar16Seg
 3292              		.thumb
 3293              		.thumb_func
 3294              		.type	display_PutChar16Seg, %function
 3295              	display_PutChar16Seg:
 3296              	.LFB29:
2259:Generated_Source\PSoC5/display.c ****     uint16 charDisplay;
 3297              		.loc 1 2259 0
 3298              		.cfi_startproc
 3299              		@ args = 0, pretend = 0, frame = 0
 3300              		@ frame_needed = 0, uses_anonymous_args = 0
 3301              	.LVL435:
2262:Generated_Source\PSoC5/display.c ****     {
 3302              		.loc 1 2262 0
 3303 0000 0129     		cmp	r1, #1
 3304 0002 06D8     		bhi	.L356
2259:Generated_Source\PSoC5/display.c ****     uint16 charDisplay;
 3305              		.loc 1 2259 0
 3306 0004 10B5     		push	{r4, lr}
 3307              		.cfi_def_cfa_offset 8
 3308              		.cfi_offset 4, -8
 3309              		.cfi_offset 14, -4
 3310 0006 0C46     		mov	r4, r1
2264:Generated_Source\PSoC5/display.c ****         display_segLBuffer[position] = LO8(charDisplay);
 3311              		.loc 1 2264 0
 3312 0008 FFF7FEFF 		bl	display_EncodeChar16Seg
 3313              	.LVL436:
2265:Generated_Source\PSoC5/display.c ****         #if (display_NUM_SEG > 8u)
 3314              		.loc 1 2265 0
 3315 000c 014B     		ldr	r3, .L357
 3316 000e 1855     		strb	r0, [r3, r4]
 3317 0010 10BD     		pop	{r4, pc}
 3318              	.LVL437:
 3319              	.L356:
 3320              		.cfi_def_cfa_offset 0
 3321              		.cfi_restore 4
 3322              		.cfi_restore 14
 3323 0012 7047     		bx	lr
 3324              	.L358:
 3325              		.align	2
 3326              	.L357:
 3327 0014 00000000 		.word	display_segLBuffer
 3328              		.cfi_endproc
 3329              	.LFE29:
 3330              		.size	display_PutChar16Seg, .-display_PutChar16Seg
 3331              		.section	.text.display_SetBrightness,"ax",%progbits
 3332              		.align	2
 3333              		.global	display_SetBrightness
 3334              		.thumb
 3335              		.thumb_func
 3336              		.type	display_SetBrightness, %function
 3337              	display_SetBrightness:
 3338              	.LFB40:
3428:Generated_Source\PSoC5/display.c **** 
3429:Generated_Source\PSoC5/display.c **** 
3430:Generated_Source\PSoC5/display.c **** #if (display_BRIGHTNESS_EN == display_ENABLED)
ARM GAS  C:\Users\Dell\AppData\Local\Temp\ccFHrQg5.s 			page 126


3431:Generated_Source\PSoC5/display.c **** 
3432:Generated_Source\PSoC5/display.c **** 
3433:Generated_Source\PSoC5/display.c **** /*******************************************************************************
3434:Generated_Source\PSoC5/display.c **** * Function Name: display_SetBrightness
3435:Generated_Source\PSoC5/display.c **** ********************************************************************************
3436:Generated_Source\PSoC5/display.c **** *
3437:Generated_Source\PSoC5/display.c **** * Summary:
3438:Generated_Source\PSoC5/display.c **** *  Sets the desired brightness value (0 = display off; 255 = display at full
3439:Generated_Source\PSoC5/display.c **** *  brightness) for the chosen display by applying a PWM duty cycle to that
3440:Generated_Source\PSoC5/display.c **** *  displays common when the display is active.
3441:Generated_Source\PSoC5/display.c **** *
3442:Generated_Source\PSoC5/display.c **** * Parameters:
3443:Generated_Source\PSoC5/display.c **** *  uint8 bright: The brightness value by duty cycle, between 1 and 255.
3444:Generated_Source\PSoC5/display.c **** *  uint8 position: The position in which to set the brightness.
3445:Generated_Source\PSoC5/display.c **** *
3446:Generated_Source\PSoC5/display.c **** * Return:
3447:Generated_Source\PSoC5/display.c **** *  None
3448:Generated_Source\PSoC5/display.c **** *
3449:Generated_Source\PSoC5/display.c **** * Side effects:
3450:Generated_Source\PSoC5/display.c **** *  None
3451:Generated_Source\PSoC5/display.c **** *
3452:Generated_Source\PSoC5/display.c **** *******************************************************************************/
3453:Generated_Source\PSoC5/display.c **** void display_SetBrightness(uint8 bright, uint8 position)
3454:Generated_Source\PSoC5/display.c **** 
3455:Generated_Source\PSoC5/display.c **** {   
 3339              		.loc 1 3455 0
 3340              		.cfi_startproc
 3341              		@ args = 0, pretend = 0, frame = 0
 3342              		@ frame_needed = 0, uses_anonymous_args = 0
 3343              		@ link register save eliminated.
 3344              	.LVL438:
 3345 0000 10B4     		push	{r4}
 3346              		.cfi_def_cfa_offset 4
 3347              		.cfi_offset 4, -4
3456:Generated_Source\PSoC5/display.c ****     #if(display_COM_DRIVE == display_HIGH)
3457:Generated_Source\PSoC5/display.c ****         static const uint8 CYCODE display_tempCom[16] = {0x00u, 0x01u, 0x00u, 0x02u, 0x00u, 0x04u,
3458:Generated_Source\PSoC5/display.c ****                                                                   0x00u, 0x08u, 0x00u, 0x10u, 0x00u
3459:Generated_Source\PSoC5/display.c ****                                                                   0x00u, 0x40u, 0x00u, 0x80u};
3460:Generated_Source\PSoC5/display.c ****     #else
3461:Generated_Source\PSoC5/display.c ****         static const uint8 CYCODE display_tempCom[16] = {0xFFu, 0xFEu, 0xFFu, 0xFDu, 0xFFu, 0xFBu,
3462:Generated_Source\PSoC5/display.c ****                                                                   0xFFu, 0xF7u, 0xFFu, 0xEFu, 0xFFu
3463:Generated_Source\PSoC5/display.c ****                                                                   0xFFu, 0xBFu, 0xFFu, 0x7Fu};
3464:Generated_Source\PSoC5/display.c ****     #endif /* (display_COM_DRIVE == display_HIGH) */
3465:Generated_Source\PSoC5/display.c ****     
3466:Generated_Source\PSoC5/display.c ****     if(bright == 0u)
 3348              		.loc 1 3466 0
 3349 0002 0446     		mov	r4, r0
 3350 0004 30B9     		cbnz	r0, .L360
3467:Generated_Source\PSoC5/display.c ****     {
3468:Generated_Source\PSoC5/display.c ****         /* Turn off the commons */
3469:Generated_Source\PSoC5/display.c ****         display_comBuffer[(uint8)((uint8)position << 1u) + 1u] = display_CLEAR;
 3351              		.loc 1 3469 0
 3352 0006 4B00     		lsls	r3, r1, #1
 3353 0008 DBB2     		uxtb	r3, r3
 3354 000a 0133     		adds	r3, r3, #1
 3355 000c FF20     		movs	r0, #255
 3356              	.LVL439:
ARM GAS  C:\Users\Dell\AppData\Local\Temp\ccFHrQg5.s 			page 127


 3357 000e 084A     		ldr	r2, .L363
 3358 0010 D054     		strb	r0, [r2, r3]
 3359 0012 08E0     		b	.L361
 3360              	.LVL440:
 3361              	.L360:
3470:Generated_Source\PSoC5/display.c ****     }
3471:Generated_Source\PSoC5/display.c ****     else
3472:Generated_Source\PSoC5/display.c ****     {
3473:Generated_Source\PSoC5/display.c ****         /* Restore the commons */
3474:Generated_Source\PSoC5/display.c ****         display_comBuffer[(uint8)((uint8)position << 1u) + 1u]
 3362              		.loc 1 3474 0
 3363 0014 4B00     		lsls	r3, r1, #1
 3364 0016 DBB2     		uxtb	r3, r3
3475:Generated_Source\PSoC5/display.c ****             = display_tempCom[(uint8)((uint8)position << 1u) + 1u];
 3365              		.loc 1 3475 0
 3366 0018 0133     		adds	r3, r3, #1
 3367 001a 064A     		ldr	r2, .L363+4
 3368 001c 1A44     		add	r2, r2, r3
 3369 001e 92F83002 		ldrb	r0, [r2, #560]	@ zero_extendqisi2
 3370              	.LVL441:
 3371 0022 034A     		ldr	r2, .L363
 3372 0024 D054     		strb	r0, [r2, r3]
 3373              	.L361:
3476:Generated_Source\PSoC5/display.c ****     }
3477:Generated_Source\PSoC5/display.c ****     
3478:Generated_Source\PSoC5/display.c ****     /* Update the brightness register */
3479:Generated_Source\PSoC5/display.c ****     display_brightnessReg[position] = bright;
 3374              		.loc 1 3479 0
 3375 0026 044B     		ldr	r3, .L363+8
 3376 0028 1944     		add	r1, r1, r3
 3377              	.LVL442:
 3378 002a 0C74     		strb	r4, [r1, #16]
3480:Generated_Source\PSoC5/display.c **** }
 3379              		.loc 1 3480 0
 3380 002c 10BC     		pop	{r4}
 3381              		.cfi_restore 4
 3382              		.cfi_def_cfa_offset 0
 3383 002e 7047     		bx	lr
 3384              	.L364:
 3385              		.align	2
 3386              	.L363:
 3387 0030 00000000 		.word	.LANCHOR1
 3388 0034 00000000 		.word	.LANCHOR2
 3389 0038 00000000 		.word	.LANCHOR0
 3390              		.cfi_endproc
 3391              	.LFE40:
 3392              		.size	display_SetBrightness, .-display_SetBrightness
 3393              		.section	.text.display_GetBrightness,"ax",%progbits
 3394              		.align	2
 3395              		.global	display_GetBrightness
 3396              		.thumb
 3397              		.thumb_func
 3398              		.type	display_GetBrightness, %function
 3399              	display_GetBrightness:
 3400              	.LFB41:
3481:Generated_Source\PSoC5/display.c **** 
3482:Generated_Source\PSoC5/display.c **** 
ARM GAS  C:\Users\Dell\AppData\Local\Temp\ccFHrQg5.s 			page 128


3483:Generated_Source\PSoC5/display.c **** /*******************************************************************************
3484:Generated_Source\PSoC5/display.c **** * Function Name: display_GetBrightness
3485:Generated_Source\PSoC5/display.c **** ********************************************************************************
3486:Generated_Source\PSoC5/display.c **** *
3487:Generated_Source\PSoC5/display.c **** * Summary:
3488:Generated_Source\PSoC5/display.c **** *  Returns the brightness value for the specific display location.
3489:Generated_Source\PSoC5/display.c **** *
3490:Generated_Source\PSoC5/display.c **** * Parameters:
3491:Generated_Source\PSoC5/display.c **** *  uint8 position: Position in which to return the brightness value.
3492:Generated_Source\PSoC5/display.c **** *
3493:Generated_Source\PSoC5/display.c **** * Return:
3494:Generated_Source\PSoC5/display.c **** *  None
3495:Generated_Source\PSoC5/display.c **** *
3496:Generated_Source\PSoC5/display.c **** * Side effects:
3497:Generated_Source\PSoC5/display.c **** *  None
3498:Generated_Source\PSoC5/display.c **** *
3499:Generated_Source\PSoC5/display.c **** *******************************************************************************/
3500:Generated_Source\PSoC5/display.c **** uint8 display_GetBrightness(uint8 position) 
3501:Generated_Source\PSoC5/display.c **** {
 3401              		.loc 1 3501 0
 3402              		.cfi_startproc
 3403              		@ args = 0, pretend = 0, frame = 0
 3404              		@ frame_needed = 0, uses_anonymous_args = 0
 3405              		@ link register save eliminated.
 3406              	.LVL443:
3502:Generated_Source\PSoC5/display.c ****     return(display_brightnessReg[position]);
 3407              		.loc 1 3502 0
 3408 0000 014B     		ldr	r3, .L366
 3409 0002 1844     		add	r0, r0, r3
 3410              	.LVL444:
3503:Generated_Source\PSoC5/display.c **** }
 3411              		.loc 1 3503 0
 3412 0004 007C     		ldrb	r0, [r0, #16]	@ zero_extendqisi2
 3413 0006 7047     		bx	lr
 3414              	.L367:
 3415              		.align	2
 3416              	.L366:
 3417 0008 00000000 		.word	.LANCHOR0
 3418              		.cfi_endproc
 3419              	.LFE41:
 3420              		.size	display_GetBrightness, .-display_GetBrightness
 3421              		.global	display_enableVar
 3422              		.global	display_initVar
 3423              		.comm	display_segLBuffer,2,4
 3424              		.section	.rodata
 3425              		.align	2
 3426              		.set	.LANCHOR2,. + 0
 3427              		.type	display_7SegDigits.5603, %object
 3428              		.size	display_7SegDigits.5603, 16
 3429              	display_7SegDigits.5603:
 3430 0000 C0       		.byte	-64
 3431 0001 F9       		.byte	-7
 3432 0002 A4       		.byte	-92
 3433 0003 B0       		.byte	-80
 3434 0004 99       		.byte	-103
 3435 0005 92       		.byte	-110
 3436 0006 82       		.byte	-126
ARM GAS  C:\Users\Dell\AppData\Local\Temp\ccFHrQg5.s 			page 129


 3437 0007 F8       		.byte	-8
 3438 0008 80       		.byte	-128
 3439 0009 90       		.byte	-112
 3440 000a 88       		.byte	-120
 3441 000b 83       		.byte	-125
 3442 000c C6       		.byte	-58
 3443 000d A1       		.byte	-95
 3444 000e 86       		.byte	-122
 3445 000f 8E       		.byte	-114
 3446              		.type	display_7SegASCII.5609, %object
 3447              		.size	display_7SegASCII.5609, 96
 3448              	display_7SegASCII.5609:
 3449 0010 FF       		.byte	-1
 3450 0011 FF       		.byte	-1
 3451 0012 FF       		.byte	-1
 3452 0013 FF       		.byte	-1
 3453 0014 FF       		.byte	-1
 3454 0015 FF       		.byte	-1
 3455 0016 FF       		.byte	-1
 3456 0017 FF       		.byte	-1
 3457 0018 FF       		.byte	-1
 3458 0019 FF       		.byte	-1
 3459 001a FF       		.byte	-1
 3460 001b FF       		.byte	-1
 3461 001c FF       		.byte	-1
 3462 001d BF       		.byte	-65
 3463 001e 7F       		.byte	127
 3464 001f FF       		.byte	-1
 3465 0020 C0       		.byte	-64
 3466 0021 F9       		.byte	-7
 3467 0022 A4       		.byte	-92
 3468 0023 B0       		.byte	-80
 3469 0024 99       		.byte	-103
 3470 0025 92       		.byte	-110
 3471 0026 82       		.byte	-126
 3472 0027 F8       		.byte	-8
 3473 0028 80       		.byte	-128
 3474 0029 90       		.byte	-112
 3475 002a FF       		.byte	-1
 3476 002b FF       		.byte	-1
 3477 002c FF       		.byte	-1
 3478 002d B7       		.byte	-73
 3479 002e FF       		.byte	-1
 3480 002f FF       		.byte	-1
 3481 0030 FF       		.byte	-1
 3482 0031 88       		.byte	-120
 3483 0032 83       		.byte	-125
 3484 0033 A7       		.byte	-89
 3485 0034 A1       		.byte	-95
 3486 0035 86       		.byte	-122
 3487 0036 8E       		.byte	-114
 3488 0037 C2       		.byte	-62
 3489 0038 8B       		.byte	-117
 3490 0039 EF       		.byte	-17
 3491 003a E1       		.byte	-31
 3492 003b 89       		.byte	-119
 3493 003c C7       		.byte	-57
ARM GAS  C:\Users\Dell\AppData\Local\Temp\ccFHrQg5.s 			page 130


 3494 003d AA       		.byte	-86
 3495 003e AB       		.byte	-85
 3496 003f A3       		.byte	-93
 3497 0040 8C       		.byte	-116
 3498 0041 98       		.byte	-104
 3499 0042 AF       		.byte	-81
 3500 0043 92       		.byte	-110
 3501 0044 87       		.byte	-121
 3502 0045 E3       		.byte	-29
 3503 0046 E3       		.byte	-29
 3504 0047 E2       		.byte	-30
 3505 0048 89       		.byte	-119
 3506 0049 91       		.byte	-111
 3507 004a A4       		.byte	-92
 3508 004b FF       		.byte	-1
 3509 004c FF       		.byte	-1
 3510 004d FF       		.byte	-1
 3511 004e FF       		.byte	-1
 3512 004f F7       		.byte	-9
 3513 0050 FF       		.byte	-1
 3514 0051 88       		.byte	-120
 3515 0052 83       		.byte	-125
 3516 0053 A7       		.byte	-89
 3517 0054 A1       		.byte	-95
 3518 0055 86       		.byte	-122
 3519 0056 8E       		.byte	-114
 3520 0057 C2       		.byte	-62
 3521 0058 8B       		.byte	-117
 3522 0059 EF       		.byte	-17
 3523 005a E1       		.byte	-31
 3524 005b 89       		.byte	-119
 3525 005c C7       		.byte	-57
 3526 005d AA       		.byte	-86
 3527 005e AB       		.byte	-85
 3528 005f A3       		.byte	-93
 3529 0060 8C       		.byte	-116
 3530 0061 98       		.byte	-104
 3531 0062 AF       		.byte	-81
 3532 0063 92       		.byte	-110
 3533 0064 87       		.byte	-121
 3534 0065 E3       		.byte	-29
 3535 0066 E3       		.byte	-29
 3536 0067 E2       		.byte	-30
 3537 0068 89       		.byte	-119
 3538 0069 91       		.byte	-111
 3539 006a A4       		.byte	-92
 3540 006b FF       		.byte	-1
 3541 006c FF       		.byte	-1
 3542 006d FF       		.byte	-1
 3543 006e FF       		.byte	-1
 3544 006f FF       		.byte	-1
 3545              		.type	display_14SegDigitsHigh.5617, %object
 3546              		.size	display_14SegDigitsHigh.5617, 16
 3547              	display_14SegDigitsHigh.5617:
 3548 0070 DB       		.byte	-37
 3549 0071 FF       		.byte	-1
 3550 0072 FF       		.byte	-1
ARM GAS  C:\Users\Dell\AppData\Local\Temp\ccFHrQg5.s 			page 131


 3551 0073 FF       		.byte	-1
 3552 0074 FF       		.byte	-1
 3553 0075 FF       		.byte	-1
 3554 0076 FF       		.byte	-1
 3555 0077 FF       		.byte	-1
 3556 0078 FF       		.byte	-1
 3557 0079 FF       		.byte	-1
 3558 007a FF       		.byte	-1
 3559 007b ED       		.byte	-19
 3560 007c FF       		.byte	-1
 3561 007d ED       		.byte	-19
 3562 007e FF       		.byte	-1
 3563 007f FF       		.byte	-1
 3564              		.type	display_14SegDigitsLow.5616, %object
 3565              		.size	display_14SegDigitsLow.5616, 16
 3566              	display_14SegDigitsLow.5616:
 3567 0080 C0       		.byte	-64
 3568 0081 F9       		.byte	-7
 3569 0082 24       		.byte	36
 3570 0083 30       		.byte	48
 3571 0084 19       		.byte	25
 3572 0085 12       		.byte	18
 3573 0086 02       		.byte	2
 3574 0087 F8       		.byte	-8
 3575 0088 00       		.byte	0
 3576 0089 10       		.byte	16
 3577 008a 08       		.byte	8
 3578 008b 70       		.byte	112
 3579 008c C6       		.byte	-58
 3580 008d F0       		.byte	-16
 3581 008e 06       		.byte	6
 3582 008f 0E       		.byte	14
 3583              		.type	display_14SegASCIIHigh.5626, %object
 3584              		.size	display_14SegASCIIHigh.5626, 96
 3585              	display_14SegASCIIHigh.5626:
 3586 0090 FF       		.byte	-1
 3587 0091 FF       		.byte	-1
 3588 0092 FD       		.byte	-3
 3589 0093 FF       		.byte	-1
 3590 0094 FF       		.byte	-1
 3591 0095 FF       		.byte	-1
 3592 0096 FF       		.byte	-1
 3593 0097 FF       		.byte	-1
 3594 0098 F3       		.byte	-13
 3595 0099 DE       		.byte	-34
 3596 009a C0       		.byte	-64
 3597 009b FF       		.byte	-1
 3598 009c DF       		.byte	-33
 3599 009d FF       		.byte	-1
 3600 009e FF       		.byte	-1
 3601 009f FF       		.byte	-1
 3602 00a0 DB       		.byte	-37
 3603 00a1 FF       		.byte	-1
 3604 00a2 FF       		.byte	-1
 3605 00a3 FF       		.byte	-1
 3606 00a4 FF       		.byte	-1
 3607 00a5 FF       		.byte	-1
ARM GAS  C:\Users\Dell\AppData\Local\Temp\ccFHrQg5.s 			page 132


 3608 00a6 FF       		.byte	-1
 3609 00a7 FF       		.byte	-1
 3610 00a8 FF       		.byte	-1
 3611 00a9 FF       		.byte	-1
 3612 00aa FF       		.byte	-1
 3613 00ab FF       		.byte	-1
 3614 00ac FF       		.byte	-1
 3615 00ad FF       		.byte	-1
 3616 00ae FF       		.byte	-1
 3617 00af EF       		.byte	-17
 3618 00b0 FF       		.byte	-1
 3619 00b1 FF       		.byte	-1
 3620 00b2 ED       		.byte	-19
 3621 00b3 FF       		.byte	-1
 3622 00b4 ED       		.byte	-19
 3623 00b5 FF       		.byte	-1
 3624 00b6 FF       		.byte	-1
 3625 00b7 FF       		.byte	-1
 3626 00b8 FF       		.byte	-1
 3627 00b9 ED       		.byte	-19
 3628 00ba FF       		.byte	-1
 3629 00bb F3       		.byte	-13
 3630 00bc FF       		.byte	-1
 3631 00bd FA       		.byte	-6
 3632 00be F6       		.byte	-10
 3633 00bf FF       		.byte	-1
 3634 00c0 FF       		.byte	-1
 3635 00c1 F7       		.byte	-9
 3636 00c2 F7       		.byte	-9
 3637 00c3 FF       		.byte	-1
 3638 00c4 ED       		.byte	-19
 3639 00c5 FF       		.byte	-1
 3640 00c6 DB       		.byte	-37
 3641 00c7 D7       		.byte	-41
 3642 00c8 D2       		.byte	-46
 3643 00c9 EA       		.byte	-22
 3644 00ca DB       		.byte	-37
 3645 00cb FF       		.byte	-1
 3646 00cc FF       		.byte	-1
 3647 00cd FF       		.byte	-1
 3648 00ce FF       		.byte	-1
 3649 00cf FF       		.byte	-1
 3650 00d0 FF       		.byte	-1
 3651 00d1 FF       		.byte	-1
 3652 00d2 FF       		.byte	-1
 3653 00d3 FF       		.byte	-1
 3654 00d4 FF       		.byte	-1
 3655 00d5 FF       		.byte	-1
 3656 00d6 FF       		.byte	-1
 3657 00d7 FF       		.byte	-1
 3658 00d8 FF       		.byte	-1
 3659 00d9 EF       		.byte	-17
 3660 00da FF       		.byte	-1
 3661 00db F3       		.byte	-13
 3662 00dc ED       		.byte	-19
 3663 00dd EF       		.byte	-17
 3664 00de FF       		.byte	-1
ARM GAS  C:\Users\Dell\AppData\Local\Temp\ccFHrQg5.s 			page 133


 3665 00df FF       		.byte	-1
 3666 00e0 FF       		.byte	-1
 3667 00e1 F7       		.byte	-9
 3668 00e2 FF       		.byte	-1
 3669 00e3 FF       		.byte	-1
 3670 00e4 ED       		.byte	-19
 3671 00e5 FF       		.byte	-1
 3672 00e6 DF       		.byte	-33
 3673 00e7 EF       		.byte	-17
 3674 00e8 D2       		.byte	-46
 3675 00e9 EA       		.byte	-22
 3676 00ea DB       		.byte	-37
 3677 00eb FF       		.byte	-1
 3678 00ec FF       		.byte	-1
 3679 00ed FF       		.byte	-1
 3680 00ee FF       		.byte	-1
 3681 00ef FF       		.byte	-1
 3682              		.type	display_14SegASCIILow.5625, %object
 3683              		.size	display_14SegASCIILow.5625, 96
 3684              	display_14SegASCIILow.5625:
 3685 00f0 FF       		.byte	-1
 3686 00f1 CF       		.byte	-49
 3687 00f2 DF       		.byte	-33
 3688 00f3 FF       		.byte	-1
 3689 00f4 FF       		.byte	-1
 3690 00f5 FF       		.byte	-1
 3691 00f6 FF       		.byte	-1
 3692 00f7 DF       		.byte	-33
 3693 00f8 FF       		.byte	-1
 3694 00f9 FF       		.byte	-1
 3695 00fa 3F       		.byte	63
 3696 00fb FF       		.byte	-1
 3697 00fc FF       		.byte	-1
 3698 00fd 3F       		.byte	63
 3699 00fe FF       		.byte	-1
 3700 00ff FF       		.byte	-1
 3701 0100 C0       		.byte	-64
 3702 0101 F9       		.byte	-7
 3703 0102 24       		.byte	36
 3704 0103 30       		.byte	48
 3705 0104 19       		.byte	25
 3706 0105 12       		.byte	18
 3707 0106 02       		.byte	2
 3708 0107 F8       		.byte	-8
 3709 0108 00       		.byte	0
 3710 0109 10       		.byte	16
 3711 010a FF       		.byte	-1
 3712 010b FF       		.byte	-1
 3713 010c FF       		.byte	-1
 3714 010d 37       		.byte	55
 3715 010e FF       		.byte	-1
 3716 010f 7C       		.byte	124
 3717 0110 FF       		.byte	-1
 3718 0111 08       		.byte	8
 3719 0112 70       		.byte	112
 3720 0113 C6       		.byte	-58
 3721 0114 F0       		.byte	-16
ARM GAS  C:\Users\Dell\AppData\Local\Temp\ccFHrQg5.s 			page 134


 3722 0115 06       		.byte	6
 3723 0116 0E       		.byte	14
 3724 0117 42       		.byte	66
 3725 0118 09       		.byte	9
 3726 0119 F6       		.byte	-10
 3727 011a E1       		.byte	-31
 3728 011b 8F       		.byte	-113
 3729 011c C7       		.byte	-57
 3730 011d C9       		.byte	-55
 3731 011e C9       		.byte	-55
 3732 011f C0       		.byte	-64
 3733 0120 0C       		.byte	12
 3734 0121 C0       		.byte	-64
 3735 0122 0C       		.byte	12
 3736 0123 12       		.byte	18
 3737 0124 FE       		.byte	-2
 3738 0125 C1       		.byte	-63
 3739 0126 CF       		.byte	-49
 3740 0127 C9       		.byte	-55
 3741 0128 FF       		.byte	-1
 3742 0129 FF       		.byte	-1
 3743 012a F6       		.byte	-10
 3744 012b FF       		.byte	-1
 3745 012c FF       		.byte	-1
 3746 012d FF       		.byte	-1
 3747 012e FF       		.byte	-1
 3748 012f F7       		.byte	-9
 3749 0130 FF       		.byte	-1
 3750 0131 08       		.byte	8
 3751 0132 03       		.byte	3
 3752 0133 27       		.byte	39
 3753 0134 21       		.byte	33
 3754 0135 06       		.byte	6
 3755 0136 0E       		.byte	14
 3756 0137 10       		.byte	16
 3757 0138 0B       		.byte	11
 3758 0139 FF       		.byte	-1
 3759 013a E1       		.byte	-31
 3760 013b 8F       		.byte	-113
 3761 013c FF       		.byte	-1
 3762 013d 2B       		.byte	43
 3763 013e 2B       		.byte	43
 3764 013f 23       		.byte	35
 3765 0140 0C       		.byte	12
 3766 0141 C0       		.byte	-64
 3767 0142 2F       		.byte	47
 3768 0143 12       		.byte	18
 3769 0144 3F       		.byte	63
 3770 0145 E3       		.byte	-29
 3771 0146 EF       		.byte	-17
 3772 0147 E3       		.byte	-29
 3773 0148 FF       		.byte	-1
 3774 0149 FF       		.byte	-1
 3775 014a F6       		.byte	-10
 3776 014b FF       		.byte	-1
 3777 014c FF       		.byte	-1
 3778 014d FF       		.byte	-1
ARM GAS  C:\Users\Dell\AppData\Local\Temp\ccFHrQg5.s 			page 135


 3779 014e FF       		.byte	-1
 3780 014f FF       		.byte	-1
 3781              		.type	display_16SegDigitsHigh.5636, %object
 3782              		.size	display_16SegDigitsHigh.5636, 16
 3783              	display_16SegDigitsHigh.5636:
 3784 0150 6F       		.byte	111
 3785 0151 FF       		.byte	-1
 3786 0152 FC       		.byte	-4
 3787 0153 FC       		.byte	-4
 3788 0154 FC       		.byte	-4
 3789 0155 FC       		.byte	-4
 3790 0156 FC       		.byte	-4
 3791 0157 FF       		.byte	-1
 3792 0158 FC       		.byte	-4
 3793 0159 FC       		.byte	-4
 3794 015a FC       		.byte	-4
 3795 015b B5       		.byte	-75
 3796 015c FF       		.byte	-1
 3797 015d B7       		.byte	-73
 3798 015e FC       		.byte	-4
 3799 015f FC       		.byte	-4
 3800              		.type	display_16SegDigitsLow.5635, %object
 3801              		.size	display_16SegDigitsLow.5635, 16
 3802              	display_16SegDigitsLow.5635:
 3803 0160 00       		.byte	0
 3804 0161 F3       		.byte	-13
 3805 0162 88       		.byte	-120
 3806 0163 C0       		.byte	-64
 3807 0164 73       		.byte	115
 3808 0165 44       		.byte	68
 3809 0166 04       		.byte	4
 3810 0167 F0       		.byte	-16
 3811 0168 00       		.byte	0
 3812 0169 70       		.byte	112
 3813 016a 30       		.byte	48
 3814 016b C0       		.byte	-64
 3815 016c 0C       		.byte	12
 3816 016d C0       		.byte	-64
 3817 016e 0C       		.byte	12
 3818 016f 3C       		.byte	60
 3819              		.type	display_16SegASCIIHigh.5645, %object
 3820              		.size	display_16SegASCIIHigh.5645, 96
 3821              	display_16SegASCIIHigh.5645:
 3822 0170 FF       		.byte	-1
 3823 0171 FF       		.byte	-1
 3824 0172 F7       		.byte	-9
 3825 0173 FF       		.byte	-1
 3826 0174 FF       		.byte	-1
 3827 0175 FF       		.byte	-1
 3828 0176 FF       		.byte	-1
 3829 0177 FF       		.byte	-1
 3830 0178 CF       		.byte	-49
 3831 0179 7B       		.byte	123
 3832 017a 00       		.byte	0
 3833 017b FF       		.byte	-1
 3834 017c 7F       		.byte	127
 3835 017d FC       		.byte	-4
ARM GAS  C:\Users\Dell\AppData\Local\Temp\ccFHrQg5.s 			page 136


 3836 017e FF       		.byte	-1
 3837 017f FF       		.byte	-1
 3838 0180 6F       		.byte	111
 3839 0181 FF       		.byte	-1
 3840 0182 FC       		.byte	-4
 3841 0183 FC       		.byte	-4
 3842 0184 FC       		.byte	-4
 3843 0185 FC       		.byte	-4
 3844 0186 FC       		.byte	-4
 3845 0187 FF       		.byte	-1
 3846 0188 FC       		.byte	-4
 3847 0189 FC       		.byte	-4
 3848 018a FF       		.byte	-1
 3849 018b FF       		.byte	-1
 3850 018c FF       		.byte	-1
 3851 018d FC       		.byte	-4
 3852 018e FF       		.byte	-1
 3853 018f BD       		.byte	-67
 3854 0190 FF       		.byte	-1
 3855 0191 FC       		.byte	-4
 3856 0192 B5       		.byte	-75
 3857 0193 FF       		.byte	-1
 3858 0194 B7       		.byte	-73
 3859 0195 FC       		.byte	-4
 3860 0196 FC       		.byte	-4
 3861 0197 FD       		.byte	-3
 3862 0198 FC       		.byte	-4
 3863 0199 B7       		.byte	-73
 3864 019a FF       		.byte	-1
 3865 019b CE       		.byte	-50
 3866 019c FF       		.byte	-1
 3867 019d EB       		.byte	-21
 3868 019e DB       		.byte	-37
 3869 019f FF       		.byte	-1
 3870 01a0 FC       		.byte	-4
 3871 01a1 DF       		.byte	-33
 3872 01a2 DC       		.byte	-36
 3873 01a3 FC       		.byte	-4
 3874 01a4 B7       		.byte	-73
 3875 01a5 FF       		.byte	-1
 3876 01a6 6F       		.byte	111
 3877 01a7 5F       		.byte	95
 3878 01a8 4B       		.byte	75
 3879 01a9 AB       		.byte	-85
 3880 01aa 6F       		.byte	111
 3881 01ab FF       		.byte	-1
 3882 01ac FF       		.byte	-1
 3883 01ad FF       		.byte	-1
 3884 01ae FF       		.byte	-1
 3885 01af FF       		.byte	-1
 3886 01b0 FF       		.byte	-1
 3887 01b1 BE       		.byte	-66
 3888 01b2 BE       		.byte	-66
 3889 01b3 FE       		.byte	-2
 3890 01b4 B6       		.byte	-74
 3891 01b5 7E       		.byte	126
 3892 01b6 B4       		.byte	-76
ARM GAS  C:\Users\Dell\AppData\Local\Temp\ccFHrQg5.s 			page 137


 3893 01b7 B6       		.byte	-74
 3894 01b8 BE       		.byte	-66
 3895 01b9 BF       		.byte	-65
 3896 01ba B7       		.byte	-73
 3897 01bb 95       		.byte	-107
 3898 01bc B7       		.byte	-73
 3899 01bd BC       		.byte	-68
 3900 01be BC       		.byte	-68
 3901 01bf BE       		.byte	-66
 3902 01c0 F6       		.byte	-10
 3903 01c1 B6       		.byte	-74
 3904 01c2 BD       		.byte	-67
 3905 01c3 DD       		.byte	-35
 3906 01c4 B4       		.byte	-76
 3907 01c5 BF       		.byte	-65
 3908 01c6 7F       		.byte	127
 3909 01c7 BF       		.byte	-65
 3910 01c8 4B       		.byte	75
 3911 01c9 B6       		.byte	-74
 3912 01ca 7E       		.byte	126
 3913 01cb FF       		.byte	-1
 3914 01cc FF       		.byte	-1
 3915 01cd FF       		.byte	-1
 3916 01ce FF       		.byte	-1
 3917 01cf FF       		.byte	-1
 3918              		.type	display_16SegASCIILow.5644, %object
 3919              		.size	display_16SegASCIILow.5644, 96
 3920              	display_16SegASCIILow.5644:
 3921 01d0 FF       		.byte	-1
 3922 01d1 3F       		.byte	63
 3923 01d2 7F       		.byte	127
 3924 01d3 FF       		.byte	-1
 3925 01d4 FF       		.byte	-1
 3926 01d5 FF       		.byte	-1
 3927 01d6 FF       		.byte	-1
 3928 01d7 7F       		.byte	127
 3929 01d8 FF       		.byte	-1
 3930 01d9 FF       		.byte	-1
 3931 01da FF       		.byte	-1
 3932 01db FF       		.byte	-1
 3933 01dc FF       		.byte	-1
 3934 01dd FF       		.byte	-1
 3935 01de FF       		.byte	-1
 3936 01df FF       		.byte	-1
 3937 01e0 00       		.byte	0
 3938 01e1 F3       		.byte	-13
 3939 01e2 88       		.byte	-120
 3940 01e3 C0       		.byte	-64
 3941 01e4 73       		.byte	115
 3942 01e5 44       		.byte	68
 3943 01e6 04       		.byte	4
 3944 01e7 F0       		.byte	-16
 3945 01e8 00       		.byte	0
 3946 01e9 70       		.byte	112
 3947 01ea FF       		.byte	-1
 3948 01eb FF       		.byte	-1
 3949 01ec FF       		.byte	-1
ARM GAS  C:\Users\Dell\AppData\Local\Temp\ccFHrQg5.s 			page 138


 3950 01ed CF       		.byte	-49
 3951 01ee FF       		.byte	-1
 3952 01ef F8       		.byte	-8
 3953 01f0 FF       		.byte	-1
 3954 01f1 30       		.byte	48
 3955 01f2 C0       		.byte	-64
 3956 01f3 0C       		.byte	12
 3957 01f4 C0       		.byte	-64
 3958 01f5 0C       		.byte	12
 3959 01f6 3C       		.byte	60
 3960 01f7 04       		.byte	4
 3961 01f8 33       		.byte	51
 3962 01f9 CC       		.byte	-52
 3963 01fa 83       		.byte	-125
 3964 01fb 3F       		.byte	63
 3965 01fc 0F       		.byte	15
 3966 01fd 33       		.byte	51
 3967 01fe 33       		.byte	51
 3968 01ff 00       		.byte	0
 3969 0200 38       		.byte	56
 3970 0201 00       		.byte	0
 3971 0202 38       		.byte	56
 3972 0203 44       		.byte	68
 3973 0204 FC       		.byte	-4
 3974 0205 03       		.byte	3
 3975 0206 3F       		.byte	63
 3976 0207 33       		.byte	51
 3977 0208 FF       		.byte	-1
 3978 0209 FF       		.byte	-1
 3979 020a CC       		.byte	-52
 3980 020b FF       		.byte	-1
 3981 020c FF       		.byte	-1
 3982 020d FF       		.byte	-1
 3983 020e FF       		.byte	-1
 3984 020f CF       		.byte	-49
 3985 0210 FF       		.byte	-1
 3986 0211 8F       		.byte	-113
 3987 0212 1F       		.byte	31
 3988 0213 9F       		.byte	-97
 3989 0214 9F       		.byte	-97
 3990 0215 9F       		.byte	-97
 3991 0216 FD       		.byte	-3
 3992 0217 5E       		.byte	94
 3993 0218 3F       		.byte	63
 3994 0219 FF       		.byte	-1
 3995 021a DF       		.byte	-33
 3996 021b FF       		.byte	-1
 3997 021c FF       		.byte	-1
 3998 021d B7       		.byte	-73
 3999 021e F7       		.byte	-9
 4000 021f 9F       		.byte	-97
 4001 0220 3E       		.byte	62
 4002 0221 6E       		.byte	110
 4003 0222 FF       		.byte	-1
 4004 0223 EF       		.byte	-17
 4005 0224 FF       		.byte	-1
 4006 0225 8F       		.byte	-113
ARM GAS  C:\Users\Dell\AppData\Local\Temp\ccFHrQg5.s 			page 139


 4007 0226 BF       		.byte	-65
 4008 0227 87       		.byte	-121
 4009 0228 FF       		.byte	-1
 4010 0229 5F       		.byte	95
 4011 022a DF       		.byte	-33
 4012 022b FF       		.byte	-1
 4013 022c FF       		.byte	-1
 4014 022d FF       		.byte	-1
 4015 022e FF       		.byte	-1
 4016 022f FF       		.byte	-1
 4017              		.type	display_tempCom.5655, %object
 4018              		.size	display_tempCom.5655, 16
 4019              	display_tempCom.5655:
 4020 0230 00       		.byte	0
 4021 0231 01       		.byte	1
 4022 0232 00       		.byte	0
 4023 0233 02       		.byte	2
 4024 0234 00       		.byte	0
 4025 0235 04       		.byte	4
 4026 0236 00       		.byte	0
 4027 0237 08       		.byte	8
 4028 0238 00       		.byte	0
 4029 0239 10       		.byte	16
 4030 023a 00       		.byte	0
 4031 023b 20       		.byte	32
 4032 023c 00       		.byte	0
 4033 023d 40       		.byte	64
 4034 023e 00       		.byte	0
 4035 023f 80       		.byte	-128
 4036              		.data
 4037              		.align	2
 4038              		.set	.LANCHOR1,. + 0
 4039              		.type	display_comBuffer, %object
 4040              		.size	display_comBuffer, 16
 4041              	display_comBuffer:
 4042 0000 00       		.byte	0
 4043 0001 01       		.byte	1
 4044 0002 00       		.byte	0
 4045 0003 02       		.byte	2
 4046 0004 00       		.byte	0
 4047 0005 04       		.byte	4
 4048 0006 00       		.byte	0
 4049 0007 08       		.byte	8
 4050 0008 00       		.byte	0
 4051 0009 10       		.byte	16
 4052 000a 00       		.byte	0
 4053 000b 20       		.byte	32
 4054 000c 00       		.byte	0
 4055 000d 40       		.byte	64
 4056 000e 00       		.byte	0
 4057 000f 80       		.byte	-128
 4058              		.bss
 4059              		.align	2
 4060              		.set	.LANCHOR0,. + 0
 4061              		.type	display_dmaComChannel, %object
 4062              		.size	display_dmaComChannel, 1
 4063              	display_dmaComChannel:
ARM GAS  C:\Users\Dell\AppData\Local\Temp\ccFHrQg5.s 			page 140


 4064 0000 00       		.space	1
 4065 0001 000000   		.space	3
 4066              		.type	display_dmaComTd, %object
 4067              		.size	display_dmaComTd, 4
 4068              	display_dmaComTd:
 4069 0004 00000000 		.space	4
 4070              		.type	display_dmaSegChannel, %object
 4071              		.size	display_dmaSegChannel, 1
 4072              	display_dmaSegChannel:
 4073 0008 00       		.space	1
 4074 0009 000000   		.space	3
 4075              		.type	display_dmaSegLTd, %object
 4076              		.size	display_dmaSegLTd, 2
 4077              	display_dmaSegLTd:
 4078 000c 0000     		.space	2
 4079              		.type	display_dmaBCChannel, %object
 4080              		.size	display_dmaBCChannel, 1
 4081              	display_dmaBCChannel:
 4082 000e 00       		.space	1
 4083              		.type	display_dmaBCTd, %object
 4084              		.size	display_dmaBCTd, 1
 4085              	display_dmaBCTd:
 4086 000f 00       		.space	1
 4087              		.type	display_brightnessReg, %object
 4088              		.size	display_brightnessReg, 2
 4089              	display_brightnessReg:
 4090 0010 0000     		.space	2
 4091              		.type	display_enableVar, %object
 4092              		.size	display_enableVar, 1
 4093              	display_enableVar:
 4094 0012 00       		.space	1
 4095              		.type	display_dmaInitDone.5263, %object
 4096              		.size	display_dmaInitDone.5263, 1
 4097              	display_dmaInitDone.5263:
 4098 0013 00       		.space	1
 4099              		.type	display_initVar, %object
 4100              		.size	display_initVar, 1
 4101              	display_initVar:
 4102 0014 00       		.space	1
 4103              		.text
 4104              	.Letext0:
 4105              		.file 2 "Generated_Source\\PSoC5/cytypes.h"
 4106              		.file 3 "Generated_Source\\PSoC5/CYDMAC.H"
 4107              		.file 4 "Generated_Source\\PSoC5/display_DMA_Com_dma.h"
 4108              		.file 5 "Generated_Source\\PSoC5/display_DMA_Seg_dma.h"
 4109              		.file 6 "Generated_Source\\PSoC5/display_DMA_BC_dma.h"
 4110              		.file 7 "Generated_Source\\PSoC5/display_Com_Driver.h"
 4111              		.file 8 "c:\\program files (x86)\\cypress\\psoc creator\\4.2\\psoc creator\\import\\gnu\\arm\\5.4.
 4112              		.section	.debug_info,"",%progbits
 4113              	.Ldebug_info0:
 4114 0000 A5160000 		.4byte	0x16a5
 4115 0004 0400     		.2byte	0x4
 4116 0006 00000000 		.4byte	.Ldebug_abbrev0
 4117 000a 04       		.byte	0x4
 4118 000b 01       		.uleb128 0x1
 4119 000c AA020000 		.4byte	.LASF135
 4120 0010 0C       		.byte	0xc
ARM GAS  C:\Users\Dell\AppData\Local\Temp\ccFHrQg5.s 			page 141


 4121 0011 FA040000 		.4byte	.LASF136
 4122 0015 F1010000 		.4byte	.LASF137
 4123 0019 00000000 		.4byte	.Ldebug_ranges0+0
 4124 001d 00000000 		.4byte	0
 4125 0021 00000000 		.4byte	.Ldebug_line0
 4126 0025 02       		.uleb128 0x2
 4127 0026 01       		.byte	0x1
 4128 0027 06       		.byte	0x6
 4129 0028 7D080000 		.4byte	.LASF0
 4130 002c 02       		.uleb128 0x2
 4131 002d 01       		.byte	0x1
 4132 002e 08       		.byte	0x8
 4133 002f F6070000 		.4byte	.LASF1
 4134 0033 02       		.uleb128 0x2
 4135 0034 02       		.byte	0x2
 4136 0035 05       		.byte	0x5
 4137 0036 91060000 		.4byte	.LASF2
 4138 003a 02       		.uleb128 0x2
 4139 003b 02       		.byte	0x2
 4140 003c 07       		.byte	0x7
 4141 003d AC080000 		.4byte	.LASF3
 4142 0041 02       		.uleb128 0x2
 4143 0042 04       		.byte	0x4
 4144 0043 05       		.byte	0x5
 4145 0044 AC060000 		.4byte	.LASF4
 4146 0048 02       		.uleb128 0x2
 4147 0049 04       		.byte	0x4
 4148 004a 07       		.byte	0x7
 4149 004b A9070000 		.4byte	.LASF5
 4150 004f 02       		.uleb128 0x2
 4151 0050 08       		.byte	0x8
 4152 0051 05       		.byte	0x5
 4153 0052 21050000 		.4byte	.LASF6
 4154 0056 02       		.uleb128 0x2
 4155 0057 08       		.byte	0x8
 4156 0058 07       		.byte	0x7
 4157 0059 59020000 		.4byte	.LASF7
 4158 005d 03       		.uleb128 0x3
 4159 005e 04       		.byte	0x4
 4160 005f 05       		.byte	0x5
 4161 0060 696E7400 		.ascii	"int\000"
 4162 0064 02       		.uleb128 0x2
 4163 0065 04       		.byte	0x4
 4164 0066 07       		.byte	0x7
 4165 0067 CF000000 		.4byte	.LASF8
 4166 006b 04       		.uleb128 0x4
 4167 006c F5080000 		.4byte	.LASF9
 4168 0070 02       		.byte	0x2
 4169 0071 E401     		.2byte	0x1e4
 4170 0073 2C000000 		.4byte	0x2c
 4171 0077 04       		.uleb128 0x4
 4172 0078 9E040000 		.4byte	.LASF10
 4173 007c 02       		.byte	0x2
 4174 007d E501     		.2byte	0x1e5
 4175 007f 3A000000 		.4byte	0x3a
 4176 0083 04       		.uleb128 0x4
 4177 0084 95050000 		.4byte	.LASF11
ARM GAS  C:\Users\Dell\AppData\Local\Temp\ccFHrQg5.s 			page 142


 4178 0088 02       		.byte	0x2
 4179 0089 E601     		.2byte	0x1e6
 4180 008b 48000000 		.4byte	0x48
 4181 008f 04       		.uleb128 0x4
 4182 0090 3D020000 		.4byte	.LASF12
 4183 0094 02       		.byte	0x2
 4184 0095 E901     		.2byte	0x1e9
 4185 0097 41000000 		.4byte	0x41
 4186 009b 02       		.uleb128 0x2
 4187 009c 04       		.byte	0x4
 4188 009d 04       		.byte	0x4
 4189 009e 37020000 		.4byte	.LASF13
 4190 00a2 02       		.uleb128 0x2
 4191 00a3 08       		.byte	0x8
 4192 00a4 04       		.byte	0x4
 4193 00a5 FB080000 		.4byte	.LASF14
 4194 00a9 04       		.uleb128 0x4
 4195 00aa 1B050000 		.4byte	.LASF15
 4196 00ae 02       		.byte	0x2
 4197 00af F501     		.2byte	0x1f5
 4198 00b1 B5000000 		.4byte	0xb5
 4199 00b5 02       		.uleb128 0x2
 4200 00b6 01       		.byte	0x1
 4201 00b7 08       		.byte	0x8
 4202 00b8 5E040000 		.4byte	.LASF16
 4203 00bc 04       		.uleb128 0x4
 4204 00bd 2B010000 		.4byte	.LASF17
 4205 00c1 02       		.byte	0x2
 4206 00c2 8E02     		.2byte	0x28e
 4207 00c4 C8000000 		.4byte	0xc8
 4208 00c8 05       		.uleb128 0x5
 4209 00c9 6B000000 		.4byte	0x6b
 4210 00cd 06       		.uleb128 0x6
 4211 00ce 6B000000 		.4byte	0x6b
 4212 00d2 DD000000 		.4byte	0xdd
 4213 00d6 07       		.uleb128 0x7
 4214 00d7 DD000000 		.4byte	0xdd
 4215 00db 01       		.byte	0x1
 4216 00dc 00       		.byte	0
 4217 00dd 02       		.uleb128 0x2
 4218 00de 04       		.byte	0x4
 4219 00df 07       		.byte	0x7
 4220 00e0 A0070000 		.4byte	.LASF18
 4221 00e4 02       		.uleb128 0x2
 4222 00e5 08       		.byte	0x8
 4223 00e6 04       		.byte	0x4
 4224 00e7 37060000 		.4byte	.LASF19
 4225 00eb 08       		.uleb128 0x8
 4226 00ec 89080000 		.4byte	.LASF138
 4227 00f0 10       		.byte	0x10
 4228 00f1 03       		.byte	0x3
 4229 00f2 47       		.byte	0x47
 4230 00f3 28010000 		.4byte	0x128
 4231 00f7 09       		.uleb128 0x9
 4232 00f8 F0040000 		.4byte	.LASF20
 4233 00fc 03       		.byte	0x3
 4234 00fd 49       		.byte	0x49
ARM GAS  C:\Users\Dell\AppData\Local\Temp\ccFHrQg5.s 			page 143


 4235 00fe 38010000 		.4byte	0x138
 4236 0102 00       		.byte	0
 4237 0103 09       		.uleb128 0x9
 4238 0104 18070000 		.4byte	.LASF21
 4239 0108 03       		.byte	0x3
 4240 0109 4A       		.byte	0x4a
 4241 010a 3D010000 		.4byte	0x13d
 4242 010e 04       		.byte	0x4
 4243 010f 09       		.uleb128 0x9
 4244 0110 7F000000 		.4byte	.LASF22
 4245 0114 03       		.byte	0x3
 4246 0115 4B       		.byte	0x4b
 4247 0116 42010000 		.4byte	0x142
 4248 011a 08       		.byte	0x8
 4249 011b 09       		.uleb128 0x9
 4250 011c D4080000 		.4byte	.LASF23
 4251 0120 03       		.byte	0x3
 4252 0121 4C       		.byte	0x4c
 4253 0122 47010000 		.4byte	0x147
 4254 0126 0C       		.byte	0xc
 4255 0127 00       		.byte	0
 4256 0128 06       		.uleb128 0x6
 4257 0129 C8000000 		.4byte	0xc8
 4258 012d 38010000 		.4byte	0x138
 4259 0131 07       		.uleb128 0x7
 4260 0132 DD000000 		.4byte	0xdd
 4261 0136 03       		.byte	0x3
 4262 0137 00       		.byte	0
 4263 0138 05       		.uleb128 0x5
 4264 0139 28010000 		.4byte	0x128
 4265 013d 05       		.uleb128 0x5
 4266 013e 28010000 		.4byte	0x128
 4267 0142 05       		.uleb128 0x5
 4268 0143 28010000 		.4byte	0x128
 4269 0147 05       		.uleb128 0x5
 4270 0148 28010000 		.4byte	0x128
 4271 014c 0A       		.uleb128 0xa
 4272 014d 45080000 		.4byte	.LASF24
 4273 0151 03       		.byte	0x3
 4274 0152 4E       		.byte	0x4e
 4275 0153 EB000000 		.4byte	0xeb
 4276 0157 0B       		.uleb128 0xb
 4277 0158 08070000 		.4byte	.LASF25
 4278 015c 01       		.byte	0x1
 4279 015d 58       		.byte	0x58
 4280 015e 00000000 		.4byte	.LFB0
 4281 0162 60010000 		.4byte	.LFE0-.LFB0
 4282 0166 01       		.uleb128 0x1
 4283 0167 9C       		.byte	0x9c
 4284 0168 F0020000 		.4byte	0x2f0
 4285 016c 0C       		.uleb128 0xc
 4286 016d 6900     		.ascii	"i\000"
 4287 016f 01       		.byte	0x1
 4288 0170 5A       		.byte	0x5a
 4289 0171 6B000000 		.4byte	0x6b
 4290 0175 00000000 		.4byte	.LLST0
 4291 0179 0D       		.uleb128 0xd
ARM GAS  C:\Users\Dell\AppData\Local\Temp\ccFHrQg5.s 			page 144


 4292 017a 12000000 		.4byte	.LVL0
 4293 017e 24160000 		.4byte	0x1624
 4294 0182 9F010000 		.4byte	0x19f
 4295 0186 0E       		.uleb128 0xe
 4296 0187 01       		.uleb128 0x1
 4297 0188 50       		.byte	0x50
 4298 0189 01       		.uleb128 0x1
 4299 018a 31       		.byte	0x31
 4300 018b 0E       		.uleb128 0xe
 4301 018c 01       		.uleb128 0x1
 4302 018d 51       		.byte	0x51
 4303 018e 01       		.uleb128 0x1
 4304 018f 31       		.byte	0x31
 4305 0190 0E       		.uleb128 0xe
 4306 0191 01       		.uleb128 0x1
 4307 0192 52       		.byte	0x52
 4308 0193 03       		.uleb128 0x3
 4309 0194 0A       		.byte	0xa
 4310 0195 FF1F     		.2byte	0x1fff
 4311 0197 0E       		.uleb128 0xe
 4312 0198 01       		.uleb128 0x1
 4313 0199 53       		.byte	0x53
 4314 019a 03       		.uleb128 0x3
 4315 019b 0A       		.byte	0xa
 4316 019c 0040     		.2byte	0x4000
 4317 019e 00       		.byte	0
 4318 019f 0F       		.uleb128 0xf
 4319 01a0 20000000 		.4byte	.LVL2
 4320 01a4 2F160000 		.4byte	0x162f
 4321 01a8 0D       		.uleb128 0xd
 4322 01a9 50000000 		.4byte	.LVL9
 4323 01ad 3A160000 		.4byte	0x163a
 4324 01b1 C0010000 		.4byte	0x1c0
 4325 01b5 0E       		.uleb128 0xe
 4326 01b6 01       		.uleb128 0x1
 4327 01b7 51       		.byte	0x51
 4328 01b8 01       		.uleb128 0x1
 4329 01b9 31       		.byte	0x31
 4330 01ba 0E       		.uleb128 0xe
 4331 01bb 01       		.uleb128 0x1
 4332 01bc 53       		.byte	0x53
 4333 01bd 01       		.uleb128 0x1
 4334 01be 31       		.byte	0x31
 4335 01bf 00       		.byte	0
 4336 01c0 0D       		.uleb128 0xd
 4337 01c1 66000000 		.4byte	.LVL10
 4338 01c5 3A160000 		.4byte	0x163a
 4339 01c9 D8010000 		.4byte	0x1d8
 4340 01cd 0E       		.uleb128 0xe
 4341 01ce 01       		.uleb128 0x1
 4342 01cf 51       		.byte	0x51
 4343 01d0 01       		.uleb128 0x1
 4344 01d1 31       		.byte	0x31
 4345 01d2 0E       		.uleb128 0xe
 4346 01d3 01       		.uleb128 0x1
 4347 01d4 53       		.byte	0x53
 4348 01d5 01       		.uleb128 0x1
ARM GAS  C:\Users\Dell\AppData\Local\Temp\ccFHrQg5.s 			page 145


 4349 01d6 31       		.byte	0x31
 4350 01d7 00       		.byte	0
 4351 01d8 0D       		.uleb128 0xd
 4352 01d9 7C000000 		.4byte	.LVL13
 4353 01dd 3A160000 		.4byte	0x163a
 4354 01e1 F0010000 		.4byte	0x1f0
 4355 01e5 0E       		.uleb128 0xe
 4356 01e6 01       		.uleb128 0x1
 4357 01e7 51       		.byte	0x51
 4358 01e8 01       		.uleb128 0x1
 4359 01e9 31       		.byte	0x31
 4360 01ea 0E       		.uleb128 0xe
 4361 01eb 01       		.uleb128 0x1
 4362 01ec 53       		.byte	0x53
 4363 01ed 01       		.uleb128 0x1
 4364 01ee 31       		.byte	0x31
 4365 01ef 00       		.byte	0
 4366 01f0 0D       		.uleb128 0xd
 4367 01f1 94000000 		.4byte	.LVL15
 4368 01f5 45160000 		.4byte	0x1645
 4369 01f9 11020000 		.4byte	0x211
 4370 01fd 0E       		.uleb128 0xe
 4371 01fe 01       		.uleb128 0x1
 4372 01ff 51       		.byte	0x51
 4373 0200 08       		.uleb128 0x8
 4374 0201 74       		.byte	0x74
 4375 0202 00       		.sleb128 0
 4376 0203 03       		.byte	0x3
 4377 0204 00000000 		.4byte	.LANCHOR1
 4378 0208 22       		.byte	0x22
 4379 0209 0E       		.uleb128 0xe
 4380 020a 01       		.uleb128 0x1
 4381 020b 52       		.byte	0x52
 4382 020c 03       		.uleb128 0x3
 4383 020d 0A       		.byte	0xa
 4384 020e 7A64     		.2byte	0x647a
 4385 0210 00       		.byte	0
 4386 0211 0D       		.uleb128 0xd
 4387 0212 AC000000 		.4byte	.LVL19
 4388 0216 50160000 		.4byte	0x1650
 4389 021a 37020000 		.4byte	0x237
 4390 021e 0E       		.uleb128 0xe
 4391 021f 01       		.uleb128 0x1
 4392 0220 50       		.byte	0x50
 4393 0221 01       		.uleb128 0x1
 4394 0222 31       		.byte	0x31
 4395 0223 0E       		.uleb128 0xe
 4396 0224 01       		.uleb128 0x1
 4397 0225 51       		.byte	0x51
 4398 0226 01       		.uleb128 0x1
 4399 0227 31       		.byte	0x31
 4400 0228 0E       		.uleb128 0xe
 4401 0229 01       		.uleb128 0x1
 4402 022a 52       		.byte	0x52
 4403 022b 03       		.uleb128 0x3
 4404 022c 0A       		.byte	0xa
 4405 022d FF1F     		.2byte	0x1fff
ARM GAS  C:\Users\Dell\AppData\Local\Temp\ccFHrQg5.s 			page 146


 4406 022f 0E       		.uleb128 0xe
 4407 0230 01       		.uleb128 0x1
 4408 0231 53       		.byte	0x53
 4409 0232 03       		.uleb128 0x3
 4410 0233 0A       		.byte	0xa
 4411 0234 0040     		.2byte	0x4000
 4412 0236 00       		.byte	0
 4413 0237 0F       		.uleb128 0xf
 4414 0238 BA000000 		.4byte	.LVL21
 4415 023c 2F160000 		.4byte	0x162f
 4416 0240 0D       		.uleb128 0xd
 4417 0241 E4000000 		.4byte	.LVL28
 4418 0245 3A160000 		.4byte	0x163a
 4419 0249 58020000 		.4byte	0x258
 4420 024d 0E       		.uleb128 0xe
 4421 024e 01       		.uleb128 0x1
 4422 024f 51       		.byte	0x51
 4423 0250 01       		.uleb128 0x1
 4424 0251 31       		.byte	0x31
 4425 0252 0E       		.uleb128 0xe
 4426 0253 01       		.uleb128 0x1
 4427 0254 53       		.byte	0x53
 4428 0255 01       		.uleb128 0x1
 4429 0256 35       		.byte	0x35
 4430 0257 00       		.byte	0
 4431 0258 0D       		.uleb128 0xd
 4432 0259 F8000000 		.4byte	.LVL31
 4433 025d 3A160000 		.4byte	0x163a
 4434 0261 70020000 		.4byte	0x270
 4435 0265 0E       		.uleb128 0xe
 4436 0266 01       		.uleb128 0x1
 4437 0267 51       		.byte	0x51
 4438 0268 01       		.uleb128 0x1
 4439 0269 31       		.byte	0x31
 4440 026a 0E       		.uleb128 0xe
 4441 026b 01       		.uleb128 0x1
 4442 026c 53       		.byte	0x53
 4443 026d 01       		.uleb128 0x1
 4444 026e 35       		.byte	0x35
 4445 026f 00       		.byte	0
 4446 0270 0D       		.uleb128 0xd
 4447 0271 10010000 		.4byte	.LVL33
 4448 0275 45160000 		.4byte	0x1645
 4449 0279 91020000 		.4byte	0x291
 4450 027d 0E       		.uleb128 0xe
 4451 027e 01       		.uleb128 0x1
 4452 027f 51       		.byte	0x51
 4453 0280 08       		.uleb128 0x8
 4454 0281 74       		.byte	0x74
 4455 0282 00       		.sleb128 0
 4456 0283 03       		.byte	0x3
 4457 0284 00000000 		.4byte	display_segLBuffer
 4458 0288 22       		.byte	0x22
 4459 0289 0E       		.uleb128 0xe
 4460 028a 01       		.uleb128 0x1
 4461 028b 52       		.byte	0x52
 4462 028c 03       		.uleb128 0x3
ARM GAS  C:\Users\Dell\AppData\Local\Temp\ccFHrQg5.s 			page 147


 4463 028d 0A       		.byte	0xa
 4464 028e 7B64     		.2byte	0x647b
 4465 0290 00       		.byte	0
 4466 0291 0D       		.uleb128 0xd
 4467 0292 28010000 		.4byte	.LVL37
 4468 0296 5B160000 		.4byte	0x165b
 4469 029a B7020000 		.4byte	0x2b7
 4470 029e 0E       		.uleb128 0xe
 4471 029f 01       		.uleb128 0x1
 4472 02a0 50       		.byte	0x50
 4473 02a1 01       		.uleb128 0x1
 4474 02a2 31       		.byte	0x31
 4475 02a3 0E       		.uleb128 0xe
 4476 02a4 01       		.uleb128 0x1
 4477 02a5 51       		.byte	0x51
 4478 02a6 01       		.uleb128 0x1
 4479 02a7 31       		.byte	0x31
 4480 02a8 0E       		.uleb128 0xe
 4481 02a9 01       		.uleb128 0x1
 4482 02aa 52       		.byte	0x52
 4483 02ab 03       		.uleb128 0x3
 4484 02ac 0A       		.byte	0xa
 4485 02ad FF1F     		.2byte	0x1fff
 4486 02af 0E       		.uleb128 0xe
 4487 02b0 01       		.uleb128 0x1
 4488 02b1 53       		.byte	0x53
 4489 02b2 03       		.uleb128 0x3
 4490 02b3 0A       		.byte	0xa
 4491 02b4 0040     		.2byte	0x4000
 4492 02b6 00       		.byte	0
 4493 02b7 0F       		.uleb128 0xf
 4494 02b8 34010000 		.4byte	.LVL38
 4495 02bc 2F160000 		.4byte	0x162f
 4496 02c0 0D       		.uleb128 0xd
 4497 02c1 42010000 		.4byte	.LVL39
 4498 02c5 3A160000 		.4byte	0x163a
 4499 02c9 D8020000 		.4byte	0x2d8
 4500 02cd 0E       		.uleb128 0xe
 4501 02ce 01       		.uleb128 0x1
 4502 02cf 51       		.byte	0x51
 4503 02d0 01       		.uleb128 0x1
 4504 02d1 32       		.byte	0x32
 4505 02d2 0E       		.uleb128 0xe
 4506 02d3 01       		.uleb128 0x1
 4507 02d4 53       		.byte	0x53
 4508 02d5 01       		.uleb128 0x1
 4509 02d6 31       		.byte	0x31
 4510 02d7 00       		.byte	0
 4511 02d8 10       		.uleb128 0x10
 4512 02d9 52010000 		.4byte	.LVL40
 4513 02dd 45160000 		.4byte	0x1645
 4514 02e1 0E       		.uleb128 0xe
 4515 02e2 01       		.uleb128 0x1
 4516 02e3 51       		.byte	0x51
 4517 02e4 02       		.uleb128 0x2
 4518 02e5 74       		.byte	0x74
 4519 02e6 10       		.sleb128 16
ARM GAS  C:\Users\Dell\AppData\Local\Temp\ccFHrQg5.s 			page 148


 4520 02e7 0E       		.uleb128 0xe
 4521 02e8 01       		.uleb128 0x1
 4522 02e9 52       		.byte	0x52
 4523 02ea 03       		.uleb128 0x3
 4524 02eb 0A       		.byte	0xa
 4525 02ec 2465     		.2byte	0x6524
 4526 02ee 00       		.byte	0
 4527 02ef 00       		.byte	0
 4528 02f0 11       		.uleb128 0x11
 4529 02f1 5D060000 		.4byte	.LASF26
 4530 02f5 01       		.byte	0x1
 4531 02f6 1101     		.2byte	0x111
 4532 02f8 00000000 		.4byte	.LFB1
 4533 02fc 3C000000 		.4byte	.LFE1-.LFB1
 4534 0300 01       		.uleb128 0x1
 4535 0301 9C       		.byte	0x9c
 4536 0302 57030000 		.4byte	0x357
 4537 0306 0F       		.uleb128 0xf
 4538 0307 0C000000 		.4byte	.LVL41
 4539 030b 66160000 		.4byte	0x1666
 4540 030f 0F       		.uleb128 0xf
 4541 0310 14000000 		.4byte	.LVL42
 4542 0314 66160000 		.4byte	0x1666
 4543 0318 0F       		.uleb128 0xf
 4544 0319 1C000000 		.4byte	.LVL43
 4545 031d 66160000 		.4byte	0x1666
 4546 0321 0D       		.uleb128 0xd
 4547 0322 24000000 		.4byte	.LVL44
 4548 0326 71160000 		.4byte	0x1671
 4549 032a 34030000 		.4byte	0x334
 4550 032e 0E       		.uleb128 0xe
 4551 032f 01       		.uleb128 0x1
 4552 0330 51       		.byte	0x51
 4553 0331 01       		.uleb128 0x1
 4554 0332 31       		.byte	0x31
 4555 0333 00       		.byte	0
 4556 0334 0D       		.uleb128 0xd
 4557 0335 2C000000 		.4byte	.LVL45
 4558 0339 71160000 		.4byte	0x1671
 4559 033d 47030000 		.4byte	0x347
 4560 0341 0E       		.uleb128 0xe
 4561 0342 01       		.uleb128 0x1
 4562 0343 51       		.byte	0x51
 4563 0344 01       		.uleb128 0x1
 4564 0345 31       		.byte	0x31
 4565 0346 00       		.byte	0
 4566 0347 10       		.uleb128 0x10
 4567 0348 34000000 		.4byte	.LVL46
 4568 034c 71160000 		.4byte	0x1671
 4569 0350 0E       		.uleb128 0xe
 4570 0351 01       		.uleb128 0x1
 4571 0352 51       		.byte	0x51
 4572 0353 01       		.uleb128 0x1
 4573 0354 31       		.byte	0x31
 4574 0355 00       		.byte	0
 4575 0356 00       		.byte	0
 4576 0357 11       		.uleb128 0x11
ARM GAS  C:\Users\Dell\AppData\Local\Temp\ccFHrQg5.s 			page 149


 4577 0358 82050000 		.4byte	.LASF27
 4578 035c 01       		.byte	0x1
 4579 035d 3501     		.2byte	0x135
 4580 035f 00000000 		.4byte	.LFB2
 4581 0363 6C000000 		.4byte	.LFE2-.LFB2
 4582 0367 01       		.uleb128 0x1
 4583 0368 9C       		.byte	0x9c
 4584 0369 F1030000 		.4byte	0x3f1
 4585 036d 12       		.uleb128 0x12
 4586 036e 6900     		.ascii	"i\000"
 4587 0370 01       		.byte	0x1
 4588 0371 3701     		.2byte	0x137
 4589 0373 6B000000 		.4byte	0x6b
 4590 0377 BA000000 		.4byte	.LLST1
 4591 037b 13       		.uleb128 0x13
 4592 037c 43060000 		.4byte	.LASF28
 4593 0380 01       		.byte	0x1
 4594 0381 3801     		.2byte	0x138
 4595 0383 6B000000 		.4byte	0x6b
 4596 0387 E4000000 		.4byte	.LLST2
 4597 038b 14       		.uleb128 0x14
 4598 038c 4A030000 		.4byte	.LASF29
 4599 0390 01       		.byte	0x1
 4600 0391 3901     		.2byte	0x139
 4601 0393 F1030000 		.4byte	0x3f1
 4602 0397 02       		.uleb128 0x2
 4603 0398 91       		.byte	0x91
 4604 0399 6C       		.sleb128 -20
 4605 039a 0D       		.uleb128 0xd
 4606 039b 2A000000 		.4byte	.LVL50
 4607 039f 7C160000 		.4byte	0x167c
 4608 03a3 AE030000 		.4byte	0x3ae
 4609 03a7 0E       		.uleb128 0xe
 4610 03a8 01       		.uleb128 0x1
 4611 03a9 50       		.byte	0x50
 4612 03aa 02       		.uleb128 0x2
 4613 03ab 75       		.byte	0x75
 4614 03ac 00       		.sleb128 0
 4615 03ad 00       		.byte	0
 4616 03ae 0D       		.uleb128 0xd
 4617 03af 30000000 		.4byte	.LVL51
 4618 03b3 87160000 		.4byte	0x1687
 4619 03b7 C2030000 		.4byte	0x3c2
 4620 03bb 0E       		.uleb128 0xe
 4621 03bc 01       		.uleb128 0x1
 4622 03bd 50       		.byte	0x50
 4623 03be 02       		.uleb128 0x2
 4624 03bf 09       		.byte	0x9
 4625 03c0 FF       		.byte	0xff
 4626 03c1 00       		.byte	0
 4627 03c2 0D       		.uleb128 0xd
 4628 03c3 46000000 		.4byte	.LVL52
 4629 03c7 92160000 		.4byte	0x1692
 4630 03cb DB030000 		.4byte	0x3db
 4631 03cf 0E       		.uleb128 0xe
 4632 03d0 01       		.uleb128 0x1
 4633 03d1 50       		.byte	0x50
ARM GAS  C:\Users\Dell\AppData\Local\Temp\ccFHrQg5.s 			page 150


 4634 03d2 02       		.uleb128 0x2
 4635 03d3 75       		.byte	0x75
 4636 03d4 00       		.sleb128 0
 4637 03d5 0E       		.uleb128 0xe
 4638 03d6 01       		.uleb128 0x1
 4639 03d7 51       		.byte	0x51
 4640 03d8 01       		.uleb128 0x1
 4641 03d9 34       		.byte	0x34
 4642 03da 00       		.byte	0
 4643 03db 10       		.uleb128 0x10
 4644 03dc 4E000000 		.4byte	.LVL53
 4645 03e0 71160000 		.4byte	0x1671
 4646 03e4 0E       		.uleb128 0xe
 4647 03e5 01       		.uleb128 0x1
 4648 03e6 50       		.byte	0x50
 4649 03e7 02       		.uleb128 0x2
 4650 03e8 75       		.byte	0x75
 4651 03e9 00       		.sleb128 0
 4652 03ea 0E       		.uleb128 0xe
 4653 03eb 01       		.uleb128 0x1
 4654 03ec 51       		.byte	0x51
 4655 03ed 01       		.uleb128 0x1
 4656 03ee 31       		.byte	0x31
 4657 03ef 00       		.byte	0
 4658 03f0 00       		.byte	0
 4659 03f1 06       		.uleb128 0x6
 4660 03f2 6B000000 		.4byte	0x6b
 4661 03f6 01040000 		.4byte	0x401
 4662 03fa 07       		.uleb128 0x7
 4663 03fb DD000000 		.4byte	0xdd
 4664 03ff 02       		.byte	0x2
 4665 0400 00       		.byte	0
 4666 0401 15       		.uleb128 0x15
 4667 0402 B9010000 		.4byte	.LASF30
 4668 0406 01       		.byte	0x1
 4669 0407 9601     		.2byte	0x196
 4670 0409 00000000 		.4byte	.LFB4
 4671 040d 24000000 		.4byte	.LFE4-.LFB4
 4672 0411 01       		.uleb128 0x1
 4673 0412 9C       		.byte	0x9c
 4674 0413 21040000 		.4byte	0x421
 4675 0417 0F       		.uleb128 0xf
 4676 0418 06000000 		.4byte	.LVL57
 4677 041c F0020000 		.4byte	0x2f0
 4678 0420 00       		.byte	0
 4679 0421 15       		.uleb128 0x15
 4680 0422 E0070000 		.4byte	.LASF31
 4681 0426 01       		.byte	0x1
 4682 0427 FE01     		.2byte	0x1fe
 4683 0429 00000000 		.4byte	.LFB7
 4684 042d 10000000 		.4byte	.LFE7-.LFB7
 4685 0431 01       		.uleb128 0x1
 4686 0432 9C       		.byte	0x9c
 4687 0433 66040000 		.4byte	0x466
 4688 0437 16       		.uleb128 0x16
 4689 0438 A4020000 		.4byte	.LASF32
 4690 043c 01       		.byte	0x1
ARM GAS  C:\Users\Dell\AppData\Local\Temp\ccFHrQg5.s 			page 151


 4691 043d FE01     		.2byte	0x1fe
 4692 043f 6B000000 		.4byte	0x6b
 4693 0443 F7000000 		.4byte	.LLST3
 4694 0447 17       		.uleb128 0x17
 4695 0448 81090000 		.4byte	.LASF33
 4696 044c 01       		.byte	0x1
 4697 044d FE01     		.2byte	0x1fe
 4698 044f 6B000000 		.4byte	0x6b
 4699 0453 01       		.uleb128 0x1
 4700 0454 51       		.byte	0x51
 4701 0455 13       		.uleb128 0x13
 4702 0456 9A090000 		.4byte	.LASF34
 4703 045a 01       		.byte	0x1
 4704 045b 0002     		.2byte	0x200
 4705 045d 6B000000 		.4byte	0x6b
 4706 0461 18010000 		.4byte	.LLST4
 4707 0465 00       		.byte	0
 4708 0466 15       		.uleb128 0x15
 4709 0467 7D020000 		.4byte	.LASF35
 4710 046b 01       		.byte	0x1
 4711 046c 3A02     		.2byte	0x23a
 4712 046e 00000000 		.4byte	.LFB8
 4713 0472 20000000 		.4byte	.LFE8-.LFB8
 4714 0476 01       		.uleb128 0x1
 4715 0477 9C       		.byte	0x9c
 4716 0478 AB040000 		.4byte	0x4ab
 4717 047c 18       		.uleb128 0x18
 4718 047d 726F7700 		.ascii	"row\000"
 4719 0481 01       		.byte	0x1
 4720 0482 3A02     		.2byte	0x23a
 4721 0484 6B000000 		.4byte	0x6b
 4722 0488 2B010000 		.4byte	.LLST5
 4723 048c 17       		.uleb128 0x17
 4724 048d 1F070000 		.4byte	.LASF36
 4725 0491 01       		.byte	0x1
 4726 0492 3A02     		.2byte	0x23a
 4727 0494 6B000000 		.4byte	0x6b
 4728 0498 01       		.uleb128 0x1
 4729 0499 51       		.byte	0x51
 4730 049a 13       		.uleb128 0x13
 4731 049b 24010000 		.4byte	.LASF37
 4732 049f 01       		.byte	0x1
 4733 04a0 3C02     		.2byte	0x23c
 4734 04a2 6B000000 		.4byte	0x6b
 4735 04a6 4C010000 		.4byte	.LLST6
 4736 04aa 00       		.byte	0
 4737 04ab 15       		.uleb128 0x15
 4738 04ac 8A090000 		.4byte	.LASF38
 4739 04b0 01       		.byte	0x1
 4740 04b1 7602     		.2byte	0x276
 4741 04b3 00000000 		.4byte	.LFB9
 4742 04b7 20000000 		.4byte	.LFE9-.LFB9
 4743 04bb 01       		.uleb128 0x1
 4744 04bc 9C       		.byte	0x9c
 4745 04bd 00050000 		.4byte	0x500
 4746 04c1 18       		.uleb128 0x18
 4747 04c2 726F7700 		.ascii	"row\000"
ARM GAS  C:\Users\Dell\AppData\Local\Temp\ccFHrQg5.s 			page 152


 4748 04c6 01       		.byte	0x1
 4749 04c7 7602     		.2byte	0x276
 4750 04c9 6B000000 		.4byte	0x6b
 4751 04cd 6D010000 		.4byte	.LLST7
 4752 04d1 17       		.uleb128 0x17
 4753 04d2 1F070000 		.4byte	.LASF36
 4754 04d6 01       		.byte	0x1
 4755 04d7 7602     		.2byte	0x276
 4756 04d9 6B000000 		.4byte	0x6b
 4757 04dd 01       		.uleb128 0x1
 4758 04de 51       		.byte	0x51
 4759 04df 13       		.uleb128 0x13
 4760 04e0 24010000 		.4byte	.LASF37
 4761 04e4 01       		.byte	0x1
 4762 04e5 7802     		.2byte	0x278
 4763 04e7 6B000000 		.4byte	0x6b
 4764 04eb 8E010000 		.4byte	.LLST8
 4765 04ef 13       		.uleb128 0x13
 4766 04f0 B3040000 		.4byte	.LASF39
 4767 04f4 01       		.byte	0x1
 4768 04f5 7902     		.2byte	0x279
 4769 04f7 6B000000 		.4byte	0x6b
 4770 04fb AF010000 		.4byte	.LLST9
 4771 04ff 00       		.byte	0
 4772 0500 15       		.uleb128 0x15
 4773 0501 9B060000 		.4byte	.LASF40
 4774 0505 01       		.byte	0x1
 4775 0506 B602     		.2byte	0x2b6
 4776 0508 00000000 		.4byte	.LFB10
 4777 050c 1C000000 		.4byte	.LFE10-.LFB10
 4778 0510 01       		.uleb128 0x1
 4779 0511 9C       		.byte	0x9c
 4780 0512 45050000 		.4byte	0x545
 4781 0516 18       		.uleb128 0x18
 4782 0517 726F7700 		.ascii	"row\000"
 4783 051b 01       		.byte	0x1
 4784 051c B602     		.2byte	0x2b6
 4785 051e 6B000000 		.4byte	0x6b
 4786 0522 C2010000 		.4byte	.LLST10
 4787 0526 17       		.uleb128 0x17
 4788 0527 1F070000 		.4byte	.LASF36
 4789 052b 01       		.byte	0x1
 4790 052c B602     		.2byte	0x2b6
 4791 052e 6B000000 		.4byte	0x6b
 4792 0532 01       		.uleb128 0x1
 4793 0533 51       		.byte	0x51
 4794 0534 13       		.uleb128 0x13
 4795 0535 24010000 		.4byte	.LASF37
 4796 0539 01       		.byte	0x1
 4797 053a B802     		.2byte	0x2b8
 4798 053c 6B000000 		.4byte	0x6b
 4799 0540 E3010000 		.4byte	.LLST11
 4800 0544 00       		.byte	0
 4801 0545 19       		.uleb128 0x19
 4802 0546 A5040000 		.4byte	.LASF50
 4803 054a 01       		.byte	0x1
 4804 054b E602     		.2byte	0x2e6
ARM GAS  C:\Users\Dell\AppData\Local\Temp\ccFHrQg5.s 			page 153


 4805 054d 6B000000 		.4byte	0x6b
 4806 0551 00000000 		.4byte	.LFB11
 4807 0555 28000000 		.4byte	.LFE11-.LFB11
 4808 0559 01       		.uleb128 0x1
 4809 055a 9C       		.byte	0x9c
 4810 055b AE050000 		.4byte	0x5ae
 4811 055f 18       		.uleb128 0x18
 4812 0560 726F7700 		.ascii	"row\000"
 4813 0564 01       		.byte	0x1
 4814 0565 E602     		.2byte	0x2e6
 4815 0567 6B000000 		.4byte	0x6b
 4816 056b 04020000 		.4byte	.LLST12
 4817 056f 17       		.uleb128 0x17
 4818 0570 1F070000 		.4byte	.LASF36
 4819 0574 01       		.byte	0x1
 4820 0575 E602     		.2byte	0x2e6
 4821 0577 6B000000 		.4byte	0x6b
 4822 057b 01       		.uleb128 0x1
 4823 057c 51       		.byte	0x51
 4824 057d 13       		.uleb128 0x13
 4825 057e B8030000 		.4byte	.LASF41
 4826 0582 01       		.byte	0x1
 4827 0583 E802     		.2byte	0x2e8
 4828 0585 6B000000 		.4byte	0x6b
 4829 0589 57020000 		.4byte	.LLST13
 4830 058d 13       		.uleb128 0x13
 4831 058e 24010000 		.4byte	.LASF37
 4832 0592 01       		.byte	0x1
 4833 0593 E902     		.2byte	0x2e9
 4834 0595 6B000000 		.4byte	0x6b
 4835 0599 8D020000 		.4byte	.LLST14
 4836 059d 13       		.uleb128 0x13
 4837 059e A8000000 		.4byte	.LASF42
 4838 05a2 01       		.byte	0x1
 4839 05a3 EA02     		.2byte	0x2ea
 4840 05a5 6B000000 		.4byte	0x6b
 4841 05a9 AE020000 		.4byte	.LLST15
 4842 05ad 00       		.byte	0
 4843 05ae 15       		.uleb128 0x15
 4844 05af F4000000 		.4byte	.LASF43
 4845 05b3 01       		.byte	0x1
 4846 05b4 1F03     		.2byte	0x31f
 4847 05b6 00000000 		.4byte	.LFB12
 4848 05ba 10000000 		.4byte	.LFE12-.LFB12
 4849 05be 01       		.uleb128 0x1
 4850 05bf 9C       		.byte	0x9c
 4851 05c0 E3050000 		.4byte	0x5e3
 4852 05c4 17       		.uleb128 0x17
 4853 05c5 81090000 		.4byte	.LASF33
 4854 05c9 01       		.byte	0x1
 4855 05ca 1F03     		.2byte	0x31f
 4856 05cc 6B000000 		.4byte	0x6b
 4857 05d0 01       		.uleb128 0x1
 4858 05d1 50       		.byte	0x50
 4859 05d2 13       		.uleb128 0x13
 4860 05d3 9A090000 		.4byte	.LASF34
 4861 05d7 01       		.byte	0x1
ARM GAS  C:\Users\Dell\AppData\Local\Temp\ccFHrQg5.s 			page 154


 4862 05d8 2103     		.2byte	0x321
 4863 05da 6B000000 		.4byte	0x6b
 4864 05de F0020000 		.4byte	.LLST16
 4865 05e2 00       		.byte	0
 4866 05e3 15       		.uleb128 0x15
 4867 05e4 DC000000 		.4byte	.LASF44
 4868 05e8 01       		.byte	0x1
 4869 05e9 4D03     		.2byte	0x34d
 4870 05eb 00000000 		.4byte	.LFB13
 4871 05ef 18000000 		.4byte	.LFE13-.LFB13
 4872 05f3 01       		.uleb128 0x1
 4873 05f4 9C       		.byte	0x9c
 4874 05f5 0A060000 		.4byte	0x60a
 4875 05f9 13       		.uleb128 0x13
 4876 05fa 81090000 		.4byte	.LASF33
 4877 05fe 01       		.byte	0x1
 4878 05ff 4F03     		.2byte	0x34f
 4879 0601 6B000000 		.4byte	0x6b
 4880 0605 03030000 		.4byte	.LLST17
 4881 0609 00       		.byte	0
 4882 060a 15       		.uleb128 0x15
 4883 060b FB060000 		.4byte	.LASF45
 4884 060f 01       		.byte	0x1
 4885 0610 6A01     		.2byte	0x16a
 4886 0612 00000000 		.4byte	.LFB3
 4887 0616 30000000 		.4byte	.LFE3-.LFB3
 4888 061a 01       		.uleb128 0x1
 4889 061b 9C       		.byte	0x9c
 4890 061c 53060000 		.4byte	0x653
 4891 0620 14       		.uleb128 0x14
 4892 0621 9C050000 		.4byte	.LASF46
 4893 0625 01       		.byte	0x1
 4894 0626 6C01     		.2byte	0x16c
 4895 0628 6B000000 		.4byte	0x6b
 4896 062c 05       		.uleb128 0x5
 4897 062d 03       		.byte	0x3
 4898 062e 13000000 		.4byte	display_dmaInitDone.5263
 4899 0632 12       		.uleb128 0x12
 4900 0633 6900     		.ascii	"i\000"
 4901 0635 01       		.byte	0x1
 4902 0636 6E01     		.2byte	0x16e
 4903 0638 6B000000 		.4byte	0x6b
 4904 063c 2D030000 		.4byte	.LLST18
 4905 0640 0F       		.uleb128 0xf
 4906 0641 06000000 		.4byte	.LVL93
 4907 0645 E3050000 		.4byte	0x5e3
 4908 0649 0F       		.uleb128 0xf
 4909 064a 10000000 		.4byte	.LVL94
 4910 064e 57010000 		.4byte	0x157
 4911 0652 00       		.byte	0
 4912 0653 15       		.uleb128 0x15
 4913 0654 62050000 		.4byte	.LASF47
 4914 0658 01       		.byte	0x1
 4915 0659 BC01     		.2byte	0x1bc
 4916 065b 00000000 		.4byte	.LFB5
 4917 065f 1C000000 		.4byte	.LFE5-.LFB5
 4918 0663 01       		.uleb128 0x1
ARM GAS  C:\Users\Dell\AppData\Local\Temp\ccFHrQg5.s 			page 155


 4919 0664 9C       		.byte	0x9c
 4920 0665 7C060000 		.4byte	0x67c
 4921 0669 0F       		.uleb128 0xf
 4922 066a 0C000000 		.4byte	.LVL99
 4923 066e 0A060000 		.4byte	0x60a
 4924 0672 0F       		.uleb128 0xf
 4925 0673 16000000 		.4byte	.LVL100
 4926 0677 01040000 		.4byte	0x401
 4927 067b 00       		.byte	0
 4928 067c 15       		.uleb128 0x15
 4929 067d 70020000 		.4byte	.LASF48
 4930 0681 01       		.byte	0x1
 4931 0682 DA01     		.2byte	0x1da
 4932 0684 00000000 		.4byte	.LFB6
 4933 0688 20000000 		.4byte	.LFE6-.LFB6
 4934 068c 01       		.uleb128 0x1
 4935 068d 9C       		.byte	0x9c
 4936 068e A5060000 		.4byte	0x6a5
 4937 0692 0F       		.uleb128 0xf
 4938 0693 0C000000 		.4byte	.LVL101
 4939 0697 57030000 		.4byte	0x357
 4940 069b 0F       		.uleb128 0xf
 4941 069c 10000000 		.4byte	.LVL102
 4942 06a0 E3050000 		.4byte	0x5e3
 4943 06a4 00       		.byte	0
 4944 06a5 15       		.uleb128 0x15
 4945 06a6 B0050000 		.4byte	.LASF49
 4946 06aa 01       		.byte	0x1
 4947 06ab 3709     		.2byte	0x937
 4948 06ad 00000000 		.4byte	.LFB32
 4949 06b1 24000000 		.4byte	.LFE32-.LFB32
 4950 06b5 01       		.uleb128 0x1
 4951 06b6 9C       		.byte	0x9c
 4952 06b7 F4060000 		.4byte	0x6f4
 4953 06bb 1A       		.uleb128 0x1a
 4954 06bc 647000   		.ascii	"dp\000"
 4955 06bf 01       		.byte	0x1
 4956 06c0 3709     		.2byte	0x937
 4957 06c2 6B000000 		.4byte	0x6b
 4958 06c6 01       		.uleb128 0x1
 4959 06c7 50       		.byte	0x50
 4960 06c8 17       		.uleb128 0x17
 4961 06c9 81090000 		.4byte	.LASF33
 4962 06cd 01       		.byte	0x1
 4963 06ce 3709     		.2byte	0x937
 4964 06d0 6B000000 		.4byte	0x6b
 4965 06d4 01       		.uleb128 0x1
 4966 06d5 51       		.byte	0x51
 4967 06d6 1B       		.uleb128 0x1b
 4968 06d7 A4020000 		.4byte	.LASF32
 4969 06db 01       		.byte	0x1
 4970 06dc 3A09     		.2byte	0x93a
 4971 06de 6B000000 		.4byte	0x6b
 4972 06e2 7F       		.byte	0x7f
 4973 06e3 13       		.uleb128 0x13
 4974 06e4 9A090000 		.4byte	.LASF34
 4975 06e8 01       		.byte	0x1
ARM GAS  C:\Users\Dell\AppData\Local\Temp\ccFHrQg5.s 			page 156


 4976 06e9 3B09     		.2byte	0x93b
 4977 06eb 6B000000 		.4byte	0x6b
 4978 06ef 4B030000 		.4byte	.LLST19
 4979 06f3 00       		.byte	0
 4980 06f4 19       		.uleb128 0x19
 4981 06f5 3C040000 		.4byte	.LASF51
 4982 06f9 01       		.byte	0x1
 4983 06fa 9909     		.2byte	0x999
 4984 06fc 6B000000 		.4byte	0x6b
 4985 0700 00000000 		.4byte	.LFB33
 4986 0704 18000000 		.4byte	.LFE33-.LFB33
 4987 0708 01       		.uleb128 0x1
 4988 0709 9C       		.byte	0x9c
 4989 070a 4F070000 		.4byte	0x74f
 4990 070e 16       		.uleb128 0x16
 4991 070f 81090000 		.4byte	.LASF33
 4992 0713 01       		.byte	0x1
 4993 0714 9909     		.2byte	0x999
 4994 0716 6B000000 		.4byte	0x6b
 4995 071a 5E030000 		.4byte	.LLST20
 4996 071e 13       		.uleb128 0x13
 4997 071f A4020000 		.4byte	.LASF32
 4998 0723 01       		.byte	0x1
 4999 0724 9B09     		.2byte	0x99b
 5000 0726 6B000000 		.4byte	0x6b
 5001 072a 98030000 		.4byte	.LLST21
 5002 072e 13       		.uleb128 0x13
 5003 072f 9A090000 		.4byte	.LASF34
 5004 0733 01       		.byte	0x1
 5005 0734 9C09     		.2byte	0x99c
 5006 0736 6B000000 		.4byte	0x6b
 5007 073a BA030000 		.4byte	.LLST22
 5008 073e 13       		.uleb128 0x13
 5009 073f 76050000 		.4byte	.LASF52
 5010 0743 01       		.byte	0x1
 5011 0744 9D09     		.2byte	0x99d
 5012 0746 6B000000 		.4byte	0x6b
 5013 074a DB030000 		.4byte	.LLST23
 5014 074e 00       		.byte	0
 5015 074f 19       		.uleb128 0x19
 5016 0750 63040000 		.4byte	.LASF53
 5017 0754 01       		.byte	0x1
 5018 0755 D609     		.2byte	0x9d6
 5019 0757 6B000000 		.4byte	0x6b
 5020 075b 00000000 		.4byte	.LFB34
 5021 075f 10000000 		.4byte	.LFE34-.LFB34
 5022 0763 01       		.uleb128 0x1
 5023 0764 9C       		.byte	0x9c
 5024 0765 AC070000 		.4byte	0x7ac
 5025 0769 16       		.uleb128 0x16
 5026 076a 5C070000 		.4byte	.LASF54
 5027 076e 01       		.byte	0x1
 5028 076f D609     		.2byte	0x9d6
 5029 0771 6B000000 		.4byte	0x6b
 5030 0775 11040000 		.4byte	.LLST24
 5031 0779 14       		.uleb128 0x14
 5032 077a 32080000 		.4byte	.LASF55
ARM GAS  C:\Users\Dell\AppData\Local\Temp\ccFHrQg5.s 			page 157


 5033 077e 01       		.byte	0x1
 5034 077f E409     		.2byte	0x9e4
 5035 0781 C1070000 		.4byte	0x7c1
 5036 0785 05       		.uleb128 0x5
 5037 0786 03       		.byte	0x3
 5038 0787 00000000 		.4byte	display_7SegDigits.5603
 5039 078b 13       		.uleb128 0x13
 5040 078c 7C010000 		.4byte	.LASF56
 5041 0790 01       		.byte	0x1
 5042 0791 EF09     		.2byte	0x9ef
 5043 0793 6B000000 		.4byte	0x6b
 5044 0797 32040000 		.4byte	.LLST25
 5045 079b 13       		.uleb128 0x13
 5046 079c 38070000 		.4byte	.LASF57
 5047 07a0 01       		.byte	0x1
 5048 07a1 F009     		.2byte	0x9f0
 5049 07a3 6B000000 		.4byte	0x6b
 5050 07a7 45040000 		.4byte	.LLST26
 5051 07ab 00       		.byte	0
 5052 07ac 06       		.uleb128 0x6
 5053 07ad BC070000 		.4byte	0x7bc
 5054 07b1 BC070000 		.4byte	0x7bc
 5055 07b5 07       		.uleb128 0x7
 5056 07b6 DD000000 		.4byte	0xdd
 5057 07ba 0F       		.byte	0xf
 5058 07bb 00       		.byte	0
 5059 07bc 1C       		.uleb128 0x1c
 5060 07bd 6B000000 		.4byte	0x6b
 5061 07c1 1C       		.uleb128 0x1c
 5062 07c2 AC070000 		.4byte	0x7ac
 5063 07c6 15       		.uleb128 0x15
 5064 07c7 3B090000 		.4byte	.LASF58
 5065 07cb 01       		.byte	0x1
 5066 07cc 6004     		.2byte	0x460
 5067 07ce 00000000 		.4byte	.LFB15
 5068 07d2 24010000 		.4byte	.LFE15-.LFB15
 5069 07d6 01       		.uleb128 0x1
 5070 07d7 9C       		.byte	0x9c
 5071 07d8 9C080000 		.4byte	0x89c
 5072 07dc 16       		.uleb128 0x16
 5073 07dd 5C070000 		.4byte	.LASF54
 5074 07e1 01       		.byte	0x1
 5075 07e2 6004     		.2byte	0x460
 5076 07e4 83000000 		.4byte	0x83
 5077 07e8 6A040000 		.4byte	.LLST27
 5078 07ec 16       		.uleb128 0x16
 5079 07ed 81090000 		.4byte	.LASF33
 5080 07f1 01       		.byte	0x1
 5081 07f2 6004     		.2byte	0x460
 5082 07f4 6B000000 		.4byte	0x6b
 5083 07f8 8B040000 		.4byte	.LLST28
 5084 07fc 16       		.uleb128 0x16
 5085 07fd 8B020000 		.4byte	.LASF59
 5086 0801 01       		.byte	0x1
 5087 0802 6004     		.2byte	0x460
 5088 0804 6B000000 		.4byte	0x6b
 5089 0808 AC040000 		.4byte	.LLST29
ARM GAS  C:\Users\Dell\AppData\Local\Temp\ccFHrQg5.s 			page 158


 5090 080c 16       		.uleb128 0x16
 5091 080d 02090000 		.4byte	.LASF60
 5092 0811 01       		.byte	0x1
 5093 0812 6004     		.2byte	0x460
 5094 0814 6B000000 		.4byte	0x6b
 5095 0818 CD040000 		.4byte	.LLST30
 5096 081c 12       		.uleb128 0x12
 5097 081d 6900     		.ascii	"i\000"
 5098 081f 01       		.byte	0x1
 5099 0820 6304     		.2byte	0x463
 5100 0822 6B000000 		.4byte	0x6b
 5101 0826 EE040000 		.4byte	.LLST31
 5102 082a 13       		.uleb128 0x13
 5103 082b 9A090000 		.4byte	.LASF34
 5104 082f 01       		.byte	0x1
 5105 0830 6404     		.2byte	0x464
 5106 0832 6B000000 		.4byte	0x6b
 5107 0836 43050000 		.4byte	.LLST32
 5108 083a 13       		.uleb128 0x13
 5109 083b 6F060000 		.4byte	.LASF61
 5110 083f 01       		.byte	0x1
 5111 0840 6504     		.2byte	0x465
 5112 0842 6B000000 		.4byte	0x6b
 5113 0846 82050000 		.4byte	.LLST33
 5114 084a 13       		.uleb128 0x13
 5115 084b C5000000 		.4byte	.LASF62
 5116 084f 01       		.byte	0x1
 5117 0850 6604     		.2byte	0x466
 5118 0852 6B000000 		.4byte	0x6b
 5119 0856 AD050000 		.4byte	.LLST34
 5120 085a 13       		.uleb128 0x13
 5121 085b 56090000 		.4byte	.LASF63
 5122 085f 01       		.byte	0x1
 5123 0860 6704     		.2byte	0x467
 5124 0862 6B000000 		.4byte	0x6b
 5125 0866 C4050000 		.4byte	.LLST35
 5126 086a 14       		.uleb128 0x14
 5127 086b 74080000 		.4byte	.LASF64
 5128 086f 01       		.byte	0x1
 5129 0870 6804     		.2byte	0x468
 5130 0872 9C080000 		.4byte	0x89c
 5131 0876 02       		.uleb128 0x2
 5132 0877 91       		.byte	0x91
 5133 0878 58       		.sleb128 -40
 5134 0879 13       		.uleb128 0x13
 5135 087a 93030000 		.4byte	.LASF65
 5136 087e 01       		.byte	0x1
 5137 087f 6904     		.2byte	0x469
 5138 0881 83000000 		.4byte	0x83
 5139 0885 05060000 		.4byte	.LLST36
 5140 0889 10       		.uleb128 0x10
 5141 088a 3C000000 		.4byte	.LVL127
 5142 088e 4F070000 		.4byte	0x74f
 5143 0892 0E       		.uleb128 0xe
 5144 0893 01       		.uleb128 0x1
 5145 0894 50       		.byte	0x50
 5146 0895 04       		.uleb128 0x4
ARM GAS  C:\Users\Dell\AppData\Local\Temp\ccFHrQg5.s 			page 159


 5147 0896 79       		.byte	0x79
 5148 0897 00       		.sleb128 0
 5149 0898 3F       		.byte	0x3f
 5150 0899 1A       		.byte	0x1a
 5151 089a 00       		.byte	0
 5152 089b 00       		.byte	0
 5153 089c 06       		.uleb128 0x6
 5154 089d 6B000000 		.4byte	0x6b
 5155 08a1 AC080000 		.4byte	0x8ac
 5156 08a5 07       		.uleb128 0x7
 5157 08a6 DD000000 		.4byte	0xdd
 5158 08aa 07       		.byte	0x7
 5159 08ab 00       		.byte	0
 5160 08ac 15       		.uleb128 0x15
 5161 08ad D7010000 		.4byte	.LASF66
 5162 08b1 01       		.byte	0x1
 5163 08b2 8705     		.2byte	0x587
 5164 08b4 00000000 		.4byte	.LFB18
 5165 08b8 1C000000 		.4byte	.LFE18-.LFB18
 5166 08bc 01       		.uleb128 0x1
 5167 08bd 9C       		.byte	0x9c
 5168 08be FC080000 		.4byte	0x8fc
 5169 08c2 16       		.uleb128 0x16
 5170 08c3 70050000 		.4byte	.LASF67
 5171 08c7 01       		.byte	0x1
 5172 08c8 8705     		.2byte	0x587
 5173 08ca 6B000000 		.4byte	0x6b
 5174 08ce 23060000 		.4byte	.LLST37
 5175 08d2 16       		.uleb128 0x16
 5176 08d3 81090000 		.4byte	.LASF33
 5177 08d7 01       		.byte	0x1
 5178 08d8 8705     		.2byte	0x587
 5179 08da 6B000000 		.4byte	0x6b
 5180 08de 4F060000 		.4byte	.LLST38
 5181 08e2 13       		.uleb128 0x13
 5182 08e3 9A090000 		.4byte	.LASF34
 5183 08e7 01       		.byte	0x1
 5184 08e8 8A05     		.2byte	0x58a
 5185 08ea 6B000000 		.4byte	0x6b
 5186 08ee 7B060000 		.4byte	.LLST39
 5187 08f2 0F       		.uleb128 0xf
 5188 08f3 10000000 		.4byte	.LVL153
 5189 08f7 4F070000 		.4byte	0x74f
 5190 08fb 00       		.byte	0
 5191 08fc 15       		.uleb128 0x15
 5192 08fd C6070000 		.4byte	.LASF68
 5193 0901 01       		.byte	0x1
 5194 0902 BC05     		.2byte	0x5bc
 5195 0904 00000000 		.4byte	.LFB19
 5196 0908 18000000 		.4byte	.LFE19-.LFB19
 5197 090c 01       		.uleb128 0x1
 5198 090d 9C       		.byte	0x9c
 5199 090e 4C090000 		.4byte	0x94c
 5200 0912 16       		.uleb128 0x16
 5201 0913 70050000 		.4byte	.LASF67
 5202 0917 01       		.byte	0x1
 5203 0918 BC05     		.2byte	0x5bc
ARM GAS  C:\Users\Dell\AppData\Local\Temp\ccFHrQg5.s 			page 160


 5204 091a 6B000000 		.4byte	0x6b
 5205 091e 8E060000 		.4byte	.LLST40
 5206 0922 16       		.uleb128 0x16
 5207 0923 81090000 		.4byte	.LASF33
 5208 0927 01       		.byte	0x1
 5209 0928 BC05     		.2byte	0x5bc
 5210 092a 6B000000 		.4byte	0x6b
 5211 092e BA060000 		.4byte	.LLST41
 5212 0932 13       		.uleb128 0x13
 5213 0933 9A090000 		.4byte	.LASF34
 5214 0937 01       		.byte	0x1
 5215 0938 BF05     		.2byte	0x5bf
 5216 093a 6B000000 		.4byte	0x6b
 5217 093e E6060000 		.4byte	.LLST42
 5218 0942 0F       		.uleb128 0xf
 5219 0943 0C000000 		.4byte	.LVL157
 5220 0947 4F070000 		.4byte	0x74f
 5221 094b 00       		.byte	0
 5222 094c 19       		.uleb128 0x19
 5223 094d 40000000 		.4byte	.LASF69
 5224 0951 01       		.byte	0x1
 5225 0952 100A     		.2byte	0xa10
 5226 0954 6B000000 		.4byte	0x6b
 5227 0958 00000000 		.4byte	.LFB35
 5228 095c 24000000 		.4byte	.LFE35-.LFB35
 5229 0960 01       		.uleb128 0x1
 5230 0961 9C       		.byte	0x9c
 5231 0962 B9090000 		.4byte	0x9b9
 5232 0966 16       		.uleb128 0x16
 5233 0967 57000000 		.4byte	.LASF70
 5234 096b 01       		.byte	0x1
 5235 096c 100A     		.2byte	0xa10
 5236 096e A9000000 		.4byte	0xa9
 5237 0972 F9060000 		.4byte	.LLST43
 5238 0976 14       		.uleb128 0x14
 5239 0977 92020000 		.4byte	.LASF71
 5240 097b 01       		.byte	0x1
 5241 097c 480A     		.2byte	0xa48
 5242 097e CF090000 		.4byte	0x9cf
 5243 0982 05       		.uleb128 0x5
 5244 0983 03       		.byte	0x3
 5245 0984 10000000 		.4byte	display_7SegASCII.5609
 5246 0988 13       		.uleb128 0x13
 5247 0989 7A090000 		.4byte	.LASF72
 5248 098d 01       		.byte	0x1
 5249 098e 7D0A     		.2byte	0xa7d
 5250 0990 6B000000 		.4byte	0x6b
 5251 0994 1A070000 		.4byte	.LLST44
 5252 0998 13       		.uleb128 0x13
 5253 0999 34040000 		.4byte	.LASF73
 5254 099d 01       		.byte	0x1
 5255 099e 7E0A     		.2byte	0xa7e
 5256 09a0 6B000000 		.4byte	0x6b
 5257 09a4 38070000 		.4byte	.LLST45
 5258 09a8 13       		.uleb128 0x13
 5259 09a9 38070000 		.4byte	.LASF57
 5260 09ad 01       		.byte	0x1
ARM GAS  C:\Users\Dell\AppData\Local\Temp\ccFHrQg5.s 			page 161


 5261 09ae 7F0A     		.2byte	0xa7f
 5262 09b0 6B000000 		.4byte	0x6b
 5263 09b4 63070000 		.4byte	.LLST46
 5264 09b8 00       		.byte	0
 5265 09b9 06       		.uleb128 0x6
 5266 09ba BC070000 		.4byte	0x7bc
 5267 09be CF090000 		.4byte	0x9cf
 5268 09c2 07       		.uleb128 0x7
 5269 09c3 DD000000 		.4byte	0xdd
 5270 09c7 05       		.byte	0x5
 5271 09c8 07       		.uleb128 0x7
 5272 09c9 DD000000 		.4byte	0xdd
 5273 09cd 0F       		.byte	0xf
 5274 09ce 00       		.byte	0
 5275 09cf 1C       		.uleb128 0x1c
 5276 09d0 B9090000 		.4byte	0x9b9
 5277 09d4 15       		.uleb128 0x15
 5278 09d5 03060000 		.4byte	.LASF74
 5279 09d9 01       		.byte	0x1
 5280 09da 8503     		.2byte	0x385
 5281 09dc 00000000 		.4byte	.LFB14
 5282 09e0 80010000 		.4byte	.LFE14-.LFB14
 5283 09e4 01       		.uleb128 0x1
 5284 09e5 9C       		.byte	0x9c
 5285 09e6 E90A0000 		.4byte	0xae9
 5286 09ea 16       		.uleb128 0x16
 5287 09eb 5C070000 		.4byte	.LASF54
 5288 09ef 01       		.byte	0x1
 5289 09f0 8503     		.2byte	0x385
 5290 09f2 8F000000 		.4byte	0x8f
 5291 09f6 81070000 		.4byte	.LLST47
 5292 09fa 16       		.uleb128 0x16
 5293 09fb 81090000 		.4byte	.LASF33
 5294 09ff 01       		.byte	0x1
 5295 0a00 8503     		.2byte	0x385
 5296 0a02 6B000000 		.4byte	0x6b
 5297 0a06 A2070000 		.4byte	.LLST48
 5298 0a0a 16       		.uleb128 0x16
 5299 0a0b 8B020000 		.4byte	.LASF59
 5300 0a0f 01       		.byte	0x1
 5301 0a10 8503     		.2byte	0x385
 5302 0a12 6B000000 		.4byte	0x6b
 5303 0a16 C3070000 		.4byte	.LLST49
 5304 0a1a 16       		.uleb128 0x16
 5305 0a1b 02090000 		.4byte	.LASF60
 5306 0a1f 01       		.byte	0x1
 5307 0a20 8503     		.2byte	0x385
 5308 0a22 6B000000 		.4byte	0x6b
 5309 0a26 FD070000 		.4byte	.LLST50
 5310 0a2a 12       		.uleb128 0x12
 5311 0a2b 6900     		.ascii	"i\000"
 5312 0a2d 01       		.byte	0x1
 5313 0a2e 8803     		.2byte	0x388
 5314 0a30 6B000000 		.4byte	0x6b
 5315 0a34 1E080000 		.4byte	.LLST51
 5316 0a38 13       		.uleb128 0x13
 5317 0a39 9A090000 		.4byte	.LASF34
ARM GAS  C:\Users\Dell\AppData\Local\Temp\ccFHrQg5.s 			page 162


 5318 0a3d 01       		.byte	0x1
 5319 0a3e 8903     		.2byte	0x389
 5320 0a40 6B000000 		.4byte	0x6b
 5321 0a44 AA080000 		.4byte	.LLST52
 5322 0a48 13       		.uleb128 0x13
 5323 0a49 6F060000 		.4byte	.LASF61
 5324 0a4d 01       		.byte	0x1
 5325 0a4e 8A03     		.2byte	0x38a
 5326 0a50 6B000000 		.4byte	0x6b
 5327 0a54 E9080000 		.4byte	.LLST53
 5328 0a58 13       		.uleb128 0x13
 5329 0a59 69080000 		.4byte	.LASF75
 5330 0a5d 01       		.byte	0x1
 5331 0a5e 8B03     		.2byte	0x38b
 5332 0a60 6B000000 		.4byte	0x6b
 5333 0a64 14090000 		.4byte	.LLST54
 5334 0a68 13       		.uleb128 0x13
 5335 0a69 C5000000 		.4byte	.LASF62
 5336 0a6d 01       		.byte	0x1
 5337 0a6e 8C03     		.2byte	0x38c
 5338 0a70 6B000000 		.4byte	0x6b
 5339 0a74 4A090000 		.4byte	.LLST55
 5340 0a78 13       		.uleb128 0x13
 5341 0a79 56090000 		.4byte	.LASF63
 5342 0a7d 01       		.byte	0x1
 5343 0a7e 8D03     		.2byte	0x38d
 5344 0a80 6B000000 		.4byte	0x6b
 5345 0a84 5D090000 		.4byte	.LLST56
 5346 0a88 14       		.uleb128 0x14
 5347 0a89 74080000 		.4byte	.LASF64
 5348 0a8d 01       		.byte	0x1
 5349 0a8e 8E03     		.2byte	0x38e
 5350 0a90 9C080000 		.4byte	0x89c
 5351 0a94 02       		.uleb128 0x2
 5352 0a95 91       		.byte	0x91
 5353 0a96 58       		.sleb128 -40
 5354 0a97 13       		.uleb128 0x13
 5355 0a98 93030000 		.4byte	.LASF65
 5356 0a9c 01       		.byte	0x1
 5357 0a9d 8F03     		.2byte	0x38f
 5358 0a9f 83000000 		.4byte	0x83
 5359 0aa3 B4090000 		.4byte	.LLST57
 5360 0aa7 0F       		.uleb128 0xf
 5361 0aa8 5E000000 		.4byte	.LVL185
 5362 0aac 4F070000 		.4byte	0x74f
 5363 0ab0 0D       		.uleb128 0xd
 5364 0ab1 80000000 		.4byte	.LVL188
 5365 0ab5 4C090000 		.4byte	0x94c
 5366 0ab9 C40A0000 		.4byte	0xac4
 5367 0abd 0E       		.uleb128 0xe
 5368 0abe 01       		.uleb128 0x1
 5369 0abf 50       		.byte	0x50
 5370 0ac0 02       		.uleb128 0x2
 5371 0ac1 08       		.byte	0x8
 5372 0ac2 2D       		.byte	0x2d
 5373 0ac3 00       		.byte	0
 5374 0ac4 0D       		.uleb128 0xd
ARM GAS  C:\Users\Dell\AppData\Local\Temp\ccFHrQg5.s 			page 163


 5375 0ac5 A2000000 		.4byte	.LVL190
 5376 0ac9 4C090000 		.4byte	0x94c
 5377 0acd D80A0000 		.4byte	0xad8
 5378 0ad1 0E       		.uleb128 0xe
 5379 0ad2 01       		.uleb128 0x1
 5380 0ad3 50       		.byte	0x50
 5381 0ad4 02       		.uleb128 0x2
 5382 0ad5 08       		.byte	0x8
 5383 0ad6 2D       		.byte	0x2d
 5384 0ad7 00       		.byte	0
 5385 0ad8 10       		.uleb128 0x10
 5386 0ad9 B6000000 		.4byte	.LVL193
 5387 0add 4C090000 		.4byte	0x94c
 5388 0ae1 0E       		.uleb128 0xe
 5389 0ae2 01       		.uleb128 0x1
 5390 0ae3 50       		.byte	0x50
 5391 0ae4 02       		.uleb128 0x2
 5392 0ae5 08       		.byte	0x8
 5393 0ae6 2D       		.byte	0x2d
 5394 0ae7 00       		.byte	0
 5395 0ae8 00       		.byte	0
 5396 0ae9 15       		.uleb128 0x15
 5397 0aea 1A080000 		.4byte	.LASF76
 5398 0aee 01       		.byte	0x1
 5399 0aef 0C05     		.2byte	0x50c
 5400 0af1 00000000 		.4byte	.LFB16
 5401 0af5 38000000 		.4byte	.LFE16-.LFB16
 5402 0af9 01       		.uleb128 0x1
 5403 0afa 9C       		.byte	0x9c
 5404 0afb 6B0B0000 		.4byte	0xb6b
 5405 0aff 16       		.uleb128 0x16
 5406 0b00 9D030000 		.4byte	.LASF77
 5407 0b04 01       		.byte	0x1
 5408 0b05 0C05     		.2byte	0x50c
 5409 0b07 6B0B0000 		.4byte	0xb6b
 5410 0b0b E8090000 		.4byte	.LLST58
 5411 0b0f 16       		.uleb128 0x16
 5412 0b10 81090000 		.4byte	.LASF33
 5413 0b14 01       		.byte	0x1
 5414 0b15 0C05     		.2byte	0x50c
 5415 0b17 6B000000 		.4byte	0x6b
 5416 0b1b 110A0000 		.4byte	.LLST59
 5417 0b1f 13       		.uleb128 0x13
 5418 0b20 9A090000 		.4byte	.LASF34
 5419 0b24 01       		.byte	0x1
 5420 0b25 0F05     		.2byte	0x50f
 5421 0b27 6B000000 		.4byte	0x6b
 5422 0b2b 3D0A0000 		.4byte	.LLST60
 5423 0b2f 13       		.uleb128 0x13
 5424 0b30 B5060000 		.4byte	.LASF78
 5425 0b34 01       		.byte	0x1
 5426 0b35 1005     		.2byte	0x510
 5427 0b37 6B000000 		.4byte	0x6b
 5428 0b3b 5B0A0000 		.4byte	.LLST61
 5429 0b3f 12       		.uleb128 0x12
 5430 0b40 6900     		.ascii	"i\000"
 5431 0b42 01       		.byte	0x1
ARM GAS  C:\Users\Dell\AppData\Local\Temp\ccFHrQg5.s 			page 164


 5432 0b43 1105     		.2byte	0x511
 5433 0b45 6B000000 		.4byte	0x6b
 5434 0b49 6E0A0000 		.4byte	.LLST62
 5435 0b4d 0D       		.uleb128 0xd
 5436 0b4e 0E000000 		.4byte	.LVL219
 5437 0b52 9D160000 		.4byte	0x169d
 5438 0b56 610B0000 		.4byte	0xb61
 5439 0b5a 0E       		.uleb128 0xe
 5440 0b5b 01       		.uleb128 0x1
 5441 0b5c 50       		.byte	0x50
 5442 0b5d 02       		.uleb128 0x2
 5443 0b5e 77       		.byte	0x77
 5444 0b5f 00       		.sleb128 0
 5445 0b60 00       		.byte	0
 5446 0b61 0F       		.uleb128 0xf
 5447 0b62 20000000 		.4byte	.LVL222
 5448 0b66 4C090000 		.4byte	0x94c
 5449 0b6a 00       		.byte	0
 5450 0b6b 1D       		.uleb128 0x1d
 5451 0b6c 04       		.byte	0x4
 5452 0b6d 710B0000 		.4byte	0xb71
 5453 0b71 1C       		.uleb128 0x1c
 5454 0b72 A9000000 		.4byte	0xa9
 5455 0b76 15       		.uleb128 0x15
 5456 0b77 C8050000 		.4byte	.LASF79
 5457 0b7b 01       		.byte	0x1
 5458 0b7c 5605     		.2byte	0x556
 5459 0b7e 00000000 		.4byte	.LFB17
 5460 0b82 18000000 		.4byte	.LFE17-.LFB17
 5461 0b86 01       		.uleb128 0x1
 5462 0b87 9C       		.byte	0x9c
 5463 0b88 C60B0000 		.4byte	0xbc6
 5464 0b8c 16       		.uleb128 0x16
 5465 0b8d 9D030000 		.4byte	.LASF77
 5466 0b91 01       		.byte	0x1
 5467 0b92 5605     		.2byte	0x556
 5468 0b94 A9000000 		.4byte	0xa9
 5469 0b98 A40A0000 		.4byte	.LLST63
 5470 0b9c 16       		.uleb128 0x16
 5471 0b9d 81090000 		.4byte	.LASF33
 5472 0ba1 01       		.byte	0x1
 5473 0ba2 5605     		.2byte	0x556
 5474 0ba4 6B000000 		.4byte	0x6b
 5475 0ba8 D00A0000 		.4byte	.LLST64
 5476 0bac 13       		.uleb128 0x13
 5477 0bad 9A090000 		.4byte	.LASF34
 5478 0bb1 01       		.byte	0x1
 5479 0bb2 5905     		.2byte	0x559
 5480 0bb4 6B000000 		.4byte	0x6b
 5481 0bb8 FC0A0000 		.4byte	.LLST65
 5482 0bbc 0F       		.uleb128 0xf
 5483 0bbd 0C000000 		.4byte	.LVL230
 5484 0bc1 4C090000 		.4byte	0x94c
 5485 0bc5 00       		.byte	0
 5486 0bc6 19       		.uleb128 0x19
 5487 0bc7 60090000 		.4byte	.LASF80
 5488 0bcb 01       		.byte	0x1
ARM GAS  C:\Users\Dell\AppData\Local\Temp\ccFHrQg5.s 			page 165


 5489 0bcc AD0A     		.2byte	0xaad
 5490 0bce 77000000 		.4byte	0x77
 5491 0bd2 00000000 		.4byte	.LFB36
 5492 0bd6 1C000000 		.4byte	.LFE36-.LFB36
 5493 0bda 01       		.uleb128 0x1
 5494 0bdb 9C       		.byte	0x9c
 5495 0bdc 530C0000 		.4byte	0xc53
 5496 0be0 16       		.uleb128 0x16
 5497 0be1 5C070000 		.4byte	.LASF54
 5498 0be5 01       		.byte	0x1
 5499 0be6 AD0A     		.2byte	0xaad
 5500 0be8 6B000000 		.4byte	0x6b
 5501 0bec 0F0B0000 		.4byte	.LLST66
 5502 0bf0 14       		.uleb128 0x14
 5503 0bf1 2F050000 		.4byte	.LASF81
 5504 0bf5 01       		.byte	0x1
 5505 0bf6 C70A     		.2byte	0xac7
 5506 0bf8 530C0000 		.4byte	0xc53
 5507 0bfc 05       		.uleb128 0x5
 5508 0bfd 03       		.byte	0x3
 5509 0bfe 80000000 		.4byte	display_14SegDigitsLow.5616
 5510 0c02 14       		.uleb128 0x14
 5511 0c03 18000000 		.4byte	.LASF82
 5512 0c07 01       		.byte	0x1
 5513 0c08 D20A     		.2byte	0xad2
 5514 0c0a 580C0000 		.4byte	0xc58
 5515 0c0e 05       		.uleb128 0x5
 5516 0c0f 03       		.byte	0x3
 5517 0c10 70000000 		.4byte	display_14SegDigitsHigh.5617
 5518 0c14 13       		.uleb128 0x13
 5519 0c15 7C010000 		.4byte	.LASF56
 5520 0c19 01       		.byte	0x1
 5521 0c1a DD0A     		.2byte	0xadd
 5522 0c1c 6B000000 		.4byte	0x6b
 5523 0c20 300B0000 		.4byte	.LLST67
 5524 0c24 14       		.uleb128 0x14
 5525 0c25 7A090000 		.4byte	.LASF72
 5526 0c29 01       		.byte	0x1
 5527 0c2a DE0A     		.2byte	0xade
 5528 0c2c 77000000 		.4byte	0x77
 5529 0c30 01       		.uleb128 0x1
 5530 0c31 53       		.byte	0x53
 5531 0c32 13       		.uleb128 0x13
 5532 0c33 34040000 		.4byte	.LASF73
 5533 0c37 01       		.byte	0x1
 5534 0c38 DF0A     		.2byte	0xadf
 5535 0c3a 77000000 		.4byte	0x77
 5536 0c3e 430B0000 		.4byte	.LLST68
 5537 0c42 13       		.uleb128 0x13
 5538 0c43 38070000 		.4byte	.LASF57
 5539 0c47 01       		.byte	0x1
 5540 0c48 E00A     		.2byte	0xae0
 5541 0c4a 77000000 		.4byte	0x77
 5542 0c4e 5A0B0000 		.4byte	.LLST69
 5543 0c52 00       		.byte	0
 5544 0c53 1C       		.uleb128 0x1c
 5545 0c54 AC070000 		.4byte	0x7ac
ARM GAS  C:\Users\Dell\AppData\Local\Temp\ccFHrQg5.s 			page 166


 5546 0c58 1C       		.uleb128 0x1c
 5547 0c59 AC070000 		.4byte	0x7ac
 5548 0c5d 15       		.uleb128 0x15
 5549 0c5e 8C000000 		.4byte	.LASF83
 5550 0c62 01       		.byte	0x1
 5551 0c63 9906     		.2byte	0x699
 5552 0c65 00000000 		.4byte	.LFB21
 5553 0c69 D0000000 		.4byte	.LFE21-.LFB21
 5554 0c6d 01       		.uleb128 0x1
 5555 0c6e 9C       		.byte	0x9c
 5556 0c6f 130D0000 		.4byte	0xd13
 5557 0c73 16       		.uleb128 0x16
 5558 0c74 5C070000 		.4byte	.LASF54
 5559 0c78 01       		.byte	0x1
 5560 0c79 9906     		.2byte	0x699
 5561 0c7b 83000000 		.4byte	0x83
 5562 0c7f 740B0000 		.4byte	.LLST70
 5563 0c83 16       		.uleb128 0x16
 5564 0c84 81090000 		.4byte	.LASF33
 5565 0c88 01       		.byte	0x1
 5566 0c89 9906     		.2byte	0x699
 5567 0c8b 6B000000 		.4byte	0x6b
 5568 0c8f 950B0000 		.4byte	.LLST71
 5569 0c93 16       		.uleb128 0x16
 5570 0c94 8B020000 		.4byte	.LASF59
 5571 0c98 01       		.byte	0x1
 5572 0c99 9906     		.2byte	0x699
 5573 0c9b 6B000000 		.4byte	0x6b
 5574 0c9f B60B0000 		.4byte	.LLST72
 5575 0ca3 16       		.uleb128 0x16
 5576 0ca4 02090000 		.4byte	.LASF60
 5577 0ca8 01       		.byte	0x1
 5578 0ca9 9906     		.2byte	0x699
 5579 0cab 6B000000 		.4byte	0x6b
 5580 0caf D70B0000 		.4byte	.LLST73
 5581 0cb3 12       		.uleb128 0x12
 5582 0cb4 6900     		.ascii	"i\000"
 5583 0cb6 01       		.byte	0x1
 5584 0cb7 9C06     		.2byte	0x69c
 5585 0cb9 6B000000 		.4byte	0x6b
 5586 0cbd F80B0000 		.4byte	.LLST74
 5587 0cc1 13       		.uleb128 0x13
 5588 0cc2 9A090000 		.4byte	.LASF34
 5589 0cc6 01       		.byte	0x1
 5590 0cc7 9D06     		.2byte	0x69d
 5591 0cc9 6B000000 		.4byte	0x6b
 5592 0ccd 4D0C0000 		.4byte	.LLST75
 5593 0cd1 13       		.uleb128 0x13
 5594 0cd2 C5000000 		.4byte	.LASF62
 5595 0cd6 01       		.byte	0x1
 5596 0cd7 9E06     		.2byte	0x69e
 5597 0cd9 6B000000 		.4byte	0x6b
 5598 0cdd 760C0000 		.4byte	.LLST76
 5599 0ce1 14       		.uleb128 0x14
 5600 0ce2 74080000 		.4byte	.LASF64
 5601 0ce6 01       		.byte	0x1
 5602 0ce7 9F06     		.2byte	0x69f
ARM GAS  C:\Users\Dell\AppData\Local\Temp\ccFHrQg5.s 			page 167


 5603 0ce9 130D0000 		.4byte	0xd13
 5604 0ced 02       		.uleb128 0x2
 5605 0cee 91       		.byte	0x91
 5606 0cef 58       		.sleb128 -40
 5607 0cf0 13       		.uleb128 0x13
 5608 0cf1 93030000 		.4byte	.LASF65
 5609 0cf5 01       		.byte	0x1
 5610 0cf6 A006     		.2byte	0x6a0
 5611 0cf8 83000000 		.4byte	0x83
 5612 0cfc 8D0C0000 		.4byte	.LLST77
 5613 0d00 10       		.uleb128 0x10
 5614 0d01 26000000 		.4byte	.LVL241
 5615 0d05 C60B0000 		.4byte	0xbc6
 5616 0d09 0E       		.uleb128 0xe
 5617 0d0a 01       		.uleb128 0x1
 5618 0d0b 50       		.byte	0x50
 5619 0d0c 04       		.uleb128 0x4
 5620 0d0d 77       		.byte	0x77
 5621 0d0e 00       		.sleb128 0
 5622 0d0f 3F       		.byte	0x3f
 5623 0d10 1A       		.byte	0x1a
 5624 0d11 00       		.byte	0
 5625 0d12 00       		.byte	0
 5626 0d13 06       		.uleb128 0x6
 5627 0d14 77000000 		.4byte	0x77
 5628 0d18 230D0000 		.4byte	0xd23
 5629 0d1c 07       		.uleb128 0x7
 5630 0d1d DD000000 		.4byte	0xdd
 5631 0d21 07       		.byte	0x7
 5632 0d22 00       		.byte	0
 5633 0d23 15       		.uleb128 0x15
 5634 0d24 7C040000 		.4byte	.LASF84
 5635 0d28 01       		.byte	0x1
 5636 0d29 5007     		.2byte	0x750
 5637 0d2b 00000000 		.4byte	.LFB24
 5638 0d2f 1C000000 		.4byte	.LFE24-.LFB24
 5639 0d33 01       		.uleb128 0x1
 5640 0d34 9C       		.byte	0x9c
 5641 0d35 730D0000 		.4byte	0xd73
 5642 0d39 16       		.uleb128 0x16
 5643 0d3a 70050000 		.4byte	.LASF67
 5644 0d3e 01       		.byte	0x1
 5645 0d3f 5007     		.2byte	0x750
 5646 0d41 6B000000 		.4byte	0x6b
 5647 0d45 AB0C0000 		.4byte	.LLST78
 5648 0d49 16       		.uleb128 0x16
 5649 0d4a 81090000 		.4byte	.LASF33
 5650 0d4e 01       		.byte	0x1
 5651 0d4f 5007     		.2byte	0x750
 5652 0d51 6B000000 		.4byte	0x6b
 5653 0d55 D70C0000 		.4byte	.LLST79
 5654 0d59 13       		.uleb128 0x13
 5655 0d5a 4D080000 		.4byte	.LASF85
 5656 0d5e 01       		.byte	0x1
 5657 0d5f 5307     		.2byte	0x753
 5658 0d61 77000000 		.4byte	0x77
 5659 0d65 030D0000 		.4byte	.LLST80
ARM GAS  C:\Users\Dell\AppData\Local\Temp\ccFHrQg5.s 			page 168


 5660 0d69 0F       		.uleb128 0xf
 5661 0d6a 10000000 		.4byte	.LVL261
 5662 0d6e C60B0000 		.4byte	0xbc6
 5663 0d72 00       		.byte	0
 5664 0d73 15       		.uleb128 0x15
 5665 0d74 64000000 		.4byte	.LASF86
 5666 0d78 01       		.byte	0x1
 5667 0d79 7307     		.2byte	0x773
 5668 0d7b 00000000 		.4byte	.LFB25
 5669 0d7f 18000000 		.4byte	.LFE25-.LFB25
 5670 0d83 01       		.uleb128 0x1
 5671 0d84 9C       		.byte	0x9c
 5672 0d85 C30D0000 		.4byte	0xdc3
 5673 0d89 16       		.uleb128 0x16
 5674 0d8a 70050000 		.4byte	.LASF67
 5675 0d8e 01       		.byte	0x1
 5676 0d8f 7307     		.2byte	0x773
 5677 0d91 6B000000 		.4byte	0x6b
 5678 0d95 160D0000 		.4byte	.LLST81
 5679 0d99 16       		.uleb128 0x16
 5680 0d9a 81090000 		.4byte	.LASF33
 5681 0d9e 01       		.byte	0x1
 5682 0d9f 7307     		.2byte	0x773
 5683 0da1 6B000000 		.4byte	0x6b
 5684 0da5 420D0000 		.4byte	.LLST82
 5685 0da9 13       		.uleb128 0x13
 5686 0daa 4D080000 		.4byte	.LASF85
 5687 0dae 01       		.byte	0x1
 5688 0daf 7607     		.2byte	0x776
 5689 0db1 77000000 		.4byte	0x77
 5690 0db5 6E0D0000 		.4byte	.LLST83
 5691 0db9 0F       		.uleb128 0xf
 5692 0dba 0C000000 		.4byte	.LVL264
 5693 0dbe C60B0000 		.4byte	0xbc6
 5694 0dc2 00       		.byte	0
 5695 0dc3 19       		.uleb128 0x19
 5696 0dc4 00000000 		.4byte	.LASF87
 5697 0dc8 01       		.byte	0x1
 5698 0dc9 070B     		.2byte	0xb07
 5699 0dcb 77000000 		.4byte	0x77
 5700 0dcf 00000000 		.4byte	.LFB37
 5701 0dd3 30000000 		.4byte	.LFE37-.LFB37
 5702 0dd7 01       		.uleb128 0x1
 5703 0dd8 9C       		.byte	0x9c
 5704 0dd9 620E0000 		.4byte	0xe62
 5705 0ddd 16       		.uleb128 0x16
 5706 0dde 57000000 		.4byte	.LASF70
 5707 0de2 01       		.byte	0x1
 5708 0de3 070B     		.2byte	0xb07
 5709 0de5 A9000000 		.4byte	0xa9
 5710 0de9 810D0000 		.4byte	.LLST84
 5711 0ded 14       		.uleb128 0x14
 5712 0dee 4C010000 		.4byte	.LASF88
 5713 0df2 01       		.byte	0x1
 5714 0df3 750B     		.2byte	0xb75
 5715 0df5 620E0000 		.4byte	0xe62
 5716 0df9 05       		.uleb128 0x5
ARM GAS  C:\Users\Dell\AppData\Local\Temp\ccFHrQg5.s 			page 169


 5717 0dfa 03       		.byte	0x3
 5718 0dfb F0000000 		.4byte	display_14SegASCIILow.5625
 5719 0dff 14       		.uleb128 0x14
 5720 0e00 1D040000 		.4byte	.LASF89
 5721 0e04 01       		.byte	0x1
 5722 0e05 AA0B     		.2byte	0xbaa
 5723 0e07 670E0000 		.4byte	0xe67
 5724 0e0b 05       		.uleb128 0x5
 5725 0e0c 03       		.byte	0x3
 5726 0e0d 90000000 		.4byte	display_14SegASCIIHigh.5626
 5727 0e11 13       		.uleb128 0x13
 5728 0e12 7A090000 		.4byte	.LASF72
 5729 0e16 01       		.byte	0x1
 5730 0e17 DF0B     		.2byte	0xbdf
 5731 0e19 6B000000 		.4byte	0x6b
 5732 0e1d A20D0000 		.4byte	.LLST85
 5733 0e21 13       		.uleb128 0x13
 5734 0e22 34040000 		.4byte	.LASF73
 5735 0e26 01       		.byte	0x1
 5736 0e27 E00B     		.2byte	0xbe0
 5737 0e29 6B000000 		.4byte	0x6b
 5738 0e2d C00D0000 		.4byte	.LLST86
 5739 0e31 13       		.uleb128 0x13
 5740 0e32 54040000 		.4byte	.LASF90
 5741 0e36 01       		.byte	0x1
 5742 0e37 E10B     		.2byte	0xbe1
 5743 0e39 77000000 		.4byte	0x77
 5744 0e3d EB0D0000 		.4byte	.LLST87
 5745 0e41 13       		.uleb128 0x13
 5746 0e42 BB070000 		.4byte	.LASF91
 5747 0e46 01       		.byte	0x1
 5748 0e47 E20B     		.2byte	0xbe2
 5749 0e49 77000000 		.4byte	0x77
 5750 0e4d FE0D0000 		.4byte	.LLST88
 5751 0e51 13       		.uleb128 0x13
 5752 0e52 38070000 		.4byte	.LASF57
 5753 0e56 01       		.byte	0x1
 5754 0e57 E30B     		.2byte	0xbe3
 5755 0e59 77000000 		.4byte	0x77
 5756 0e5d 150E0000 		.4byte	.LLST89
 5757 0e61 00       		.byte	0
 5758 0e62 1C       		.uleb128 0x1c
 5759 0e63 B9090000 		.4byte	0x9b9
 5760 0e67 1C       		.uleb128 0x1c
 5761 0e68 B9090000 		.4byte	0x9b9
 5762 0e6c 15       		.uleb128 0x15
 5763 0e6d D4040000 		.4byte	.LASF92
 5764 0e71 01       		.byte	0x1
 5765 0e72 FC05     		.2byte	0x5fc
 5766 0e74 00000000 		.4byte	.LFB20
 5767 0e78 40010000 		.4byte	.LFE20-.LFB20
 5768 0e7c 01       		.uleb128 0x1
 5769 0e7d 9C       		.byte	0x9c
 5770 0e7e 710F0000 		.4byte	0xf71
 5771 0e82 16       		.uleb128 0x16
 5772 0e83 5C070000 		.4byte	.LASF54
 5773 0e87 01       		.byte	0x1
ARM GAS  C:\Users\Dell\AppData\Local\Temp\ccFHrQg5.s 			page 170


 5774 0e88 FC05     		.2byte	0x5fc
 5775 0e8a 8F000000 		.4byte	0x8f
 5776 0e8e 330E0000 		.4byte	.LLST90
 5777 0e92 16       		.uleb128 0x16
 5778 0e93 81090000 		.4byte	.LASF33
 5779 0e97 01       		.byte	0x1
 5780 0e98 FC05     		.2byte	0x5fc
 5781 0e9a 6B000000 		.4byte	0x6b
 5782 0e9e 540E0000 		.4byte	.LLST91
 5783 0ea2 16       		.uleb128 0x16
 5784 0ea3 8B020000 		.4byte	.LASF59
 5785 0ea7 01       		.byte	0x1
 5786 0ea8 FC05     		.2byte	0x5fc
 5787 0eaa 6B000000 		.4byte	0x6b
 5788 0eae 750E0000 		.4byte	.LLST92
 5789 0eb2 16       		.uleb128 0x16
 5790 0eb3 02090000 		.4byte	.LASF60
 5791 0eb7 01       		.byte	0x1
 5792 0eb8 FC05     		.2byte	0x5fc
 5793 0eba 6B000000 		.4byte	0x6b
 5794 0ebe AF0E0000 		.4byte	.LLST93
 5795 0ec2 12       		.uleb128 0x12
 5796 0ec3 6900     		.ascii	"i\000"
 5797 0ec5 01       		.byte	0x1
 5798 0ec6 FF05     		.2byte	0x5ff
 5799 0ec8 6B000000 		.4byte	0x6b
 5800 0ecc D00E0000 		.4byte	.LLST94
 5801 0ed0 13       		.uleb128 0x13
 5802 0ed1 9A090000 		.4byte	.LASF34
 5803 0ed5 01       		.byte	0x1
 5804 0ed6 0006     		.2byte	0x600
 5805 0ed8 6B000000 		.4byte	0x6b
 5806 0edc 5C0F0000 		.4byte	.LLST95
 5807 0ee0 13       		.uleb128 0x13
 5808 0ee1 69080000 		.4byte	.LASF75
 5809 0ee5 01       		.byte	0x1
 5810 0ee6 0106     		.2byte	0x601
 5811 0ee8 6B000000 		.4byte	0x6b
 5812 0eec 850F0000 		.4byte	.LLST96
 5813 0ef0 13       		.uleb128 0x13
 5814 0ef1 C5000000 		.4byte	.LASF62
 5815 0ef5 01       		.byte	0x1
 5816 0ef6 0206     		.2byte	0x602
 5817 0ef8 6B000000 		.4byte	0x6b
 5818 0efc BB0F0000 		.4byte	.LLST97
 5819 0f00 13       		.uleb128 0x13
 5820 0f01 56090000 		.4byte	.LASF63
 5821 0f05 01       		.byte	0x1
 5822 0f06 0306     		.2byte	0x603
 5823 0f08 6B000000 		.4byte	0x6b
 5824 0f0c CE0F0000 		.4byte	.LLST98
 5825 0f10 14       		.uleb128 0x14
 5826 0f11 74080000 		.4byte	.LASF64
 5827 0f15 01       		.byte	0x1
 5828 0f16 0406     		.2byte	0x604
 5829 0f18 130D0000 		.4byte	0xd13
 5830 0f1c 02       		.uleb128 0x2
ARM GAS  C:\Users\Dell\AppData\Local\Temp\ccFHrQg5.s 			page 171


 5831 0f1d 91       		.byte	0x91
 5832 0f1e 50       		.sleb128 -48
 5833 0f1f 13       		.uleb128 0x13
 5834 0f20 93030000 		.4byte	.LASF65
 5835 0f24 01       		.byte	0x1
 5836 0f25 0506     		.2byte	0x605
 5837 0f27 83000000 		.4byte	0x83
 5838 0f2b 25100000 		.4byte	.LLST99
 5839 0f2f 0F       		.uleb128 0xf
 5840 0f30 44000000 		.4byte	.LVL288
 5841 0f34 C60B0000 		.4byte	0xbc6
 5842 0f38 0D       		.uleb128 0xd
 5843 0f39 64000000 		.4byte	.LVL291
 5844 0f3d C30D0000 		.4byte	0xdc3
 5845 0f41 4C0F0000 		.4byte	0xf4c
 5846 0f45 0E       		.uleb128 0xe
 5847 0f46 01       		.uleb128 0x1
 5848 0f47 50       		.byte	0x50
 5849 0f48 02       		.uleb128 0x2
 5850 0f49 08       		.byte	0x8
 5851 0f4a 2D       		.byte	0x2d
 5852 0f4b 00       		.byte	0
 5853 0f4c 0D       		.uleb128 0xd
 5854 0f4d 88000000 		.4byte	.LVL293
 5855 0f51 C30D0000 		.4byte	0xdc3
 5856 0f55 600F0000 		.4byte	0xf60
 5857 0f59 0E       		.uleb128 0xe
 5858 0f5a 01       		.uleb128 0x1
 5859 0f5b 50       		.byte	0x50
 5860 0f5c 02       		.uleb128 0x2
 5861 0f5d 08       		.byte	0x8
 5862 0f5e 2D       		.byte	0x2d
 5863 0f5f 00       		.byte	0
 5864 0f60 10       		.uleb128 0x10
 5865 0f61 9C000000 		.4byte	.LVL296
 5866 0f65 C30D0000 		.4byte	0xdc3
 5867 0f69 0E       		.uleb128 0xe
 5868 0f6a 01       		.uleb128 0x1
 5869 0f6b 50       		.byte	0x50
 5870 0f6c 02       		.uleb128 0x2
 5871 0f6d 08       		.byte	0x8
 5872 0f6e 2D       		.byte	0x2d
 5873 0f6f 00       		.byte	0
 5874 0f70 00       		.byte	0
 5875 0f71 15       		.uleb128 0x15
 5876 0f72 0C090000 		.4byte	.LASF93
 5877 0f76 01       		.byte	0x1
 5878 0f77 0007     		.2byte	0x700
 5879 0f79 00000000 		.4byte	.LFB22
 5880 0f7d 34000000 		.4byte	.LFE22-.LFB22
 5881 0f81 01       		.uleb128 0x1
 5882 0f82 9C       		.byte	0x9c
 5883 0f83 03100000 		.4byte	0x1003
 5884 0f87 16       		.uleb128 0x16
 5885 0f88 9D030000 		.4byte	.LASF77
 5886 0f8c 01       		.byte	0x1
 5887 0f8d 0007     		.2byte	0x700
ARM GAS  C:\Users\Dell\AppData\Local\Temp\ccFHrQg5.s 			page 172


 5888 0f8f 6B0B0000 		.4byte	0xb6b
 5889 0f93 59100000 		.4byte	.LLST100
 5890 0f97 16       		.uleb128 0x16
 5891 0f98 81090000 		.4byte	.LASF33
 5892 0f9c 01       		.byte	0x1
 5893 0f9d 0007     		.2byte	0x700
 5894 0f9f 6B000000 		.4byte	0x6b
 5895 0fa3 85100000 		.4byte	.LLST101
 5896 0fa7 13       		.uleb128 0x13
 5897 0fa8 59030000 		.4byte	.LASF94
 5898 0fac 01       		.byte	0x1
 5899 0fad 0307     		.2byte	0x703
 5900 0faf 6B000000 		.4byte	0x6b
 5901 0fb3 A6100000 		.4byte	.LLST102
 5902 0fb7 13       		.uleb128 0x13
 5903 0fb8 B5060000 		.4byte	.LASF78
 5904 0fbc 01       		.byte	0x1
 5905 0fbd 0407     		.2byte	0x704
 5906 0fbf 6B000000 		.4byte	0x6b
 5907 0fc3 C4100000 		.4byte	.LLST103
 5908 0fc7 12       		.uleb128 0x12
 5909 0fc8 6900     		.ascii	"i\000"
 5910 0fca 01       		.byte	0x1
 5911 0fcb 0507     		.2byte	0x705
 5912 0fcd 6B000000 		.4byte	0x6b
 5913 0fd1 D7100000 		.4byte	.LLST104
 5914 0fd5 13       		.uleb128 0x13
 5915 0fd6 4D080000 		.4byte	.LASF85
 5916 0fda 01       		.byte	0x1
 5917 0fdb 0607     		.2byte	0x706
 5918 0fdd 77000000 		.4byte	0x77
 5919 0fe1 01110000 		.4byte	.LLST105
 5920 0fe5 0D       		.uleb128 0xd
 5921 0fe6 0A000000 		.4byte	.LVL323
 5922 0fea 9D160000 		.4byte	0x169d
 5923 0fee F90F0000 		.4byte	0xff9
 5924 0ff2 0E       		.uleb128 0xe
 5925 0ff3 01       		.uleb128 0x1
 5926 0ff4 50       		.byte	0x50
 5927 0ff5 02       		.uleb128 0x2
 5928 0ff6 77       		.byte	0x77
 5929 0ff7 00       		.sleb128 0
 5930 0ff8 00       		.byte	0
 5931 0ff9 0F       		.uleb128 0xf
 5932 0ffa 1C000000 		.4byte	.LVL326
 5933 0ffe C30D0000 		.4byte	0xdc3
 5934 1002 00       		.byte	0
 5935 1003 15       		.uleb128 0x15
 5936 1004 63070000 		.4byte	.LASF95
 5937 1008 01       		.byte	0x1
 5938 1009 2D07     		.2byte	0x72d
 5939 100b 00000000 		.4byte	.LFB23
 5940 100f 18000000 		.4byte	.LFE23-.LFB23
 5941 1013 01       		.uleb128 0x1
 5942 1014 9C       		.byte	0x9c
 5943 1015 53100000 		.4byte	0x1053
 5944 1019 16       		.uleb128 0x16
ARM GAS  C:\Users\Dell\AppData\Local\Temp\ccFHrQg5.s 			page 173


 5945 101a 9D030000 		.4byte	.LASF77
 5946 101e 01       		.byte	0x1
 5947 101f 2D07     		.2byte	0x72d
 5948 1021 A9000000 		.4byte	0xa9
 5949 1025 14110000 		.4byte	.LLST106
 5950 1029 16       		.uleb128 0x16
 5951 102a 81090000 		.4byte	.LASF33
 5952 102e 01       		.byte	0x1
 5953 102f 2D07     		.2byte	0x72d
 5954 1031 6B000000 		.4byte	0x6b
 5955 1035 40110000 		.4byte	.LLST107
 5956 1039 13       		.uleb128 0x13
 5957 103a 4D080000 		.4byte	.LASF85
 5958 103e 01       		.byte	0x1
 5959 103f 3007     		.2byte	0x730
 5960 1041 77000000 		.4byte	0x77
 5961 1045 6C110000 		.4byte	.LLST108
 5962 1049 0F       		.uleb128 0xf
 5963 104a 0C000000 		.4byte	.LVL333
 5964 104e C30D0000 		.4byte	0xdc3
 5965 1052 00       		.byte	0
 5966 1053 19       		.uleb128 0x19
 5967 1054 62010000 		.4byte	.LASF96
 5968 1058 01       		.byte	0x1
 5969 1059 160C     		.2byte	0xc16
 5970 105b 77000000 		.4byte	0x77
 5971 105f 00000000 		.4byte	.LFB38
 5972 1063 1C000000 		.4byte	.LFE38-.LFB38
 5973 1067 01       		.uleb128 0x1
 5974 1068 9C       		.byte	0x9c
 5975 1069 E0100000 		.4byte	0x10e0
 5976 106d 16       		.uleb128 0x16
 5977 106e 5C070000 		.4byte	.LASF54
 5978 1072 01       		.byte	0x1
 5979 1073 160C     		.2byte	0xc16
 5980 1075 6B000000 		.4byte	0x6b
 5981 1079 7F110000 		.4byte	.LLST109
 5982 107d 14       		.uleb128 0x14
 5983 107e BD040000 		.4byte	.LASF97
 5984 1082 01       		.byte	0x1
 5985 1083 300C     		.2byte	0xc30
 5986 1085 E0100000 		.4byte	0x10e0
 5987 1089 05       		.uleb128 0x5
 5988 108a 03       		.byte	0x3
 5989 108b 60010000 		.4byte	display_16SegDigitsLow.5635
 5990 108f 14       		.uleb128 0x14
 5991 1090 DD080000 		.4byte	.LASF98
 5992 1094 01       		.byte	0x1
 5993 1095 3B0C     		.2byte	0xc3b
 5994 1097 E5100000 		.4byte	0x10e5
 5995 109b 05       		.uleb128 0x5
 5996 109c 03       		.byte	0x3
 5997 109d 50010000 		.4byte	display_16SegDigitsHigh.5636
 5998 10a1 13       		.uleb128 0x13
 5999 10a2 7C010000 		.4byte	.LASF56
 6000 10a6 01       		.byte	0x1
 6001 10a7 460C     		.2byte	0xc46
ARM GAS  C:\Users\Dell\AppData\Local\Temp\ccFHrQg5.s 			page 174


 6002 10a9 6B000000 		.4byte	0x6b
 6003 10ad A0110000 		.4byte	.LLST110
 6004 10b1 14       		.uleb128 0x14
 6005 10b2 7A090000 		.4byte	.LASF72
 6006 10b6 01       		.byte	0x1
 6007 10b7 470C     		.2byte	0xc47
 6008 10b9 77000000 		.4byte	0x77
 6009 10bd 01       		.uleb128 0x1
 6010 10be 53       		.byte	0x53
 6011 10bf 13       		.uleb128 0x13
 6012 10c0 34040000 		.4byte	.LASF73
 6013 10c4 01       		.byte	0x1
 6014 10c5 480C     		.2byte	0xc48
 6015 10c7 77000000 		.4byte	0x77
 6016 10cb B3110000 		.4byte	.LLST111
 6017 10cf 13       		.uleb128 0x13
 6018 10d0 38070000 		.4byte	.LASF57
 6019 10d4 01       		.byte	0x1
 6020 10d5 490C     		.2byte	0xc49
 6021 10d7 77000000 		.4byte	0x77
 6022 10db CA110000 		.4byte	.LLST112
 6023 10df 00       		.byte	0
 6024 10e0 1C       		.uleb128 0x1c
 6025 10e1 AC070000 		.4byte	0x7ac
 6026 10e5 1C       		.uleb128 0x1c
 6027 10e6 AC070000 		.4byte	0x7ac
 6028 10ea 15       		.uleb128 0x15
 6029 10eb 30010000 		.4byte	.LASF99
 6030 10ef 01       		.byte	0x1
 6031 10f0 3F08     		.2byte	0x83f
 6032 10f2 00000000 		.4byte	.LFB27
 6033 10f6 D0000000 		.4byte	.LFE27-.LFB27
 6034 10fa 01       		.uleb128 0x1
 6035 10fb 9C       		.byte	0x9c
 6036 10fc A0110000 		.4byte	0x11a0
 6037 1100 16       		.uleb128 0x16
 6038 1101 5C070000 		.4byte	.LASF54
 6039 1105 01       		.byte	0x1
 6040 1106 3F08     		.2byte	0x83f
 6041 1108 83000000 		.4byte	0x83
 6042 110c E4110000 		.4byte	.LLST113
 6043 1110 16       		.uleb128 0x16
 6044 1111 81090000 		.4byte	.LASF33
 6045 1115 01       		.byte	0x1
 6046 1116 3F08     		.2byte	0x83f
 6047 1118 6B000000 		.4byte	0x6b
 6048 111c 05120000 		.4byte	.LLST114
 6049 1120 16       		.uleb128 0x16
 6050 1121 8B020000 		.4byte	.LASF59
 6051 1125 01       		.byte	0x1
 6052 1126 3F08     		.2byte	0x83f
 6053 1128 6B000000 		.4byte	0x6b
 6054 112c 26120000 		.4byte	.LLST115
 6055 1130 16       		.uleb128 0x16
 6056 1131 02090000 		.4byte	.LASF60
 6057 1135 01       		.byte	0x1
 6058 1136 3F08     		.2byte	0x83f
ARM GAS  C:\Users\Dell\AppData\Local\Temp\ccFHrQg5.s 			page 175


 6059 1138 6B000000 		.4byte	0x6b
 6060 113c 47120000 		.4byte	.LLST116
 6061 1140 12       		.uleb128 0x12
 6062 1141 6900     		.ascii	"i\000"
 6063 1143 01       		.byte	0x1
 6064 1144 4208     		.2byte	0x842
 6065 1146 6B000000 		.4byte	0x6b
 6066 114a 68120000 		.4byte	.LLST117
 6067 114e 13       		.uleb128 0x13
 6068 114f 9A090000 		.4byte	.LASF34
 6069 1153 01       		.byte	0x1
 6070 1154 4308     		.2byte	0x843
 6071 1156 6B000000 		.4byte	0x6b
 6072 115a BD120000 		.4byte	.LLST118
 6073 115e 13       		.uleb128 0x13
 6074 115f C5000000 		.4byte	.LASF62
 6075 1163 01       		.byte	0x1
 6076 1164 4408     		.2byte	0x844
 6077 1166 6B000000 		.4byte	0x6b
 6078 116a E6120000 		.4byte	.LLST119
 6079 116e 14       		.uleb128 0x14
 6080 116f 74080000 		.4byte	.LASF64
 6081 1173 01       		.byte	0x1
 6082 1174 4508     		.2byte	0x845
 6083 1176 130D0000 		.4byte	0xd13
 6084 117a 02       		.uleb128 0x2
 6085 117b 91       		.byte	0x91
 6086 117c 58       		.sleb128 -40
 6087 117d 13       		.uleb128 0x13
 6088 117e 93030000 		.4byte	.LASF65
 6089 1182 01       		.byte	0x1
 6090 1183 4608     		.2byte	0x846
 6091 1185 83000000 		.4byte	0x83
 6092 1189 FD120000 		.4byte	.LLST120
 6093 118d 10       		.uleb128 0x10
 6094 118e 26000000 		.4byte	.LVL344
 6095 1192 53100000 		.4byte	0x1053
 6096 1196 0E       		.uleb128 0xe
 6097 1197 01       		.uleb128 0x1
 6098 1198 50       		.byte	0x50
 6099 1199 04       		.uleb128 0x4
 6100 119a 77       		.byte	0x77
 6101 119b 00       		.sleb128 0
 6102 119c 3F       		.byte	0x3f
 6103 119d 1A       		.byte	0x1a
 6104 119e 00       		.byte	0
 6105 119f 00       		.byte	0
 6106 11a0 15       		.uleb128 0x15
 6107 11a1 09010000 		.4byte	.LASF100
 6108 11a5 01       		.byte	0x1
 6109 11a6 F308     		.2byte	0x8f3
 6110 11a8 00000000 		.4byte	.LFB30
 6111 11ac 1C000000 		.4byte	.LFE30-.LFB30
 6112 11b0 01       		.uleb128 0x1
 6113 11b1 9C       		.byte	0x9c
 6114 11b2 F0110000 		.4byte	0x11f0
 6115 11b6 16       		.uleb128 0x16
ARM GAS  C:\Users\Dell\AppData\Local\Temp\ccFHrQg5.s 			page 176


 6116 11b7 70050000 		.4byte	.LASF67
 6117 11bb 01       		.byte	0x1
 6118 11bc F308     		.2byte	0x8f3
 6119 11be 6B000000 		.4byte	0x6b
 6120 11c2 1B130000 		.4byte	.LLST121
 6121 11c6 16       		.uleb128 0x16
 6122 11c7 81090000 		.4byte	.LASF33
 6123 11cb 01       		.byte	0x1
 6124 11cc F308     		.2byte	0x8f3
 6125 11ce 6B000000 		.4byte	0x6b
 6126 11d2 47130000 		.4byte	.LLST122
 6127 11d6 13       		.uleb128 0x13
 6128 11d7 4D080000 		.4byte	.LASF85
 6129 11db 01       		.byte	0x1
 6130 11dc F608     		.2byte	0x8f6
 6131 11de 77000000 		.4byte	0x77
 6132 11e2 73130000 		.4byte	.LLST123
 6133 11e6 0F       		.uleb128 0xf
 6134 11e7 10000000 		.4byte	.LVL364
 6135 11eb 53100000 		.4byte	0x1053
 6136 11ef 00       		.byte	0
 6137 11f0 15       		.uleb128 0x15
 6138 11f1 BF060000 		.4byte	.LASF101
 6139 11f5 01       		.byte	0x1
 6140 11f6 1509     		.2byte	0x915
 6141 11f8 00000000 		.4byte	.LFB31
 6142 11fc 18000000 		.4byte	.LFE31-.LFB31
 6143 1200 01       		.uleb128 0x1
 6144 1201 9C       		.byte	0x9c
 6145 1202 40120000 		.4byte	0x1240
 6146 1206 16       		.uleb128 0x16
 6147 1207 70050000 		.4byte	.LASF67
 6148 120b 01       		.byte	0x1
 6149 120c 1509     		.2byte	0x915
 6150 120e 6B000000 		.4byte	0x6b
 6151 1212 86130000 		.4byte	.LLST124
 6152 1216 16       		.uleb128 0x16
 6153 1217 81090000 		.4byte	.LASF33
 6154 121b 01       		.byte	0x1
 6155 121c 1509     		.2byte	0x915
 6156 121e 6B000000 		.4byte	0x6b
 6157 1222 B2130000 		.4byte	.LLST125
 6158 1226 13       		.uleb128 0x13
 6159 1227 4D080000 		.4byte	.LASF85
 6160 122b 01       		.byte	0x1
 6161 122c 1809     		.2byte	0x918
 6162 122e 77000000 		.4byte	0x77
 6163 1232 DE130000 		.4byte	.LLST126
 6164 1236 0F       		.uleb128 0xf
 6165 1237 0C000000 		.4byte	.LVL367
 6166 123b 53100000 		.4byte	0x1053
 6167 123f 00       		.byte	0
 6168 1240 19       		.uleb128 0x19
 6169 1241 83010000 		.4byte	.LASF102
 6170 1245 01       		.byte	0x1
 6171 1246 6F0C     		.2byte	0xc6f
 6172 1248 77000000 		.4byte	0x77
ARM GAS  C:\Users\Dell\AppData\Local\Temp\ccFHrQg5.s 			page 177


 6173 124c 00000000 		.4byte	.LFB39
 6174 1250 30000000 		.4byte	.LFE39-.LFB39
 6175 1254 01       		.uleb128 0x1
 6176 1255 9C       		.byte	0x9c
 6177 1256 DF120000 		.4byte	0x12df
 6178 125a 16       		.uleb128 0x16
 6179 125b 57000000 		.4byte	.LASF70
 6180 125f 01       		.byte	0x1
 6181 1260 6F0C     		.2byte	0xc6f
 6182 1262 A9000000 		.4byte	0xa9
 6183 1266 F1130000 		.4byte	.LLST127
 6184 126a 14       		.uleb128 0x14
 6185 126b C0030000 		.4byte	.LASF103
 6186 126f 01       		.byte	0x1
 6187 1270 DD0C     		.2byte	0xcdd
 6188 1272 DF120000 		.4byte	0x12df
 6189 1276 05       		.uleb128 0x5
 6190 1277 03       		.byte	0x3
 6191 1278 D0010000 		.4byte	display_16SegASCIILow.5644
 6192 127c 14       		.uleb128 0x14
 6193 127d 7C030000 		.4byte	.LASF104
 6194 1281 01       		.byte	0x1
 6195 1282 120D     		.2byte	0xd12
 6196 1284 E4120000 		.4byte	0x12e4
 6197 1288 05       		.uleb128 0x5
 6198 1289 03       		.byte	0x3
 6199 128a 70010000 		.4byte	display_16SegASCIIHigh.5645
 6200 128e 13       		.uleb128 0x13
 6201 128f 7A090000 		.4byte	.LASF72
 6202 1293 01       		.byte	0x1
 6203 1294 470D     		.2byte	0xd47
 6204 1296 6B000000 		.4byte	0x6b
 6205 129a 12140000 		.4byte	.LLST128
 6206 129e 13       		.uleb128 0x13
 6207 129f 34040000 		.4byte	.LASF73
 6208 12a3 01       		.byte	0x1
 6209 12a4 480D     		.2byte	0xd48
 6210 12a6 6B000000 		.4byte	0x6b
 6211 12aa 30140000 		.4byte	.LLST129
 6212 12ae 13       		.uleb128 0x13
 6213 12af 54040000 		.4byte	.LASF90
 6214 12b3 01       		.byte	0x1
 6215 12b4 490D     		.2byte	0xd49
 6216 12b6 77000000 		.4byte	0x77
 6217 12ba 5B140000 		.4byte	.LLST130
 6218 12be 13       		.uleb128 0x13
 6219 12bf BB070000 		.4byte	.LASF91
 6220 12c3 01       		.byte	0x1
 6221 12c4 4A0D     		.2byte	0xd4a
 6222 12c6 77000000 		.4byte	0x77
 6223 12ca 6E140000 		.4byte	.LLST131
 6224 12ce 13       		.uleb128 0x13
 6225 12cf 38070000 		.4byte	.LASF57
 6226 12d3 01       		.byte	0x1
 6227 12d4 4B0D     		.2byte	0xd4b
 6228 12d6 77000000 		.4byte	0x77
 6229 12da 85140000 		.4byte	.LLST132
ARM GAS  C:\Users\Dell\AppData\Local\Temp\ccFHrQg5.s 			page 178


 6230 12de 00       		.byte	0
 6231 12df 1C       		.uleb128 0x1c
 6232 12e0 B9090000 		.4byte	0x9b9
 6233 12e4 1C       		.uleb128 0x1c
 6234 12e5 B9090000 		.4byte	0x9b9
 6235 12e9 15       		.uleb128 0x15
 6236 12ea 46050000 		.4byte	.LASF105
 6237 12ee 01       		.byte	0x1
 6238 12ef A507     		.2byte	0x7a5
 6239 12f1 00000000 		.4byte	.LFB26
 6240 12f5 3C010000 		.4byte	.LFE26-.LFB26
 6241 12f9 01       		.uleb128 0x1
 6242 12fa 9C       		.byte	0x9c
 6243 12fb EE130000 		.4byte	0x13ee
 6244 12ff 16       		.uleb128 0x16
 6245 1300 5C070000 		.4byte	.LASF54
 6246 1304 01       		.byte	0x1
 6247 1305 A507     		.2byte	0x7a5
 6248 1307 8F000000 		.4byte	0x8f
 6249 130b A3140000 		.4byte	.LLST133
 6250 130f 16       		.uleb128 0x16
 6251 1310 81090000 		.4byte	.LASF33
 6252 1314 01       		.byte	0x1
 6253 1315 A507     		.2byte	0x7a5
 6254 1317 6B000000 		.4byte	0x6b
 6255 131b C4140000 		.4byte	.LLST134
 6256 131f 16       		.uleb128 0x16
 6257 1320 8B020000 		.4byte	.LASF59
 6258 1324 01       		.byte	0x1
 6259 1325 A507     		.2byte	0x7a5
 6260 1327 6B000000 		.4byte	0x6b
 6261 132b E5140000 		.4byte	.LLST135
 6262 132f 16       		.uleb128 0x16
 6263 1330 02090000 		.4byte	.LASF60
 6264 1334 01       		.byte	0x1
 6265 1335 A507     		.2byte	0x7a5
 6266 1337 6B000000 		.4byte	0x6b
 6267 133b 1F150000 		.4byte	.LLST136
 6268 133f 12       		.uleb128 0x12
 6269 1340 6900     		.ascii	"i\000"
 6270 1342 01       		.byte	0x1
 6271 1343 A807     		.2byte	0x7a8
 6272 1345 6B000000 		.4byte	0x6b
 6273 1349 40150000 		.4byte	.LLST137
 6274 134d 13       		.uleb128 0x13
 6275 134e 9A090000 		.4byte	.LASF34
 6276 1352 01       		.byte	0x1
 6277 1353 A907     		.2byte	0x7a9
 6278 1355 6B000000 		.4byte	0x6b
 6279 1359 CC150000 		.4byte	.LLST138
 6280 135d 13       		.uleb128 0x13
 6281 135e 69080000 		.4byte	.LASF75
 6282 1362 01       		.byte	0x1
 6283 1363 AA07     		.2byte	0x7aa
 6284 1365 6B000000 		.4byte	0x6b
 6285 1369 F5150000 		.4byte	.LLST139
 6286 136d 13       		.uleb128 0x13
ARM GAS  C:\Users\Dell\AppData\Local\Temp\ccFHrQg5.s 			page 179


 6287 136e C5000000 		.4byte	.LASF62
 6288 1372 01       		.byte	0x1
 6289 1373 AB07     		.2byte	0x7ab
 6290 1375 6B000000 		.4byte	0x6b
 6291 1379 2B160000 		.4byte	.LLST140
 6292 137d 13       		.uleb128 0x13
 6293 137e 56090000 		.4byte	.LASF63
 6294 1382 01       		.byte	0x1
 6295 1383 AC07     		.2byte	0x7ac
 6296 1385 6B000000 		.4byte	0x6b
 6297 1389 3E160000 		.4byte	.LLST141
 6298 138d 14       		.uleb128 0x14
 6299 138e 74080000 		.4byte	.LASF64
 6300 1392 01       		.byte	0x1
 6301 1393 AD07     		.2byte	0x7ad
 6302 1395 130D0000 		.4byte	0xd13
 6303 1399 02       		.uleb128 0x2
 6304 139a 91       		.byte	0x91
 6305 139b 50       		.sleb128 -48
 6306 139c 13       		.uleb128 0x13
 6307 139d 93030000 		.4byte	.LASF65
 6308 13a1 01       		.byte	0x1
 6309 13a2 AE07     		.2byte	0x7ae
 6310 13a4 83000000 		.4byte	0x83
 6311 13a8 95160000 		.4byte	.LLST142
 6312 13ac 0F       		.uleb128 0xf
 6313 13ad 44000000 		.4byte	.LVL391
 6314 13b1 53100000 		.4byte	0x1053
 6315 13b5 0D       		.uleb128 0xd
 6316 13b6 64000000 		.4byte	.LVL394
 6317 13ba 40120000 		.4byte	0x1240
 6318 13be C9130000 		.4byte	0x13c9
 6319 13c2 0E       		.uleb128 0xe
 6320 13c3 01       		.uleb128 0x1
 6321 13c4 50       		.byte	0x50
 6322 13c5 02       		.uleb128 0x2
 6323 13c6 08       		.byte	0x8
 6324 13c7 2D       		.byte	0x2d
 6325 13c8 00       		.byte	0
 6326 13c9 0D       		.uleb128 0xd
 6327 13ca 86000000 		.4byte	.LVL396
 6328 13ce 40120000 		.4byte	0x1240
 6329 13d2 DD130000 		.4byte	0x13dd
 6330 13d6 0E       		.uleb128 0xe
 6331 13d7 01       		.uleb128 0x1
 6332 13d8 50       		.byte	0x50
 6333 13d9 02       		.uleb128 0x2
 6334 13da 08       		.byte	0x8
 6335 13db 2D       		.byte	0x2d
 6336 13dc 00       		.byte	0
 6337 13dd 10       		.uleb128 0x10
 6338 13de 9A000000 		.4byte	.LVL399
 6339 13e2 40120000 		.4byte	0x1240
 6340 13e6 0E       		.uleb128 0xe
 6341 13e7 01       		.uleb128 0x1
 6342 13e8 50       		.byte	0x50
 6343 13e9 02       		.uleb128 0x2
ARM GAS  C:\Users\Dell\AppData\Local\Temp\ccFHrQg5.s 			page 180


 6344 13ea 08       		.byte	0x8
 6345 13eb 2D       		.byte	0x2d
 6346 13ec 00       		.byte	0
 6347 13ed 00       		.byte	0
 6348 13ee 15       		.uleb128 0x15
 6349 13ef F4030000 		.4byte	.LASF106
 6350 13f3 01       		.byte	0x1
 6351 13f4 A508     		.2byte	0x8a5
 6352 13f6 00000000 		.4byte	.LFB28
 6353 13fa 34000000 		.4byte	.LFE28-.LFB28
 6354 13fe 01       		.uleb128 0x1
 6355 13ff 9C       		.byte	0x9c
 6356 1400 80140000 		.4byte	0x1480
 6357 1404 16       		.uleb128 0x16
 6358 1405 9D030000 		.4byte	.LASF77
 6359 1409 01       		.byte	0x1
 6360 140a A508     		.2byte	0x8a5
 6361 140c 6B0B0000 		.4byte	0xb6b
 6362 1410 C9160000 		.4byte	.LLST143
 6363 1414 16       		.uleb128 0x16
 6364 1415 81090000 		.4byte	.LASF33
 6365 1419 01       		.byte	0x1
 6366 141a A508     		.2byte	0x8a5
 6367 141c 6B000000 		.4byte	0x6b
 6368 1420 F5160000 		.4byte	.LLST144
 6369 1424 13       		.uleb128 0x13
 6370 1425 59030000 		.4byte	.LASF94
 6371 1429 01       		.byte	0x1
 6372 142a A808     		.2byte	0x8a8
 6373 142c 6B000000 		.4byte	0x6b
 6374 1430 16170000 		.4byte	.LLST145
 6375 1434 13       		.uleb128 0x13
 6376 1435 B5060000 		.4byte	.LASF78
 6377 1439 01       		.byte	0x1
 6378 143a A908     		.2byte	0x8a9
 6379 143c 6B000000 		.4byte	0x6b
 6380 1440 34170000 		.4byte	.LLST146
 6381 1444 12       		.uleb128 0x12
 6382 1445 6900     		.ascii	"i\000"
 6383 1447 01       		.byte	0x1
 6384 1448 AA08     		.2byte	0x8aa
 6385 144a 6B000000 		.4byte	0x6b
 6386 144e 47170000 		.4byte	.LLST147
 6387 1452 13       		.uleb128 0x13
 6388 1453 4D080000 		.4byte	.LASF85
 6389 1457 01       		.byte	0x1
 6390 1458 AB08     		.2byte	0x8ab
 6391 145a 77000000 		.4byte	0x77
 6392 145e 71170000 		.4byte	.LLST148
 6393 1462 0D       		.uleb128 0xd
 6394 1463 0A000000 		.4byte	.LVL426
 6395 1467 9D160000 		.4byte	0x169d
 6396 146b 76140000 		.4byte	0x1476
 6397 146f 0E       		.uleb128 0xe
 6398 1470 01       		.uleb128 0x1
 6399 1471 50       		.byte	0x50
 6400 1472 02       		.uleb128 0x2
ARM GAS  C:\Users\Dell\AppData\Local\Temp\ccFHrQg5.s 			page 181


 6401 1473 77       		.byte	0x77
 6402 1474 00       		.sleb128 0
 6403 1475 00       		.byte	0
 6404 1476 0F       		.uleb128 0xf
 6405 1477 1C000000 		.4byte	.LVL429
 6406 147b 40120000 		.4byte	0x1240
 6407 147f 00       		.byte	0
 6408 1480 15       		.uleb128 0x15
 6409 1481 BF080000 		.4byte	.LASF107
 6410 1485 01       		.byte	0x1
 6411 1486 D108     		.2byte	0x8d1
 6412 1488 00000000 		.4byte	.LFB29
 6413 148c 18000000 		.4byte	.LFE29-.LFB29
 6414 1490 01       		.uleb128 0x1
 6415 1491 9C       		.byte	0x9c
 6416 1492 D0140000 		.4byte	0x14d0
 6417 1496 16       		.uleb128 0x16
 6418 1497 9D030000 		.4byte	.LASF77
 6419 149b 01       		.byte	0x1
 6420 149c D108     		.2byte	0x8d1
 6421 149e A9000000 		.4byte	0xa9
 6422 14a2 84170000 		.4byte	.LLST149
 6423 14a6 16       		.uleb128 0x16
 6424 14a7 81090000 		.4byte	.LASF33
 6425 14ab 01       		.byte	0x1
 6426 14ac D108     		.2byte	0x8d1
 6427 14ae 6B000000 		.4byte	0x6b
 6428 14b2 B0170000 		.4byte	.LLST150
 6429 14b6 13       		.uleb128 0x13
 6430 14b7 4D080000 		.4byte	.LASF85
 6431 14bb 01       		.byte	0x1
 6432 14bc D408     		.2byte	0x8d4
 6433 14be 77000000 		.4byte	0x77
 6434 14c2 DC170000 		.4byte	.LLST151
 6435 14c6 0F       		.uleb128 0xf
 6436 14c7 0C000000 		.4byte	.LVL436
 6437 14cb 40120000 		.4byte	0x1240
 6438 14cf 00       		.byte	0
 6439 14d0 15       		.uleb128 0x15
 6440 14d1 78070000 		.4byte	.LASF108
 6441 14d5 01       		.byte	0x1
 6442 14d6 7D0D     		.2byte	0xd7d
 6443 14d8 00000000 		.4byte	.LFB40
 6444 14dc 3C000000 		.4byte	.LFE40-.LFB40
 6445 14e0 01       		.uleb128 0x1
 6446 14e1 9C       		.byte	0x9c
 6447 14e2 19150000 		.4byte	0x1519
 6448 14e6 16       		.uleb128 0x16
 6449 14e7 97040000 		.4byte	.LASF109
 6450 14eb 01       		.byte	0x1
 6451 14ec 7D0D     		.2byte	0xd7d
 6452 14ee 6B000000 		.4byte	0x6b
 6453 14f2 EF170000 		.4byte	.LLST152
 6454 14f6 16       		.uleb128 0x16
 6455 14f7 81090000 		.4byte	.LASF33
 6456 14fb 01       		.byte	0x1
 6457 14fc 7D0D     		.2byte	0xd7d
ARM GAS  C:\Users\Dell\AppData\Local\Temp\ccFHrQg5.s 			page 182


 6458 14fe 6B000000 		.4byte	0x6b
 6459 1502 29180000 		.4byte	.LLST153
 6460 1506 14       		.uleb128 0x14
 6461 1507 30000000 		.4byte	.LASF110
 6462 150b 01       		.byte	0x1
 6463 150c 810D     		.2byte	0xd81
 6464 150e 19150000 		.4byte	0x1519
 6465 1512 05       		.uleb128 0x5
 6466 1513 03       		.byte	0x3
 6467 1514 30020000 		.4byte	display_tempCom.5655
 6468 1518 00       		.byte	0
 6469 1519 1C       		.uleb128 0x1c
 6470 151a AC070000 		.4byte	0x7ac
 6471 151e 19       		.uleb128 0x19
 6472 151f 04080000 		.4byte	.LASF111
 6473 1523 01       		.byte	0x1
 6474 1524 AC0D     		.2byte	0xdac
 6475 1526 6B000000 		.4byte	0x6b
 6476 152a 00000000 		.4byte	.LFB41
 6477 152e 0C000000 		.4byte	.LFE41-.LFB41
 6478 1532 01       		.uleb128 0x1
 6479 1533 9C       		.byte	0x9c
 6480 1534 49150000 		.4byte	0x1549
 6481 1538 16       		.uleb128 0x16
 6482 1539 81090000 		.4byte	.LASF33
 6483 153d 01       		.byte	0x1
 6484 153e AC0D     		.2byte	0xdac
 6485 1540 6B000000 		.4byte	0x6b
 6486 1544 4A180000 		.4byte	.LLST154
 6487 1548 00       		.byte	0
 6488 1549 06       		.uleb128 0x6
 6489 154a 6B000000 		.4byte	0x6b
 6490 154e 59150000 		.4byte	0x1559
 6491 1552 07       		.uleb128 0x7
 6492 1553 DD000000 		.4byte	0xdd
 6493 1557 0F       		.byte	0xf
 6494 1558 00       		.byte	0
 6495 1559 1E       		.uleb128 0x1e
 6496 155a 26070000 		.4byte	.LASF112
 6497 155e 01       		.byte	0x1
 6498 155f 21       		.byte	0x21
 6499 1560 49150000 		.4byte	0x1549
 6500 1564 05       		.uleb128 0x5
 6501 1565 03       		.byte	0x3
 6502 1566 00000000 		.4byte	display_comBuffer
 6503 156a 1E       		.uleb128 0x1e
 6504 156b 66030000 		.4byte	.LASF113
 6505 156f 01       		.byte	0x1
 6506 1570 33       		.byte	0x33
 6507 1571 CD000000 		.4byte	0xcd
 6508 1575 05       		.uleb128 0x5
 6509 1576 03       		.byte	0x3
 6510 1577 10000000 		.4byte	display_brightnessReg
 6511 157b 1E       		.uleb128 0x1e
 6512 157c 43020000 		.4byte	.LASF114
 6513 1580 01       		.byte	0x1
 6514 1581 37       		.byte	0x37
ARM GAS  C:\Users\Dell\AppData\Local\Temp\ccFHrQg5.s 			page 183


 6515 1582 6B000000 		.4byte	0x6b
 6516 1586 05       		.uleb128 0x5
 6517 1587 03       		.byte	0x3
 6518 1588 00000000 		.4byte	display_dmaComChannel
 6519 158c 06       		.uleb128 0x6
 6520 158d 6B000000 		.4byte	0x6b
 6521 1591 9C150000 		.4byte	0x159c
 6522 1595 07       		.uleb128 0x7
 6523 1596 DD000000 		.4byte	0xdd
 6524 159a 03       		.byte	0x3
 6525 159b 00       		.byte	0
 6526 159c 1E       		.uleb128 0x1e
 6527 159d A7030000 		.4byte	.LASF115
 6528 15a1 01       		.byte	0x1
 6529 15a2 38       		.byte	0x38
 6530 15a3 8C150000 		.4byte	0x158c
 6531 15a7 05       		.uleb128 0x5
 6532 15a8 03       		.byte	0x3
 6533 15a9 04000000 		.4byte	display_dmaComTd
 6534 15ad 1E       		.uleb128 0x1e
 6535 15ae 25090000 		.4byte	.LASF116
 6536 15b2 01       		.byte	0x1
 6537 15b3 3A       		.byte	0x3a
 6538 15b4 6B000000 		.4byte	0x6b
 6539 15b8 05       		.uleb128 0x5
 6540 15b9 03       		.byte	0x3
 6541 15ba 08000000 		.4byte	display_dmaSegChannel
 6542 15be 1E       		.uleb128 0x1e
 6543 15bf 4B060000 		.4byte	.LASF117
 6544 15c3 01       		.byte	0x1
 6545 15c4 3B       		.byte	0x3b
 6546 15c5 CD000000 		.4byte	0xcd
 6547 15c9 05       		.uleb128 0x5
 6548 15ca 03       		.byte	0x3
 6549 15cb 0C000000 		.4byte	display_dmaSegLTd
 6550 15cf 1E       		.uleb128 0x1e
 6551 15d0 EE050000 		.4byte	.LASF118
 6552 15d4 01       		.byte	0x1
 6553 15d5 3E       		.byte	0x3e
 6554 15d6 6B000000 		.4byte	0x6b
 6555 15da 05       		.uleb128 0x5
 6556 15db 03       		.byte	0x3
 6557 15dc 0E000000 		.4byte	display_dmaBCChannel
 6558 15e0 1E       		.uleb128 0x1e
 6559 15e1 B5000000 		.4byte	.LASF119
 6560 15e5 01       		.byte	0x1
 6561 15e6 3F       		.byte	0x3f
 6562 15e7 6B000000 		.4byte	0x6b
 6563 15eb 05       		.uleb128 0x5
 6564 15ec 03       		.byte	0x3
 6565 15ed 0F000000 		.4byte	display_dmaBCTd
 6566 15f1 1F       		.uleb128 0x1f
 6567 15f2 59080000 		.4byte	.LASF120
 6568 15f6 01       		.byte	0x1
 6569 15f7 42       		.byte	0x42
 6570 15f8 6B000000 		.4byte	0x6b
 6571 15fc 05       		.uleb128 0x5
ARM GAS  C:\Users\Dell\AppData\Local\Temp\ccFHrQg5.s 			page 184


 6572 15fd 03       		.byte	0x3
 6573 15fe 00000000 		.4byte	display_initVar
 6574 1602 1F       		.uleb128 0x1f
 6575 1603 DC050000 		.4byte	.LASF121
 6576 1607 01       		.byte	0x1
 6577 1608 43       		.byte	0x43
 6578 1609 6B000000 		.4byte	0x6b
 6579 160d 05       		.uleb128 0x5
 6580 160e 03       		.byte	0x3
 6581 160f 00000000 		.4byte	display_enableVar
 6582 1613 1F       		.uleb128 0x1f
 6583 1614 E8060000 		.4byte	.LASF122
 6584 1618 01       		.byte	0x1
 6585 1619 29       		.byte	0x29
 6586 161a CD000000 		.4byte	0xcd
 6587 161e 05       		.uleb128 0x5
 6588 161f 03       		.byte	0x3
 6589 1620 00000000 		.4byte	display_segLBuffer
 6590 1624 20       		.uleb128 0x20
 6591 1625 D6030000 		.4byte	.LASF123
 6592 1629 D6030000 		.4byte	.LASF123
 6593 162d 04       		.byte	0x4
 6594 162e 1E       		.byte	0x1e
 6595 162f 20       		.uleb128 0x20
 6596 1630 0D040000 		.4byte	.LASF124
 6597 1634 0D040000 		.4byte	.LASF124
 6598 1638 03       		.byte	0x3
 6599 1639 38       		.byte	0x38
 6600 163a 20       		.uleb128 0x20
 6601 163b 79060000 		.4byte	.LASF125
 6602 163f 79060000 		.4byte	.LASF125
 6603 1643 03       		.byte	0x3
 6604 1644 3B       		.byte	0x3b
 6605 1645 20       		.uleb128 0x20
 6606 1646 8E070000 		.4byte	.LASF126
 6607 164a 8E070000 		.4byte	.LASF126
 6608 164e 03       		.byte	0x3
 6609 164f 3F       		.byte	0x3f
 6610 1650 20       		.uleb128 0x20
 6611 1651 9B010000 		.4byte	.LASF127
 6612 1655 9B010000 		.4byte	.LASF127
 6613 1659 05       		.byte	0x5
 6614 165a 1E       		.byte	0x1e
 6615 165b 20       		.uleb128 0x20
 6616 165c 3F070000 		.4byte	.LASF128
 6617 1660 3F070000 		.4byte	.LASF128
 6618 1664 06       		.byte	0x6
 6619 1665 1E       		.byte	0x1e
 6620 1666 20       		.uleb128 0x20
 6621 1667 98080000 		.4byte	.LASF129
 6622 166b 98080000 		.4byte	.LASF129
 6623 166f 03       		.byte	0x3
 6624 1670 2F       		.byte	0x2f
 6625 1671 20       		.uleb128 0x20
 6626 1672 DA060000 		.4byte	.LASF130
 6627 1676 DA060000 		.4byte	.LASF130
 6628 167a 03       		.byte	0x3
ARM GAS  C:\Users\Dell\AppData\Local\Temp\ccFHrQg5.s 			page 185


 6629 167b 29       		.byte	0x29
 6630 167c 20       		.uleb128 0x20
 6631 167d C8010000 		.4byte	.LASF131
 6632 1681 C8010000 		.4byte	.LASF131
 6633 1685 03       		.byte	0x3
 6634 1686 2A       		.byte	0x2a
 6635 1687 20       		.uleb128 0x20
 6636 1688 1E060000 		.4byte	.LASF132
 6637 168c 1E060000 		.4byte	.LASF132
 6638 1690 07       		.byte	0x7
 6639 1691 2F       		.byte	0x2f
 6640 1692 20       		.uleb128 0x20
 6641 1693 38030000 		.4byte	.LASF133
 6642 1697 38030000 		.4byte	.LASF133
 6643 169b 03       		.byte	0x3
 6644 169c 30       		.byte	0x30
 6645 169d 20       		.uleb128 0x20
 6646 169e 5D000000 		.4byte	.LASF134
 6647 16a2 5D000000 		.4byte	.LASF134
 6648 16a6 08       		.byte	0x8
 6649 16a7 21       		.byte	0x21
 6650 16a8 00       		.byte	0
 6651              		.section	.debug_abbrev,"",%progbits
 6652              	.Ldebug_abbrev0:
 6653 0000 01       		.uleb128 0x1
 6654 0001 11       		.uleb128 0x11
 6655 0002 01       		.byte	0x1
 6656 0003 25       		.uleb128 0x25
 6657 0004 0E       		.uleb128 0xe
 6658 0005 13       		.uleb128 0x13
 6659 0006 0B       		.uleb128 0xb
 6660 0007 03       		.uleb128 0x3
 6661 0008 0E       		.uleb128 0xe
 6662 0009 1B       		.uleb128 0x1b
 6663 000a 0E       		.uleb128 0xe
 6664 000b 55       		.uleb128 0x55
 6665 000c 17       		.uleb128 0x17
 6666 000d 11       		.uleb128 0x11
 6667 000e 01       		.uleb128 0x1
 6668 000f 10       		.uleb128 0x10
 6669 0010 17       		.uleb128 0x17
 6670 0011 00       		.byte	0
 6671 0012 00       		.byte	0
 6672 0013 02       		.uleb128 0x2
 6673 0014 24       		.uleb128 0x24
 6674 0015 00       		.byte	0
 6675 0016 0B       		.uleb128 0xb
 6676 0017 0B       		.uleb128 0xb
 6677 0018 3E       		.uleb128 0x3e
 6678 0019 0B       		.uleb128 0xb
 6679 001a 03       		.uleb128 0x3
 6680 001b 0E       		.uleb128 0xe
 6681 001c 00       		.byte	0
 6682 001d 00       		.byte	0
 6683 001e 03       		.uleb128 0x3
 6684 001f 24       		.uleb128 0x24
 6685 0020 00       		.byte	0
ARM GAS  C:\Users\Dell\AppData\Local\Temp\ccFHrQg5.s 			page 186


 6686 0021 0B       		.uleb128 0xb
 6687 0022 0B       		.uleb128 0xb
 6688 0023 3E       		.uleb128 0x3e
 6689 0024 0B       		.uleb128 0xb
 6690 0025 03       		.uleb128 0x3
 6691 0026 08       		.uleb128 0x8
 6692 0027 00       		.byte	0
 6693 0028 00       		.byte	0
 6694 0029 04       		.uleb128 0x4
 6695 002a 16       		.uleb128 0x16
 6696 002b 00       		.byte	0
 6697 002c 03       		.uleb128 0x3
 6698 002d 0E       		.uleb128 0xe
 6699 002e 3A       		.uleb128 0x3a
 6700 002f 0B       		.uleb128 0xb
 6701 0030 3B       		.uleb128 0x3b
 6702 0031 05       		.uleb128 0x5
 6703 0032 49       		.uleb128 0x49
 6704 0033 13       		.uleb128 0x13
 6705 0034 00       		.byte	0
 6706 0035 00       		.byte	0
 6707 0036 05       		.uleb128 0x5
 6708 0037 35       		.uleb128 0x35
 6709 0038 00       		.byte	0
 6710 0039 49       		.uleb128 0x49
 6711 003a 13       		.uleb128 0x13
 6712 003b 00       		.byte	0
 6713 003c 00       		.byte	0
 6714 003d 06       		.uleb128 0x6
 6715 003e 01       		.uleb128 0x1
 6716 003f 01       		.byte	0x1
 6717 0040 49       		.uleb128 0x49
 6718 0041 13       		.uleb128 0x13
 6719 0042 01       		.uleb128 0x1
 6720 0043 13       		.uleb128 0x13
 6721 0044 00       		.byte	0
 6722 0045 00       		.byte	0
 6723 0046 07       		.uleb128 0x7
 6724 0047 21       		.uleb128 0x21
 6725 0048 00       		.byte	0
 6726 0049 49       		.uleb128 0x49
 6727 004a 13       		.uleb128 0x13
 6728 004b 2F       		.uleb128 0x2f
 6729 004c 0B       		.uleb128 0xb
 6730 004d 00       		.byte	0
 6731 004e 00       		.byte	0
 6732 004f 08       		.uleb128 0x8
 6733 0050 13       		.uleb128 0x13
 6734 0051 01       		.byte	0x1
 6735 0052 03       		.uleb128 0x3
 6736 0053 0E       		.uleb128 0xe
 6737 0054 0B       		.uleb128 0xb
 6738 0055 0B       		.uleb128 0xb
 6739 0056 3A       		.uleb128 0x3a
 6740 0057 0B       		.uleb128 0xb
 6741 0058 3B       		.uleb128 0x3b
 6742 0059 0B       		.uleb128 0xb
ARM GAS  C:\Users\Dell\AppData\Local\Temp\ccFHrQg5.s 			page 187


 6743 005a 01       		.uleb128 0x1
 6744 005b 13       		.uleb128 0x13
 6745 005c 00       		.byte	0
 6746 005d 00       		.byte	0
 6747 005e 09       		.uleb128 0x9
 6748 005f 0D       		.uleb128 0xd
 6749 0060 00       		.byte	0
 6750 0061 03       		.uleb128 0x3
 6751 0062 0E       		.uleb128 0xe
 6752 0063 3A       		.uleb128 0x3a
 6753 0064 0B       		.uleb128 0xb
 6754 0065 3B       		.uleb128 0x3b
 6755 0066 0B       		.uleb128 0xb
 6756 0067 49       		.uleb128 0x49
 6757 0068 13       		.uleb128 0x13
 6758 0069 38       		.uleb128 0x38
 6759 006a 0B       		.uleb128 0xb
 6760 006b 00       		.byte	0
 6761 006c 00       		.byte	0
 6762 006d 0A       		.uleb128 0xa
 6763 006e 16       		.uleb128 0x16
 6764 006f 00       		.byte	0
 6765 0070 03       		.uleb128 0x3
 6766 0071 0E       		.uleb128 0xe
 6767 0072 3A       		.uleb128 0x3a
 6768 0073 0B       		.uleb128 0xb
 6769 0074 3B       		.uleb128 0x3b
 6770 0075 0B       		.uleb128 0xb
 6771 0076 49       		.uleb128 0x49
 6772 0077 13       		.uleb128 0x13
 6773 0078 00       		.byte	0
 6774 0079 00       		.byte	0
 6775 007a 0B       		.uleb128 0xb
 6776 007b 2E       		.uleb128 0x2e
 6777 007c 01       		.byte	0x1
 6778 007d 03       		.uleb128 0x3
 6779 007e 0E       		.uleb128 0xe
 6780 007f 3A       		.uleb128 0x3a
 6781 0080 0B       		.uleb128 0xb
 6782 0081 3B       		.uleb128 0x3b
 6783 0082 0B       		.uleb128 0xb
 6784 0083 27       		.uleb128 0x27
 6785 0084 19       		.uleb128 0x19
 6786 0085 11       		.uleb128 0x11
 6787 0086 01       		.uleb128 0x1
 6788 0087 12       		.uleb128 0x12
 6789 0088 06       		.uleb128 0x6
 6790 0089 40       		.uleb128 0x40
 6791 008a 18       		.uleb128 0x18
 6792 008b 9742     		.uleb128 0x2117
 6793 008d 19       		.uleb128 0x19
 6794 008e 01       		.uleb128 0x1
 6795 008f 13       		.uleb128 0x13
 6796 0090 00       		.byte	0
 6797 0091 00       		.byte	0
 6798 0092 0C       		.uleb128 0xc
 6799 0093 34       		.uleb128 0x34
ARM GAS  C:\Users\Dell\AppData\Local\Temp\ccFHrQg5.s 			page 188


 6800 0094 00       		.byte	0
 6801 0095 03       		.uleb128 0x3
 6802 0096 08       		.uleb128 0x8
 6803 0097 3A       		.uleb128 0x3a
 6804 0098 0B       		.uleb128 0xb
 6805 0099 3B       		.uleb128 0x3b
 6806 009a 0B       		.uleb128 0xb
 6807 009b 49       		.uleb128 0x49
 6808 009c 13       		.uleb128 0x13
 6809 009d 02       		.uleb128 0x2
 6810 009e 17       		.uleb128 0x17
 6811 009f 00       		.byte	0
 6812 00a0 00       		.byte	0
 6813 00a1 0D       		.uleb128 0xd
 6814 00a2 898201   		.uleb128 0x4109
 6815 00a5 01       		.byte	0x1
 6816 00a6 11       		.uleb128 0x11
 6817 00a7 01       		.uleb128 0x1
 6818 00a8 31       		.uleb128 0x31
 6819 00a9 13       		.uleb128 0x13
 6820 00aa 01       		.uleb128 0x1
 6821 00ab 13       		.uleb128 0x13
 6822 00ac 00       		.byte	0
 6823 00ad 00       		.byte	0
 6824 00ae 0E       		.uleb128 0xe
 6825 00af 8A8201   		.uleb128 0x410a
 6826 00b2 00       		.byte	0
 6827 00b3 02       		.uleb128 0x2
 6828 00b4 18       		.uleb128 0x18
 6829 00b5 9142     		.uleb128 0x2111
 6830 00b7 18       		.uleb128 0x18
 6831 00b8 00       		.byte	0
 6832 00b9 00       		.byte	0
 6833 00ba 0F       		.uleb128 0xf
 6834 00bb 898201   		.uleb128 0x4109
 6835 00be 00       		.byte	0
 6836 00bf 11       		.uleb128 0x11
 6837 00c0 01       		.uleb128 0x1
 6838 00c1 31       		.uleb128 0x31
 6839 00c2 13       		.uleb128 0x13
 6840 00c3 00       		.byte	0
 6841 00c4 00       		.byte	0
 6842 00c5 10       		.uleb128 0x10
 6843 00c6 898201   		.uleb128 0x4109
 6844 00c9 01       		.byte	0x1
 6845 00ca 11       		.uleb128 0x11
 6846 00cb 01       		.uleb128 0x1
 6847 00cc 31       		.uleb128 0x31
 6848 00cd 13       		.uleb128 0x13
 6849 00ce 00       		.byte	0
 6850 00cf 00       		.byte	0
 6851 00d0 11       		.uleb128 0x11
 6852 00d1 2E       		.uleb128 0x2e
 6853 00d2 01       		.byte	0x1
 6854 00d3 03       		.uleb128 0x3
 6855 00d4 0E       		.uleb128 0xe
 6856 00d5 3A       		.uleb128 0x3a
ARM GAS  C:\Users\Dell\AppData\Local\Temp\ccFHrQg5.s 			page 189


 6857 00d6 0B       		.uleb128 0xb
 6858 00d7 3B       		.uleb128 0x3b
 6859 00d8 05       		.uleb128 0x5
 6860 00d9 27       		.uleb128 0x27
 6861 00da 19       		.uleb128 0x19
 6862 00db 11       		.uleb128 0x11
 6863 00dc 01       		.uleb128 0x1
 6864 00dd 12       		.uleb128 0x12
 6865 00de 06       		.uleb128 0x6
 6866 00df 40       		.uleb128 0x40
 6867 00e0 18       		.uleb128 0x18
 6868 00e1 9742     		.uleb128 0x2117
 6869 00e3 19       		.uleb128 0x19
 6870 00e4 01       		.uleb128 0x1
 6871 00e5 13       		.uleb128 0x13
 6872 00e6 00       		.byte	0
 6873 00e7 00       		.byte	0
 6874 00e8 12       		.uleb128 0x12
 6875 00e9 34       		.uleb128 0x34
 6876 00ea 00       		.byte	0
 6877 00eb 03       		.uleb128 0x3
 6878 00ec 08       		.uleb128 0x8
 6879 00ed 3A       		.uleb128 0x3a
 6880 00ee 0B       		.uleb128 0xb
 6881 00ef 3B       		.uleb128 0x3b
 6882 00f0 05       		.uleb128 0x5
 6883 00f1 49       		.uleb128 0x49
 6884 00f2 13       		.uleb128 0x13
 6885 00f3 02       		.uleb128 0x2
 6886 00f4 17       		.uleb128 0x17
 6887 00f5 00       		.byte	0
 6888 00f6 00       		.byte	0
 6889 00f7 13       		.uleb128 0x13
 6890 00f8 34       		.uleb128 0x34
 6891 00f9 00       		.byte	0
 6892 00fa 03       		.uleb128 0x3
 6893 00fb 0E       		.uleb128 0xe
 6894 00fc 3A       		.uleb128 0x3a
 6895 00fd 0B       		.uleb128 0xb
 6896 00fe 3B       		.uleb128 0x3b
 6897 00ff 05       		.uleb128 0x5
 6898 0100 49       		.uleb128 0x49
 6899 0101 13       		.uleb128 0x13
 6900 0102 02       		.uleb128 0x2
 6901 0103 17       		.uleb128 0x17
 6902 0104 00       		.byte	0
 6903 0105 00       		.byte	0
 6904 0106 14       		.uleb128 0x14
 6905 0107 34       		.uleb128 0x34
 6906 0108 00       		.byte	0
 6907 0109 03       		.uleb128 0x3
 6908 010a 0E       		.uleb128 0xe
 6909 010b 3A       		.uleb128 0x3a
 6910 010c 0B       		.uleb128 0xb
 6911 010d 3B       		.uleb128 0x3b
 6912 010e 05       		.uleb128 0x5
 6913 010f 49       		.uleb128 0x49
ARM GAS  C:\Users\Dell\AppData\Local\Temp\ccFHrQg5.s 			page 190


 6914 0110 13       		.uleb128 0x13
 6915 0111 02       		.uleb128 0x2
 6916 0112 18       		.uleb128 0x18
 6917 0113 00       		.byte	0
 6918 0114 00       		.byte	0
 6919 0115 15       		.uleb128 0x15
 6920 0116 2E       		.uleb128 0x2e
 6921 0117 01       		.byte	0x1
 6922 0118 3F       		.uleb128 0x3f
 6923 0119 19       		.uleb128 0x19
 6924 011a 03       		.uleb128 0x3
 6925 011b 0E       		.uleb128 0xe
 6926 011c 3A       		.uleb128 0x3a
 6927 011d 0B       		.uleb128 0xb
 6928 011e 3B       		.uleb128 0x3b
 6929 011f 05       		.uleb128 0x5
 6930 0120 27       		.uleb128 0x27
 6931 0121 19       		.uleb128 0x19
 6932 0122 11       		.uleb128 0x11
 6933 0123 01       		.uleb128 0x1
 6934 0124 12       		.uleb128 0x12
 6935 0125 06       		.uleb128 0x6
 6936 0126 40       		.uleb128 0x40
 6937 0127 18       		.uleb128 0x18
 6938 0128 9742     		.uleb128 0x2117
 6939 012a 19       		.uleb128 0x19
 6940 012b 01       		.uleb128 0x1
 6941 012c 13       		.uleb128 0x13
 6942 012d 00       		.byte	0
 6943 012e 00       		.byte	0
 6944 012f 16       		.uleb128 0x16
 6945 0130 05       		.uleb128 0x5
 6946 0131 00       		.byte	0
 6947 0132 03       		.uleb128 0x3
 6948 0133 0E       		.uleb128 0xe
 6949 0134 3A       		.uleb128 0x3a
 6950 0135 0B       		.uleb128 0xb
 6951 0136 3B       		.uleb128 0x3b
 6952 0137 05       		.uleb128 0x5
 6953 0138 49       		.uleb128 0x49
 6954 0139 13       		.uleb128 0x13
 6955 013a 02       		.uleb128 0x2
 6956 013b 17       		.uleb128 0x17
 6957 013c 00       		.byte	0
 6958 013d 00       		.byte	0
 6959 013e 17       		.uleb128 0x17
 6960 013f 05       		.uleb128 0x5
 6961 0140 00       		.byte	0
 6962 0141 03       		.uleb128 0x3
 6963 0142 0E       		.uleb128 0xe
 6964 0143 3A       		.uleb128 0x3a
 6965 0144 0B       		.uleb128 0xb
 6966 0145 3B       		.uleb128 0x3b
 6967 0146 05       		.uleb128 0x5
 6968 0147 49       		.uleb128 0x49
 6969 0148 13       		.uleb128 0x13
 6970 0149 02       		.uleb128 0x2
ARM GAS  C:\Users\Dell\AppData\Local\Temp\ccFHrQg5.s 			page 191


 6971 014a 18       		.uleb128 0x18
 6972 014b 00       		.byte	0
 6973 014c 00       		.byte	0
 6974 014d 18       		.uleb128 0x18
 6975 014e 05       		.uleb128 0x5
 6976 014f 00       		.byte	0
 6977 0150 03       		.uleb128 0x3
 6978 0151 08       		.uleb128 0x8
 6979 0152 3A       		.uleb128 0x3a
 6980 0153 0B       		.uleb128 0xb
 6981 0154 3B       		.uleb128 0x3b
 6982 0155 05       		.uleb128 0x5
 6983 0156 49       		.uleb128 0x49
 6984 0157 13       		.uleb128 0x13
 6985 0158 02       		.uleb128 0x2
 6986 0159 17       		.uleb128 0x17
 6987 015a 00       		.byte	0
 6988 015b 00       		.byte	0
 6989 015c 19       		.uleb128 0x19
 6990 015d 2E       		.uleb128 0x2e
 6991 015e 01       		.byte	0x1
 6992 015f 3F       		.uleb128 0x3f
 6993 0160 19       		.uleb128 0x19
 6994 0161 03       		.uleb128 0x3
 6995 0162 0E       		.uleb128 0xe
 6996 0163 3A       		.uleb128 0x3a
 6997 0164 0B       		.uleb128 0xb
 6998 0165 3B       		.uleb128 0x3b
 6999 0166 05       		.uleb128 0x5
 7000 0167 27       		.uleb128 0x27
 7001 0168 19       		.uleb128 0x19
 7002 0169 49       		.uleb128 0x49
 7003 016a 13       		.uleb128 0x13
 7004 016b 11       		.uleb128 0x11
 7005 016c 01       		.uleb128 0x1
 7006 016d 12       		.uleb128 0x12
 7007 016e 06       		.uleb128 0x6
 7008 016f 40       		.uleb128 0x40
 7009 0170 18       		.uleb128 0x18
 7010 0171 9742     		.uleb128 0x2117
 7011 0173 19       		.uleb128 0x19
 7012 0174 01       		.uleb128 0x1
 7013 0175 13       		.uleb128 0x13
 7014 0176 00       		.byte	0
 7015 0177 00       		.byte	0
 7016 0178 1A       		.uleb128 0x1a
 7017 0179 05       		.uleb128 0x5
 7018 017a 00       		.byte	0
 7019 017b 03       		.uleb128 0x3
 7020 017c 08       		.uleb128 0x8
 7021 017d 3A       		.uleb128 0x3a
 7022 017e 0B       		.uleb128 0xb
 7023 017f 3B       		.uleb128 0x3b
 7024 0180 05       		.uleb128 0x5
 7025 0181 49       		.uleb128 0x49
 7026 0182 13       		.uleb128 0x13
 7027 0183 02       		.uleb128 0x2
ARM GAS  C:\Users\Dell\AppData\Local\Temp\ccFHrQg5.s 			page 192


 7028 0184 18       		.uleb128 0x18
 7029 0185 00       		.byte	0
 7030 0186 00       		.byte	0
 7031 0187 1B       		.uleb128 0x1b
 7032 0188 34       		.uleb128 0x34
 7033 0189 00       		.byte	0
 7034 018a 03       		.uleb128 0x3
 7035 018b 0E       		.uleb128 0xe
 7036 018c 3A       		.uleb128 0x3a
 7037 018d 0B       		.uleb128 0xb
 7038 018e 3B       		.uleb128 0x3b
 7039 018f 05       		.uleb128 0x5
 7040 0190 49       		.uleb128 0x49
 7041 0191 13       		.uleb128 0x13
 7042 0192 1C       		.uleb128 0x1c
 7043 0193 0B       		.uleb128 0xb
 7044 0194 00       		.byte	0
 7045 0195 00       		.byte	0
 7046 0196 1C       		.uleb128 0x1c
 7047 0197 26       		.uleb128 0x26
 7048 0198 00       		.byte	0
 7049 0199 49       		.uleb128 0x49
 7050 019a 13       		.uleb128 0x13
 7051 019b 00       		.byte	0
 7052 019c 00       		.byte	0
 7053 019d 1D       		.uleb128 0x1d
 7054 019e 0F       		.uleb128 0xf
 7055 019f 00       		.byte	0
 7056 01a0 0B       		.uleb128 0xb
 7057 01a1 0B       		.uleb128 0xb
 7058 01a2 49       		.uleb128 0x49
 7059 01a3 13       		.uleb128 0x13
 7060 01a4 00       		.byte	0
 7061 01a5 00       		.byte	0
 7062 01a6 1E       		.uleb128 0x1e
 7063 01a7 34       		.uleb128 0x34
 7064 01a8 00       		.byte	0
 7065 01a9 03       		.uleb128 0x3
 7066 01aa 0E       		.uleb128 0xe
 7067 01ab 3A       		.uleb128 0x3a
 7068 01ac 0B       		.uleb128 0xb
 7069 01ad 3B       		.uleb128 0x3b
 7070 01ae 0B       		.uleb128 0xb
 7071 01af 49       		.uleb128 0x49
 7072 01b0 13       		.uleb128 0x13
 7073 01b1 02       		.uleb128 0x2
 7074 01b2 18       		.uleb128 0x18
 7075 01b3 00       		.byte	0
 7076 01b4 00       		.byte	0
 7077 01b5 1F       		.uleb128 0x1f
 7078 01b6 34       		.uleb128 0x34
 7079 01b7 00       		.byte	0
 7080 01b8 03       		.uleb128 0x3
 7081 01b9 0E       		.uleb128 0xe
 7082 01ba 3A       		.uleb128 0x3a
 7083 01bb 0B       		.uleb128 0xb
 7084 01bc 3B       		.uleb128 0x3b
ARM GAS  C:\Users\Dell\AppData\Local\Temp\ccFHrQg5.s 			page 193


 7085 01bd 0B       		.uleb128 0xb
 7086 01be 49       		.uleb128 0x49
 7087 01bf 13       		.uleb128 0x13
 7088 01c0 3F       		.uleb128 0x3f
 7089 01c1 19       		.uleb128 0x19
 7090 01c2 02       		.uleb128 0x2
 7091 01c3 18       		.uleb128 0x18
 7092 01c4 00       		.byte	0
 7093 01c5 00       		.byte	0
 7094 01c6 20       		.uleb128 0x20
 7095 01c7 2E       		.uleb128 0x2e
 7096 01c8 00       		.byte	0
 7097 01c9 3F       		.uleb128 0x3f
 7098 01ca 19       		.uleb128 0x19
 7099 01cb 3C       		.uleb128 0x3c
 7100 01cc 19       		.uleb128 0x19
 7101 01cd 6E       		.uleb128 0x6e
 7102 01ce 0E       		.uleb128 0xe
 7103 01cf 03       		.uleb128 0x3
 7104 01d0 0E       		.uleb128 0xe
 7105 01d1 3A       		.uleb128 0x3a
 7106 01d2 0B       		.uleb128 0xb
 7107 01d3 3B       		.uleb128 0x3b
 7108 01d4 0B       		.uleb128 0xb
 7109 01d5 00       		.byte	0
 7110 01d6 00       		.byte	0
 7111 01d7 00       		.byte	0
 7112              		.section	.debug_loc,"",%progbits
 7113              	.Ldebug_loc0:
 7114              	.LLST0:
 7115 0000 1C000000 		.4byte	.LVL1
 7116 0004 28000000 		.4byte	.LVL3
 7117 0008 0100     		.2byte	0x1
 7118 000a 54       		.byte	0x54
 7119 000b 2A000000 		.4byte	.LVL4
 7120 000f 2C000000 		.4byte	.LVL5
 7121 0013 0100     		.2byte	0x1
 7122 0015 54       		.byte	0x54
 7123 0016 2E000000 		.4byte	.LVL6
 7124 001a 34000000 		.4byte	.LVL7
 7125 001e 0100     		.2byte	0x1
 7126 0020 54       		.byte	0x54
 7127 0021 36000000 		.4byte	.LVL8
 7128 0025 68000000 		.4byte	.LVL11
 7129 0029 0100     		.2byte	0x1
 7130 002b 54       		.byte	0x54
 7131 002c 6A000000 		.4byte	.LVL12
 7132 0030 7C000000 		.4byte	.LVL13
 7133 0034 0100     		.2byte	0x1
 7134 0036 54       		.byte	0x54
 7135 0037 7C000000 		.4byte	.LVL13
 7136 003b 80000000 		.4byte	.LVL14
 7137 003f 0200     		.2byte	0x2
 7138 0041 30       		.byte	0x30
 7139 0042 9F       		.byte	0x9f
 7140 0043 80000000 		.4byte	.LVL14
 7141 0047 96000000 		.4byte	.LVL16
ARM GAS  C:\Users\Dell\AppData\Local\Temp\ccFHrQg5.s 			page 194


 7142 004b 0100     		.2byte	0x1
 7143 004d 54       		.byte	0x54
 7144 004e 98000000 		.4byte	.LVL17
 7145 0052 9C000000 		.4byte	.LVL18
 7146 0056 0100     		.2byte	0x1
 7147 0058 54       		.byte	0x54
 7148 0059 B6000000 		.4byte	.LVL20
 7149 005d C2000000 		.4byte	.LVL22
 7150 0061 0100     		.2byte	0x1
 7151 0063 54       		.byte	0x54
 7152 0064 C4000000 		.4byte	.LVL23
 7153 0068 C6000000 		.4byte	.LVL24
 7154 006c 0100     		.2byte	0x1
 7155 006e 54       		.byte	0x54
 7156 006f C8000000 		.4byte	.LVL25
 7157 0073 D0000000 		.4byte	.LVL26
 7158 0077 0100     		.2byte	0x1
 7159 0079 54       		.byte	0x54
 7160 007a D0000000 		.4byte	.LVL26
 7161 007e DA000000 		.4byte	.LVL27
 7162 0082 0100     		.2byte	0x1
 7163 0084 53       		.byte	0x53
 7164 0085 E6000000 		.4byte	.LVL29
 7165 0089 EE000000 		.4byte	.LVL30
 7166 008d 0100     		.2byte	0x1
 7167 008f 53       		.byte	0x53
 7168 0090 F8000000 		.4byte	.LVL31
 7169 0094 FC000000 		.4byte	.LVL32
 7170 0098 0200     		.2byte	0x2
 7171 009a 30       		.byte	0x30
 7172 009b 9F       		.byte	0x9f
 7173 009c FC000000 		.4byte	.LVL32
 7174 00a0 12010000 		.4byte	.LVL34
 7175 00a4 0100     		.2byte	0x1
 7176 00a6 54       		.byte	0x54
 7177 00a7 14010000 		.4byte	.LVL35
 7178 00ab 18010000 		.4byte	.LVL36
 7179 00af 0100     		.2byte	0x1
 7180 00b1 54       		.byte	0x54
 7181 00b2 00000000 		.4byte	0
 7182 00b6 00000000 		.4byte	0
 7183              	.LLST1:
 7184 00ba 18000000 		.4byte	.LVL47
 7185 00be 1C000000 		.4byte	.LVL48
 7186 00c2 0200     		.2byte	0x2
 7187 00c4 30       		.byte	0x30
 7188 00c5 9F       		.byte	0x9f
 7189 00c6 1C000000 		.4byte	.LVL48
 7190 00ca 58000000 		.4byte	.LVL54
 7191 00ce 0100     		.2byte	0x1
 7192 00d0 56       		.byte	0x56
 7193 00d1 5A000000 		.4byte	.LVL55
 7194 00d5 62000000 		.4byte	.LVL56
 7195 00d9 0100     		.2byte	0x1
 7196 00db 56       		.byte	0x56
 7197 00dc 00000000 		.4byte	0
 7198 00e0 00000000 		.4byte	0
ARM GAS  C:\Users\Dell\AppData\Local\Temp\ccFHrQg5.s 			page 195


 7199              	.LLST2:
 7200 00e4 24000000 		.4byte	.LVL49
 7201 00e8 5A000000 		.4byte	.LVL55
 7202 00ec 0100     		.2byte	0x1
 7203 00ee 55       		.byte	0x55
 7204 00ef 00000000 		.4byte	0
 7205 00f3 00000000 		.4byte	0
 7206              	.LLST3:
 7207 00f7 00000000 		.4byte	.LVL58
 7208 00fb 06000000 		.4byte	.LVL60
 7209 00ff 0100     		.2byte	0x1
 7210 0101 50       		.byte	0x50
 7211 0102 06000000 		.4byte	.LVL60
 7212 0106 10000000 		.4byte	.LFE7
 7213 010a 0400     		.2byte	0x4
 7214 010c F3       		.byte	0xf3
 7215 010d 01       		.uleb128 0x1
 7216 010e 50       		.byte	0x50
 7217 010f 9F       		.byte	0x9f
 7218 0110 00000000 		.4byte	0
 7219 0114 00000000 		.4byte	0
 7220              	.LLST4:
 7221 0118 04000000 		.4byte	.LVL59
 7222 011c 0A000000 		.4byte	.LVL61
 7223 0120 0100     		.2byte	0x1
 7224 0122 51       		.byte	0x51
 7225 0123 00000000 		.4byte	0
 7226 0127 00000000 		.4byte	0
 7227              	.LLST5:
 7228 012b 00000000 		.4byte	.LVL62
 7229 012f 0E000000 		.4byte	.LVL64
 7230 0133 0100     		.2byte	0x1
 7231 0135 50       		.byte	0x50
 7232 0136 0E000000 		.4byte	.LVL64
 7233 013a 20000000 		.4byte	.LFE8
 7234 013e 0400     		.2byte	0x4
 7235 0140 F3       		.byte	0xf3
 7236 0141 01       		.uleb128 0x1
 7237 0142 50       		.byte	0x50
 7238 0143 9F       		.byte	0x9f
 7239 0144 00000000 		.4byte	0
 7240 0148 00000000 		.4byte	0
 7241              	.LLST6:
 7242 014c 08000000 		.4byte	.LVL63
 7243 0150 0E000000 		.4byte	.LVL64
 7244 0154 0100     		.2byte	0x1
 7245 0156 50       		.byte	0x50
 7246 0157 0E000000 		.4byte	.LVL64
 7247 015b 18000000 		.4byte	.LVL65
 7248 015f 0400     		.2byte	0x4
 7249 0161 F3       		.byte	0xf3
 7250 0162 01       		.uleb128 0x1
 7251 0163 50       		.byte	0x50
 7252 0164 9F       		.byte	0x9f
 7253 0165 00000000 		.4byte	0
 7254 0169 00000000 		.4byte	0
 7255              	.LLST7:
ARM GAS  C:\Users\Dell\AppData\Local\Temp\ccFHrQg5.s 			page 196


 7256 016d 00000000 		.4byte	.LVL66
 7257 0171 0E000000 		.4byte	.LVL68
 7258 0175 0100     		.2byte	0x1
 7259 0177 50       		.byte	0x50
 7260 0178 0E000000 		.4byte	.LVL68
 7261 017c 20000000 		.4byte	.LFE9
 7262 0180 0400     		.2byte	0x4
 7263 0182 F3       		.byte	0xf3
 7264 0183 01       		.uleb128 0x1
 7265 0184 50       		.byte	0x50
 7266 0185 9F       		.byte	0x9f
 7267 0186 00000000 		.4byte	0
 7268 018a 00000000 		.4byte	0
 7269              	.LLST8:
 7270 018e 08000000 		.4byte	.LVL67
 7271 0192 0E000000 		.4byte	.LVL68
 7272 0196 0100     		.2byte	0x1
 7273 0198 50       		.byte	0x50
 7274 0199 0E000000 		.4byte	.LVL68
 7275 019d 18000000 		.4byte	.LVL71
 7276 01a1 0400     		.2byte	0x4
 7277 01a3 F3       		.byte	0xf3
 7278 01a4 01       		.uleb128 0x1
 7279 01a5 50       		.byte	0x50
 7280 01a6 9F       		.byte	0x9f
 7281 01a7 00000000 		.4byte	0
 7282 01ab 00000000 		.4byte	0
 7283              	.LLST9:
 7284 01af 10000000 		.4byte	.LVL69
 7285 01b3 16000000 		.4byte	.LVL70
 7286 01b7 0100     		.2byte	0x1
 7287 01b9 50       		.byte	0x50
 7288 01ba 00000000 		.4byte	0
 7289 01be 00000000 		.4byte	0
 7290              	.LLST10:
 7291 01c2 00000000 		.4byte	.LVL72
 7292 01c6 0E000000 		.4byte	.LVL74
 7293 01ca 0100     		.2byte	0x1
 7294 01cc 50       		.byte	0x50
 7295 01cd 0E000000 		.4byte	.LVL74
 7296 01d1 1C000000 		.4byte	.LFE10
 7297 01d5 0400     		.2byte	0x4
 7298 01d7 F3       		.byte	0xf3
 7299 01d8 01       		.uleb128 0x1
 7300 01d9 50       		.byte	0x50
 7301 01da 9F       		.byte	0x9f
 7302 01db 00000000 		.4byte	0
 7303 01df 00000000 		.4byte	0
 7304              	.LLST11:
 7305 01e3 08000000 		.4byte	.LVL73
 7306 01e7 0E000000 		.4byte	.LVL74
 7307 01eb 0100     		.2byte	0x1
 7308 01ed 50       		.byte	0x50
 7309 01ee 0E000000 		.4byte	.LVL74
 7310 01f2 16000000 		.4byte	.LVL75
 7311 01f6 0400     		.2byte	0x4
 7312 01f8 F3       		.byte	0xf3
ARM GAS  C:\Users\Dell\AppData\Local\Temp\ccFHrQg5.s 			page 197


 7313 01f9 01       		.uleb128 0x1
 7314 01fa 50       		.byte	0x50
 7315 01fb 9F       		.byte	0x9f
 7316 01fc 00000000 		.4byte	0
 7317 0200 00000000 		.4byte	0
 7318              	.LLST12:
 7319 0204 00000000 		.4byte	.LVL76
 7320 0208 10000000 		.4byte	.LVL78
 7321 020c 0100     		.2byte	0x1
 7322 020e 50       		.byte	0x50
 7323 020f 10000000 		.4byte	.LVL78
 7324 0213 14000000 		.4byte	.LVL80
 7325 0217 0400     		.2byte	0x4
 7326 0219 F3       		.byte	0xf3
 7327 021a 01       		.uleb128 0x1
 7328 021b 50       		.byte	0x50
 7329 021c 9F       		.byte	0x9f
 7330 021d 14000000 		.4byte	.LVL80
 7331 0221 16000000 		.4byte	.LVL81
 7332 0225 0100     		.2byte	0x1
 7333 0227 50       		.byte	0x50
 7334 0228 16000000 		.4byte	.LVL81
 7335 022c 20000000 		.4byte	.LVL84
 7336 0230 0400     		.2byte	0x4
 7337 0232 F3       		.byte	0xf3
 7338 0233 01       		.uleb128 0x1
 7339 0234 50       		.byte	0x50
 7340 0235 9F       		.byte	0x9f
 7341 0236 20000000 		.4byte	.LVL84
 7342 023a 22000000 		.4byte	.LVL85
 7343 023e 0100     		.2byte	0x1
 7344 0240 50       		.byte	0x50
 7345 0241 22000000 		.4byte	.LVL85
 7346 0245 28000000 		.4byte	.LFE11
 7347 0249 0400     		.2byte	0x4
 7348 024b F3       		.byte	0xf3
 7349 024c 01       		.uleb128 0x1
 7350 024d 50       		.byte	0x50
 7351 024e 9F       		.byte	0x9f
 7352 024f 00000000 		.4byte	0
 7353 0253 00000000 		.4byte	0
 7354              	.LLST13:
 7355 0257 00000000 		.4byte	.LVL76
 7356 025b 1E000000 		.4byte	.LVL83
 7357 025f 0200     		.2byte	0x2
 7358 0261 30       		.byte	0x30
 7359 0262 9F       		.byte	0x9f
 7360 0263 1E000000 		.4byte	.LVL83
 7361 0267 20000000 		.4byte	.LVL84
 7362 026b 0100     		.2byte	0x1
 7363 026d 50       		.byte	0x50
 7364 026e 20000000 		.4byte	.LVL84
 7365 0272 22000000 		.4byte	.LVL85
 7366 0276 0200     		.2byte	0x2
 7367 0278 30       		.byte	0x30
 7368 0279 9F       		.byte	0x9f
 7369 027a 22000000 		.4byte	.LVL85
ARM GAS  C:\Users\Dell\AppData\Local\Temp\ccFHrQg5.s 			page 198


 7370 027e 28000000 		.4byte	.LFE11
 7371 0282 0100     		.2byte	0x1
 7372 0284 50       		.byte	0x50
 7373 0285 00000000 		.4byte	0
 7374 0289 00000000 		.4byte	0
 7375              	.LLST14:
 7376 028d 08000000 		.4byte	.LVL77
 7377 0291 10000000 		.4byte	.LVL78
 7378 0295 0100     		.2byte	0x1
 7379 0297 50       		.byte	0x50
 7380 0298 10000000 		.4byte	.LVL78
 7381 029c 14000000 		.4byte	.LVL80
 7382 02a0 0400     		.2byte	0x4
 7383 02a2 F3       		.byte	0xf3
 7384 02a3 01       		.uleb128 0x1
 7385 02a4 50       		.byte	0x50
 7386 02a5 9F       		.byte	0x9f
 7387 02a6 00000000 		.4byte	0
 7388 02aa 00000000 		.4byte	0
 7389              	.LLST15:
 7390 02ae 00000000 		.4byte	.LVL76
 7391 02b2 12000000 		.4byte	.LVL79
 7392 02b6 0200     		.2byte	0x2
 7393 02b8 30       		.byte	0x30
 7394 02b9 9F       		.byte	0x9f
 7395 02ba 12000000 		.4byte	.LVL79
 7396 02be 14000000 		.4byte	.LVL80
 7397 02c2 0100     		.2byte	0x1
 7398 02c4 50       		.byte	0x50
 7399 02c5 14000000 		.4byte	.LVL80
 7400 02c9 16000000 		.4byte	.LVL81
 7401 02cd 0200     		.2byte	0x2
 7402 02cf 30       		.byte	0x30
 7403 02d0 9F       		.byte	0x9f
 7404 02d1 16000000 		.4byte	.LVL81
 7405 02d5 1A000000 		.4byte	.LVL82
 7406 02d9 0100     		.2byte	0x1
 7407 02db 50       		.byte	0x50
 7408 02dc 20000000 		.4byte	.LVL84
 7409 02e0 28000000 		.4byte	.LFE11
 7410 02e4 0200     		.2byte	0x2
 7411 02e6 30       		.byte	0x30
 7412 02e7 9F       		.byte	0x9f
 7413 02e8 00000000 		.4byte	0
 7414 02ec 00000000 		.4byte	0
 7415              	.LLST16:
 7416 02f0 04000000 		.4byte	.LVL87
 7417 02f4 0A000000 		.4byte	.LVL88
 7418 02f8 0100     		.2byte	0x1
 7419 02fa 50       		.byte	0x50
 7420 02fb 00000000 		.4byte	0
 7421 02ff 00000000 		.4byte	0
 7422              	.LLST17:
 7423 0303 00000000 		.4byte	.LVL89
 7424 0307 04000000 		.4byte	.LVL90
 7425 030b 0200     		.2byte	0x2
 7426 030d 30       		.byte	0x30
ARM GAS  C:\Users\Dell\AppData\Local\Temp\ccFHrQg5.s 			page 199


 7427 030e 9F       		.byte	0x9f
 7428 030f 04000000 		.4byte	.LVL90
 7429 0313 0C000000 		.4byte	.LVL91
 7430 0317 0100     		.2byte	0x1
 7431 0319 53       		.byte	0x53
 7432 031a 0E000000 		.4byte	.LVL92
 7433 031e 18000000 		.4byte	.LFE13
 7434 0322 0100     		.2byte	0x1
 7435 0324 53       		.byte	0x53
 7436 0325 00000000 		.4byte	0
 7437 0329 00000000 		.4byte	0
 7438              	.LLST18:
 7439 032d 1A000000 		.4byte	.LVL95
 7440 0331 24000000 		.4byte	.LVL96
 7441 0335 0100     		.2byte	0x1
 7442 0337 53       		.byte	0x53
 7443 0338 26000000 		.4byte	.LVL97
 7444 033c 2C000000 		.4byte	.LVL98
 7445 0340 0100     		.2byte	0x1
 7446 0342 53       		.byte	0x53
 7447 0343 00000000 		.4byte	0
 7448 0347 00000000 		.4byte	0
 7449              	.LLST19:
 7450 034b 04000000 		.4byte	.LVL104
 7451 034f 1C000000 		.4byte	.LVL105
 7452 0353 0100     		.2byte	0x1
 7453 0355 51       		.byte	0x51
 7454 0356 00000000 		.4byte	0
 7455 035a 00000000 		.4byte	0
 7456              	.LLST20:
 7457 035e 00000000 		.4byte	.LVL106
 7458 0362 08000000 		.4byte	.LVL108
 7459 0366 0100     		.2byte	0x1
 7460 0368 50       		.byte	0x50
 7461 0369 08000000 		.4byte	.LVL108
 7462 036d 0C000000 		.4byte	.LVL110
 7463 0371 0400     		.2byte	0x4
 7464 0373 F3       		.byte	0xf3
 7465 0374 01       		.uleb128 0x1
 7466 0375 50       		.byte	0x50
 7467 0376 9F       		.byte	0x9f
 7468 0377 0C000000 		.4byte	.LVL110
 7469 037b 0E000000 		.4byte	.LVL111
 7470 037f 0100     		.2byte	0x1
 7471 0381 50       		.byte	0x50
 7472 0382 0E000000 		.4byte	.LVL111
 7473 0386 18000000 		.4byte	.LFE33
 7474 038a 0400     		.2byte	0x4
 7475 038c F3       		.byte	0xf3
 7476 038d 01       		.uleb128 0x1
 7477 038e 50       		.byte	0x50
 7478 038f 9F       		.byte	0x9f
 7479 0390 00000000 		.4byte	0
 7480 0394 00000000 		.4byte	0
 7481              	.LLST21:
 7482 0398 0E000000 		.4byte	.LVL111
 7483 039c 12000000 		.4byte	.LVL112
ARM GAS  C:\Users\Dell\AppData\Local\Temp\ccFHrQg5.s 			page 200


 7484 03a0 0500     		.2byte	0x5
 7485 03a2 70       		.byte	0x70
 7486 03a3 00       		.sleb128 0
 7487 03a4 31       		.byte	0x31
 7488 03a5 27       		.byte	0x27
 7489 03a6 9F       		.byte	0x9f
 7490 03a7 12000000 		.4byte	.LVL112
 7491 03ab 18000000 		.4byte	.LFE33
 7492 03af 0100     		.2byte	0x1
 7493 03b1 50       		.byte	0x50
 7494 03b2 00000000 		.4byte	0
 7495 03b6 00000000 		.4byte	0
 7496              	.LLST22:
 7497 03ba 04000000 		.4byte	.LVL107
 7498 03be 08000000 		.4byte	.LVL108
 7499 03c2 0100     		.2byte	0x1
 7500 03c4 50       		.byte	0x50
 7501 03c5 08000000 		.4byte	.LVL108
 7502 03c9 0C000000 		.4byte	.LVL110
 7503 03cd 0400     		.2byte	0x4
 7504 03cf F3       		.byte	0xf3
 7505 03d0 01       		.uleb128 0x1
 7506 03d1 50       		.byte	0x50
 7507 03d2 9F       		.byte	0x9f
 7508 03d3 00000000 		.4byte	0
 7509 03d7 00000000 		.4byte	0
 7510              	.LLST23:
 7511 03db 00000000 		.4byte	.LVL106
 7512 03df 0A000000 		.4byte	.LVL109
 7513 03e3 0200     		.2byte	0x2
 7514 03e5 30       		.byte	0x30
 7515 03e6 9F       		.byte	0x9f
 7516 03e7 0A000000 		.4byte	.LVL109
 7517 03eb 0C000000 		.4byte	.LVL110
 7518 03ef 0100     		.2byte	0x1
 7519 03f1 50       		.byte	0x50
 7520 03f2 0C000000 		.4byte	.LVL110
 7521 03f6 0E000000 		.4byte	.LVL111
 7522 03fa 0200     		.2byte	0x2
 7523 03fc 30       		.byte	0x30
 7524 03fd 9F       		.byte	0x9f
 7525 03fe 0E000000 		.4byte	.LVL111
 7526 0402 12000000 		.4byte	.LVL112
 7527 0406 0100     		.2byte	0x1
 7528 0408 50       		.byte	0x50
 7529 0409 00000000 		.4byte	0
 7530 040d 00000000 		.4byte	0
 7531              	.LLST24:
 7532 0411 00000000 		.4byte	.LVL113
 7533 0415 04000000 		.4byte	.LVL114
 7534 0419 0100     		.2byte	0x1
 7535 041b 50       		.byte	0x50
 7536 041c 04000000 		.4byte	.LVL114
 7537 0420 10000000 		.4byte	.LFE34
 7538 0424 0400     		.2byte	0x4
 7539 0426 F3       		.byte	0xf3
 7540 0427 01       		.uleb128 0x1
ARM GAS  C:\Users\Dell\AppData\Local\Temp\ccFHrQg5.s 			page 201


 7541 0428 50       		.byte	0x50
 7542 0429 9F       		.byte	0x9f
 7543 042a 00000000 		.4byte	0
 7544 042e 00000000 		.4byte	0
 7545              	.LLST25:
 7546 0432 04000000 		.4byte	.LVL114
 7547 0436 08000000 		.4byte	.LVL115
 7548 043a 0100     		.2byte	0x1
 7549 043c 50       		.byte	0x50
 7550 043d 00000000 		.4byte	0
 7551 0441 00000000 		.4byte	0
 7552              	.LLST26:
 7553 0445 04000000 		.4byte	.LVL114
 7554 0449 08000000 		.4byte	.LVL115
 7555 044d 0800     		.2byte	0x8
 7556 044f 70       		.byte	0x70
 7557 0450 00       		.sleb128 0
 7558 0451 03       		.byte	0x3
 7559 0452 00000000 		.4byte	.LANCHOR2
 7560 0456 22       		.byte	0x22
 7561 0457 08000000 		.4byte	.LVL115
 7562 045b 10000000 		.4byte	.LFE34
 7563 045f 0100     		.2byte	0x1
 7564 0461 50       		.byte	0x50
 7565 0462 00000000 		.4byte	0
 7566 0466 00000000 		.4byte	0
 7567              	.LLST27:
 7568 046a 00000000 		.4byte	.LVL116
 7569 046e 32000000 		.4byte	.LVL126
 7570 0472 0100     		.2byte	0x1
 7571 0474 50       		.byte	0x50
 7572 0475 32000000 		.4byte	.LVL126
 7573 0479 24010000 		.4byte	.LFE15
 7574 047d 0400     		.2byte	0x4
 7575 047f F3       		.byte	0xf3
 7576 0480 01       		.uleb128 0x1
 7577 0481 50       		.byte	0x50
 7578 0482 9F       		.byte	0x9f
 7579 0483 00000000 		.4byte	0
 7580 0487 00000000 		.4byte	0
 7581              	.LLST28:
 7582 048b 00000000 		.4byte	.LVL116
 7583 048f 32000000 		.4byte	.LVL126
 7584 0493 0100     		.2byte	0x1
 7585 0495 51       		.byte	0x51
 7586 0496 32000000 		.4byte	.LVL126
 7587 049a 24010000 		.4byte	.LFE15
 7588 049e 0400     		.2byte	0x4
 7589 04a0 F3       		.byte	0xf3
 7590 04a1 01       		.uleb128 0x1
 7591 04a2 51       		.byte	0x51
 7592 04a3 9F       		.byte	0x9f
 7593 04a4 00000000 		.4byte	0
 7594 04a8 00000000 		.4byte	0
 7595              	.LLST29:
 7596 04ac 00000000 		.4byte	.LVL116
 7597 04b0 32000000 		.4byte	.LVL126
ARM GAS  C:\Users\Dell\AppData\Local\Temp\ccFHrQg5.s 			page 202


 7598 04b4 0100     		.2byte	0x1
 7599 04b6 52       		.byte	0x52
 7600 04b7 32000000 		.4byte	.LVL126
 7601 04bb 24010000 		.4byte	.LFE15
 7602 04bf 0400     		.2byte	0x4
 7603 04c1 F3       		.byte	0xf3
 7604 04c2 01       		.uleb128 0x1
 7605 04c3 52       		.byte	0x52
 7606 04c4 9F       		.byte	0x9f
 7607 04c5 00000000 		.4byte	0
 7608 04c9 00000000 		.4byte	0
 7609              	.LLST30:
 7610 04cd 00000000 		.4byte	.LVL116
 7611 04d1 10000000 		.4byte	.LVL118
 7612 04d5 0100     		.2byte	0x1
 7613 04d7 53       		.byte	0x53
 7614 04d8 10000000 		.4byte	.LVL118
 7615 04dc 24010000 		.4byte	.LFE15
 7616 04e0 0400     		.2byte	0x4
 7617 04e2 F3       		.byte	0xf3
 7618 04e3 01       		.uleb128 0x1
 7619 04e4 53       		.byte	0x53
 7620 04e5 9F       		.byte	0x9f
 7621 04e6 00000000 		.4byte	0
 7622 04ea 00000000 		.4byte	0
 7623              	.LLST31:
 7624 04ee 2E000000 		.4byte	.LVL125
 7625 04f2 32000000 		.4byte	.LVL126
 7626 04f6 0100     		.2byte	0x1
 7627 04f8 54       		.byte	0x54
 7628 04f9 32000000 		.4byte	.LVL126
 7629 04fd 3B000000 		.4byte	.LVL127-1
 7630 0501 0100     		.2byte	0x1
 7631 0503 53       		.byte	0x53
 7632 0504 4A000000 		.4byte	.LVL129
 7633 0508 7A000000 		.4byte	.LVL133
 7634 050c 0100     		.2byte	0x1
 7635 050e 53       		.byte	0x53
 7636 050f 7C000000 		.4byte	.LVL134
 7637 0513 B6000000 		.4byte	.LVL140
 7638 0517 0100     		.2byte	0x1
 7639 0519 53       		.byte	0x53
 7640 051a B8000000 		.4byte	.LVL141
 7641 051e C2000000 		.4byte	.LVL143
 7642 0522 0100     		.2byte	0x1
 7643 0524 53       		.byte	0x53
 7644 0525 E2000000 		.4byte	.LVL146
 7645 0529 12010000 		.4byte	.LVL147
 7646 052d 0100     		.2byte	0x1
 7647 052f 54       		.byte	0x54
 7648 0530 14010000 		.4byte	.LVL148
 7649 0534 18010000 		.4byte	.LVL149
 7650 0538 0100     		.2byte	0x1
 7651 053a 54       		.byte	0x54
 7652 053b 00000000 		.4byte	0
 7653 053f 00000000 		.4byte	0
 7654              	.LLST32:
ARM GAS  C:\Users\Dell\AppData\Local\Temp\ccFHrQg5.s 			page 203


 7655 0543 20000000 		.4byte	.LVL121
 7656 0547 24000000 		.4byte	.LVL122
 7657 054b 0100     		.2byte	0x1
 7658 054d 56       		.byte	0x56
 7659 054e 28000000 		.4byte	.LVL123
 7660 0552 2C000000 		.4byte	.LVL124
 7661 0556 0100     		.2byte	0x1
 7662 0558 56       		.byte	0x56
 7663 0559 2E000000 		.4byte	.LVL125
 7664 055d B2000000 		.4byte	.LVL138
 7665 0561 0100     		.2byte	0x1
 7666 0563 56       		.byte	0x56
 7667 0564 B4000000 		.4byte	.LVL139
 7668 0568 DA000000 		.4byte	.LVL144
 7669 056c 0100     		.2byte	0x1
 7670 056e 56       		.byte	0x56
 7671 056f DC000000 		.4byte	.LVL145
 7672 0573 1E010000 		.4byte	.LVL150
 7673 0577 0100     		.2byte	0x1
 7674 0579 56       		.byte	0x56
 7675 057a 00000000 		.4byte	0
 7676 057e 00000000 		.4byte	0
 7677              	.LLST33:
 7678 0582 1C000000 		.4byte	.LVL120
 7679 0586 24000000 		.4byte	.LVL122
 7680 058a 0200     		.2byte	0x2
 7681 058c 31       		.byte	0x31
 7682 058d 9F       		.byte	0x9f
 7683 058e 24000000 		.4byte	.LVL122
 7684 0592 2C000000 		.4byte	.LVL124
 7685 0596 0200     		.2byte	0x2
 7686 0598 32       		.byte	0x32
 7687 0599 9F       		.byte	0x9f
 7688 059a 2E000000 		.4byte	.LVL125
 7689 059e 1E010000 		.4byte	.LVL150
 7690 05a2 0100     		.2byte	0x1
 7691 05a4 57       		.byte	0x57
 7692 05a5 00000000 		.4byte	0
 7693 05a9 00000000 		.4byte	0
 7694              	.LLST34:
 7695 05ad 32000000 		.4byte	.LVL126
 7696 05b1 48000000 		.4byte	.LVL128
 7697 05b5 0500     		.2byte	0x5
 7698 05b7 79       		.byte	0x79
 7699 05b8 00       		.sleb128 0
 7700 05b9 3F       		.byte	0x3f
 7701 05ba 1A       		.byte	0x1a
 7702 05bb 9F       		.byte	0x9f
 7703 05bc 00000000 		.4byte	0
 7704 05c0 00000000 		.4byte	0
 7705              	.LLST35:
 7706 05c4 0E000000 		.4byte	.LVL117
 7707 05c8 56000000 		.4byte	.LVL130
 7708 05cc 0200     		.2byte	0x2
 7709 05ce 30       		.byte	0x30
 7710 05cf 9F       		.byte	0x9f
 7711 05d0 56000000 		.4byte	.LVL130
ARM GAS  C:\Users\Dell\AppData\Local\Temp\ccFHrQg5.s 			page 204


 7712 05d4 76000000 		.4byte	.LVL131
 7713 05d8 0100     		.2byte	0x1
 7714 05da 52       		.byte	0x52
 7715 05db 78000000 		.4byte	.LVL132
 7716 05df 7E000000 		.4byte	.LVL135
 7717 05e3 0100     		.2byte	0x1
 7718 05e5 52       		.byte	0x52
 7719 05e6 7E000000 		.4byte	.LVL135
 7720 05ea 82000000 		.4byte	.LVL136
 7721 05ee 0200     		.2byte	0x2
 7722 05f0 30       		.byte	0x30
 7723 05f1 9F       		.byte	0x9f
 7724 05f2 82000000 		.4byte	.LVL136
 7725 05f6 86000000 		.4byte	.LVL137
 7726 05fa 0100     		.2byte	0x1
 7727 05fc 52       		.byte	0x52
 7728 05fd 00000000 		.4byte	0
 7729 0601 00000000 		.4byte	0
 7730              	.LLST36:
 7731 0605 14000000 		.4byte	.LVL119
 7732 0609 32000000 		.4byte	.LVL126
 7733 060d 0100     		.2byte	0x1
 7734 060f 50       		.byte	0x50
 7735 0610 32000000 		.4byte	.LVL126
 7736 0614 1E010000 		.4byte	.LVL150
 7737 0618 0100     		.2byte	0x1
 7738 061a 59       		.byte	0x59
 7739 061b 00000000 		.4byte	0
 7740 061f 00000000 		.4byte	0
 7741              	.LLST37:
 7742 0623 00000000 		.4byte	.LVL151
 7743 0627 0F000000 		.4byte	.LVL153-1
 7744 062b 0100     		.2byte	0x1
 7745 062d 50       		.byte	0x50
 7746 062e 0F000000 		.4byte	.LVL153-1
 7747 0632 16000000 		.4byte	.LVL154
 7748 0636 0400     		.2byte	0x4
 7749 0638 F3       		.byte	0xf3
 7750 0639 01       		.uleb128 0x1
 7751 063a 50       		.byte	0x50
 7752 063b 9F       		.byte	0x9f
 7753 063c 16000000 		.4byte	.LVL154
 7754 0640 1C000000 		.4byte	.LFE18
 7755 0644 0100     		.2byte	0x1
 7756 0646 50       		.byte	0x50
 7757 0647 00000000 		.4byte	0
 7758 064b 00000000 		.4byte	0
 7759              	.LLST38:
 7760 064f 00000000 		.4byte	.LVL151
 7761 0653 0F000000 		.4byte	.LVL153-1
 7762 0657 0100     		.2byte	0x1
 7763 0659 51       		.byte	0x51
 7764 065a 0F000000 		.4byte	.LVL153-1
 7765 065e 16000000 		.4byte	.LVL154
 7766 0662 0400     		.2byte	0x4
 7767 0664 F3       		.byte	0xf3
 7768 0665 01       		.uleb128 0x1
ARM GAS  C:\Users\Dell\AppData\Local\Temp\ccFHrQg5.s 			page 205


 7769 0666 51       		.byte	0x51
 7770 0667 9F       		.byte	0x9f
 7771 0668 16000000 		.4byte	.LVL154
 7772 066c 1C000000 		.4byte	.LFE18
 7773 0670 0100     		.2byte	0x1
 7774 0672 51       		.byte	0x51
 7775 0673 00000000 		.4byte	0
 7776 0677 00000000 		.4byte	0
 7777              	.LLST39:
 7778 067b 0C000000 		.4byte	.LVL152
 7779 067f 16000000 		.4byte	.LVL154
 7780 0683 0100     		.2byte	0x1
 7781 0685 54       		.byte	0x54
 7782 0686 00000000 		.4byte	0
 7783 068a 00000000 		.4byte	0
 7784              	.LLST40:
 7785 068e 00000000 		.4byte	.LVL155
 7786 0692 0B000000 		.4byte	.LVL157-1
 7787 0696 0100     		.2byte	0x1
 7788 0698 50       		.byte	0x50
 7789 0699 0B000000 		.4byte	.LVL157-1
 7790 069d 12000000 		.4byte	.LVL158
 7791 06a1 0400     		.2byte	0x4
 7792 06a3 F3       		.byte	0xf3
 7793 06a4 01       		.uleb128 0x1
 7794 06a5 50       		.byte	0x50
 7795 06a6 9F       		.byte	0x9f
 7796 06a7 12000000 		.4byte	.LVL158
 7797 06ab 18000000 		.4byte	.LFE19
 7798 06af 0100     		.2byte	0x1
 7799 06b1 50       		.byte	0x50
 7800 06b2 00000000 		.4byte	0
 7801 06b6 00000000 		.4byte	0
 7802              	.LLST41:
 7803 06ba 00000000 		.4byte	.LVL155
 7804 06be 0B000000 		.4byte	.LVL157-1
 7805 06c2 0100     		.2byte	0x1
 7806 06c4 51       		.byte	0x51
 7807 06c5 0B000000 		.4byte	.LVL157-1
 7808 06c9 12000000 		.4byte	.LVL158
 7809 06cd 0400     		.2byte	0x4
 7810 06cf F3       		.byte	0xf3
 7811 06d0 01       		.uleb128 0x1
 7812 06d1 51       		.byte	0x51
 7813 06d2 9F       		.byte	0x9f
 7814 06d3 12000000 		.4byte	.LVL158
 7815 06d7 18000000 		.4byte	.LFE19
 7816 06db 0100     		.2byte	0x1
 7817 06dd 51       		.byte	0x51
 7818 06de 00000000 		.4byte	0
 7819 06e2 00000000 		.4byte	0
 7820              	.LLST42:
 7821 06e6 08000000 		.4byte	.LVL156
 7822 06ea 12000000 		.4byte	.LVL158
 7823 06ee 0100     		.2byte	0x1
 7824 06f0 54       		.byte	0x54
 7825 06f1 00000000 		.4byte	0
ARM GAS  C:\Users\Dell\AppData\Local\Temp\ccFHrQg5.s 			page 206


 7826 06f5 00000000 		.4byte	0
 7827              	.LLST43:
 7828 06f9 00000000 		.4byte	.LVL159
 7829 06fd 06000000 		.4byte	.LVL161
 7830 0701 0100     		.2byte	0x1
 7831 0703 50       		.byte	0x50
 7832 0704 06000000 		.4byte	.LVL161
 7833 0708 24000000 		.4byte	.LFE35
 7834 070c 0400     		.2byte	0x4
 7835 070e F3       		.byte	0xf3
 7836 070f 01       		.uleb128 0x1
 7837 0710 50       		.byte	0x50
 7838 0711 9F       		.byte	0x9f
 7839 0712 00000000 		.4byte	0
 7840 0716 00000000 		.4byte	0
 7841              	.LLST44:
 7842 071a 04000000 		.4byte	.LVL160
 7843 071e 16000000 		.4byte	.LVL166
 7844 0722 0100     		.2byte	0x1
 7845 0724 53       		.byte	0x53
 7846 0725 1A000000 		.4byte	.LVL168
 7847 0729 24000000 		.4byte	.LFE35
 7848 072d 0100     		.2byte	0x1
 7849 072f 53       		.byte	0x53
 7850 0730 00000000 		.4byte	0
 7851 0734 00000000 		.4byte	0
 7852              	.LLST45:
 7853 0738 06000000 		.4byte	.LVL161
 7854 073c 08000000 		.4byte	.LVL162
 7855 0740 0100     		.2byte	0x1
 7856 0742 50       		.byte	0x50
 7857 0743 08000000 		.4byte	.LVL162
 7858 0747 0A000000 		.4byte	.LVL163
 7859 074b 0300     		.2byte	0x3
 7860 074d 70       		.byte	0x70
 7861 074e 02       		.sleb128 2
 7862 074f 9F       		.byte	0x9f
 7863 0750 0E000000 		.4byte	.LVL164
 7864 0754 14000000 		.4byte	.LVL165
 7865 0758 0100     		.2byte	0x1
 7866 075a 50       		.byte	0x50
 7867 075b 00000000 		.4byte	0
 7868 075f 00000000 		.4byte	0
 7869              	.LLST46:
 7870 0763 18000000 		.4byte	.LVL167
 7871 0767 1A000000 		.4byte	.LVL168
 7872 076b 0100     		.2byte	0x1
 7873 076d 50       		.byte	0x50
 7874 076e 1C000000 		.4byte	.LVL169
 7875 0772 24000000 		.4byte	.LFE35
 7876 0776 0100     		.2byte	0x1
 7877 0778 50       		.byte	0x50
 7878 0779 00000000 		.4byte	0
 7879 077d 00000000 		.4byte	0
 7880              	.LLST47:
 7881 0781 00000000 		.4byte	.LVL170
 7882 0785 42000000 		.4byte	.LVL183
ARM GAS  C:\Users\Dell\AppData\Local\Temp\ccFHrQg5.s 			page 207


 7883 0789 0100     		.2byte	0x1
 7884 078b 50       		.byte	0x50
 7885 078c 42000000 		.4byte	.LVL183
 7886 0790 80010000 		.4byte	.LFE14
 7887 0794 0400     		.2byte	0x4
 7888 0796 F3       		.byte	0xf3
 7889 0797 01       		.uleb128 0x1
 7890 0798 50       		.byte	0x50
 7891 0799 9F       		.byte	0x9f
 7892 079a 00000000 		.4byte	0
 7893 079e 00000000 		.4byte	0
 7894              	.LLST48:
 7895 07a2 00000000 		.4byte	.LVL170
 7896 07a6 42000000 		.4byte	.LVL183
 7897 07aa 0100     		.2byte	0x1
 7898 07ac 51       		.byte	0x51
 7899 07ad 42000000 		.4byte	.LVL183
 7900 07b1 80010000 		.4byte	.LFE14
 7901 07b5 0400     		.2byte	0x4
 7902 07b7 F3       		.byte	0xf3
 7903 07b8 01       		.uleb128 0x1
 7904 07b9 51       		.byte	0x51
 7905 07ba 9F       		.byte	0x9f
 7906 07bb 00000000 		.4byte	0
 7907 07bf 00000000 		.4byte	0
 7908              	.LLST49:
 7909 07c3 00000000 		.4byte	.LVL170
 7910 07c7 32000000 		.4byte	.LVL179
 7911 07cb 0100     		.2byte	0x1
 7912 07cd 52       		.byte	0x52
 7913 07ce 32000000 		.4byte	.LVL179
 7914 07d2 38000000 		.4byte	.LVL180
 7915 07d6 0400     		.2byte	0x4
 7916 07d8 F3       		.byte	0xf3
 7917 07d9 01       		.uleb128 0x1
 7918 07da 52       		.byte	0x52
 7919 07db 9F       		.byte	0x9f
 7920 07dc 38000000 		.4byte	.LVL180
 7921 07e0 3A000000 		.4byte	.LVL181
 7922 07e4 0100     		.2byte	0x1
 7923 07e6 52       		.byte	0x52
 7924 07e7 3A000000 		.4byte	.LVL181
 7925 07eb 80010000 		.4byte	.LFE14
 7926 07ef 0400     		.2byte	0x4
 7927 07f1 F3       		.byte	0xf3
 7928 07f2 01       		.uleb128 0x1
 7929 07f3 52       		.byte	0x52
 7930 07f4 9F       		.byte	0x9f
 7931 07f5 00000000 		.4byte	0
 7932 07f9 00000000 		.4byte	0
 7933              	.LLST50:
 7934 07fd 00000000 		.4byte	.LVL170
 7935 0801 0E000000 		.4byte	.LVL172
 7936 0805 0100     		.2byte	0x1
 7937 0807 53       		.byte	0x53
 7938 0808 0E000000 		.4byte	.LVL172
 7939 080c 80010000 		.4byte	.LFE14
ARM GAS  C:\Users\Dell\AppData\Local\Temp\ccFHrQg5.s 			page 208


 7940 0810 0400     		.2byte	0x4
 7941 0812 F3       		.byte	0xf3
 7942 0813 01       		.uleb128 0x1
 7943 0814 53       		.byte	0x53
 7944 0815 9F       		.byte	0x9f
 7945 0816 00000000 		.4byte	0
 7946 081a 00000000 		.4byte	0
 7947              	.LLST51:
 7948 081e 3E000000 		.4byte	.LVL182
 7949 0822 42000000 		.4byte	.LVL183
 7950 0826 0100     		.2byte	0x1
 7951 0828 54       		.byte	0x54
 7952 0829 42000000 		.4byte	.LVL183
 7953 082d 5D000000 		.4byte	.LVL185-1
 7954 0831 0100     		.2byte	0x1
 7955 0833 53       		.byte	0x53
 7956 0834 6C000000 		.4byte	.LVL187
 7957 0838 7F000000 		.4byte	.LVL188-1
 7958 083c 0100     		.2byte	0x1
 7959 083e 53       		.byte	0x53
 7960 083f 86000000 		.4byte	.LVL189
 7961 0843 A1000000 		.4byte	.LVL190-1
 7962 0847 0100     		.2byte	0x1
 7963 0849 53       		.byte	0x53
 7964 084a AC000000 		.4byte	.LVL191
 7965 084e B5000000 		.4byte	.LVL193-1
 7966 0852 0100     		.2byte	0x1
 7967 0854 53       		.byte	0x53
 7968 0855 C0000000 		.4byte	.LVL194
 7969 0859 D6000000 		.4byte	.LVL197
 7970 085d 0100     		.2byte	0x1
 7971 085f 53       		.byte	0x53
 7972 0860 D8000000 		.4byte	.LVL198
 7973 0864 E2000000 		.4byte	.LVL202
 7974 0868 0100     		.2byte	0x1
 7975 086a 53       		.byte	0x53
 7976 086b E8000000 		.4byte	.LVL203
 7977 086f 10010000 		.4byte	.LVL206
 7978 0873 0100     		.2byte	0x1
 7979 0875 53       		.byte	0x53
 7980 0876 12010000 		.4byte	.LVL207
 7981 087a 14010000 		.4byte	.LVL208
 7982 087e 0100     		.2byte	0x1
 7983 0880 53       		.byte	0x53
 7984 0881 16010000 		.4byte	.LVL209
 7985 0885 1C010000 		.4byte	.LVL210
 7986 0889 0100     		.2byte	0x1
 7987 088b 53       		.byte	0x53
 7988 088c 3C010000 		.4byte	.LVL213
 7989 0890 6C010000 		.4byte	.LVL214
 7990 0894 0100     		.2byte	0x1
 7991 0896 54       		.byte	0x54
 7992 0897 6E010000 		.4byte	.LVL215
 7993 089b 72010000 		.4byte	.LVL216
 7994 089f 0100     		.2byte	0x1
 7995 08a1 54       		.byte	0x54
 7996 08a2 00000000 		.4byte	0
ARM GAS  C:\Users\Dell\AppData\Local\Temp\ccFHrQg5.s 			page 209


 7997 08a6 00000000 		.4byte	0
 7998              	.LLST52:
 7999 08aa 1E000000 		.4byte	.LVL174
 8000 08ae 22000000 		.4byte	.LVL175
 8001 08b2 0100     		.2byte	0x1
 8002 08b4 55       		.byte	0x55
 8003 08b5 26000000 		.4byte	.LVL176
 8004 08b9 2A000000 		.4byte	.LVL177
 8005 08bd 0100     		.2byte	0x1
 8006 08bf 55       		.byte	0x55
 8007 08c0 2C000000 		.4byte	.LVL178
 8008 08c4 0C010000 		.4byte	.LVL204
 8009 08c8 0100     		.2byte	0x1
 8010 08ca 55       		.byte	0x55
 8011 08cb 0E010000 		.4byte	.LVL205
 8012 08cf 34010000 		.4byte	.LVL211
 8013 08d3 0100     		.2byte	0x1
 8014 08d5 55       		.byte	0x55
 8015 08d6 36010000 		.4byte	.LVL212
 8016 08da 78010000 		.4byte	.LVL217
 8017 08de 0100     		.2byte	0x1
 8018 08e0 55       		.byte	0x55
 8019 08e1 00000000 		.4byte	0
 8020 08e5 00000000 		.4byte	0
 8021              	.LLST53:
 8022 08e9 1A000000 		.4byte	.LVL173
 8023 08ed 22000000 		.4byte	.LVL175
 8024 08f1 0200     		.2byte	0x2
 8025 08f3 31       		.byte	0x31
 8026 08f4 9F       		.byte	0x9f
 8027 08f5 22000000 		.4byte	.LVL175
 8028 08f9 2A000000 		.4byte	.LVL177
 8029 08fd 0200     		.2byte	0x2
 8030 08ff 32       		.byte	0x32
 8031 0900 9F       		.byte	0x9f
 8032 0901 2C000000 		.4byte	.LVL178
 8033 0905 78010000 		.4byte	.LVL217
 8034 0909 0100     		.2byte	0x1
 8035 090b 56       		.byte	0x56
 8036 090c 00000000 		.4byte	0
 8037 0910 00000000 		.4byte	0
 8038              	.LLST54:
 8039 0914 32000000 		.4byte	.LVL179
 8040 0918 38000000 		.4byte	.LVL180
 8041 091c 0200     		.2byte	0x2
 8042 091e 30       		.byte	0x30
 8043 091f 9F       		.byte	0x9f
 8044 0920 3A000000 		.4byte	.LVL181
 8045 0924 3E000000 		.4byte	.LVL182
 8046 0928 0200     		.2byte	0x2
 8047 092a 31       		.byte	0x31
 8048 092b 9F       		.byte	0x9f
 8049 092c 3E000000 		.4byte	.LVL182
 8050 0930 B0000000 		.4byte	.LVL192
 8051 0934 0100     		.2byte	0x1
 8052 0936 58       		.byte	0x58
 8053 0937 C0000000 		.4byte	.LVL194
ARM GAS  C:\Users\Dell\AppData\Local\Temp\ccFHrQg5.s 			page 210


 8054 093b E2000000 		.4byte	.LVL202
 8055 093f 0100     		.2byte	0x1
 8056 0941 58       		.byte	0x58
 8057 0942 00000000 		.4byte	0
 8058 0946 00000000 		.4byte	0
 8059              	.LLST55:
 8060 094a 54000000 		.4byte	.LVL184
 8061 094e 5D000000 		.4byte	.LVL185-1
 8062 0952 0100     		.2byte	0x1
 8063 0954 50       		.byte	0x50
 8064 0955 00000000 		.4byte	0
 8065 0959 00000000 		.4byte	0
 8066              	.LLST56:
 8067 095d 0C000000 		.4byte	.LVL171
 8068 0961 86000000 		.4byte	.LVL189
 8069 0965 0200     		.2byte	0x2
 8070 0967 30       		.byte	0x30
 8071 0968 9F       		.byte	0x9f
 8072 0969 86000000 		.4byte	.LVL189
 8073 096d A1000000 		.4byte	.LVL190-1
 8074 0971 0100     		.2byte	0x1
 8075 0973 52       		.byte	0x52
 8076 0974 AC000000 		.4byte	.LVL191
 8077 0978 B5000000 		.4byte	.LVL193-1
 8078 097c 0100     		.2byte	0x1
 8079 097e 52       		.byte	0x52
 8080 097f C0000000 		.4byte	.LVL194
 8081 0983 D2000000 		.4byte	.LVL195
 8082 0987 0100     		.2byte	0x1
 8083 0989 52       		.byte	0x52
 8084 098a D4000000 		.4byte	.LVL196
 8085 098e DA000000 		.4byte	.LVL199
 8086 0992 0100     		.2byte	0x1
 8087 0994 52       		.byte	0x52
 8088 0995 DA000000 		.4byte	.LVL199
 8089 0999 DE000000 		.4byte	.LVL201
 8090 099d 0200     		.2byte	0x2
 8091 099f 30       		.byte	0x30
 8092 09a0 9F       		.byte	0x9f
 8093 09a1 DE000000 		.4byte	.LVL201
 8094 09a5 E2000000 		.4byte	.LVL202
 8095 09a9 0100     		.2byte	0x1
 8096 09ab 52       		.byte	0x52
 8097 09ac 00000000 		.4byte	0
 8098 09b0 00000000 		.4byte	0
 8099              	.LLST57:
 8100 09b4 32000000 		.4byte	.LVL179
 8101 09b8 38000000 		.4byte	.LVL180
 8102 09bc 0100     		.2byte	0x1
 8103 09be 52       		.byte	0x52
 8104 09bf 3A000000 		.4byte	.LVL181
 8105 09c3 5D000000 		.4byte	.LVL185-1
 8106 09c7 0100     		.2byte	0x1
 8107 09c9 52       		.byte	0x52
 8108 09ca 68000000 		.4byte	.LVL186
 8109 09ce 7F000000 		.4byte	.LVL188-1
 8110 09d2 0100     		.2byte	0x1
ARM GAS  C:\Users\Dell\AppData\Local\Temp\ccFHrQg5.s 			page 211


 8111 09d4 52       		.byte	0x52
 8112 09d5 DA000000 		.4byte	.LVL199
 8113 09d9 DC000000 		.4byte	.LVL200
 8114 09dd 0100     		.2byte	0x1
 8115 09df 52       		.byte	0x52
 8116 09e0 00000000 		.4byte	0
 8117 09e4 00000000 		.4byte	0
 8118              	.LLST58:
 8119 09e8 00000000 		.4byte	.LVL218
 8120 09ec 0D000000 		.4byte	.LVL219-1
 8121 09f0 0100     		.2byte	0x1
 8122 09f2 50       		.byte	0x50
 8123 09f3 0D000000 		.4byte	.LVL219-1
 8124 09f7 32000000 		.4byte	.LVL227
 8125 09fb 0100     		.2byte	0x1
 8126 09fd 57       		.byte	0x57
 8127 09fe 32000000 		.4byte	.LVL227
 8128 0a02 38000000 		.4byte	.LFE16
 8129 0a06 0100     		.2byte	0x1
 8130 0a08 50       		.byte	0x50
 8131 0a09 00000000 		.4byte	0
 8132 0a0d 00000000 		.4byte	0
 8133              	.LLST59:
 8134 0a11 00000000 		.4byte	.LVL218
 8135 0a15 0D000000 		.4byte	.LVL219-1
 8136 0a19 0100     		.2byte	0x1
 8137 0a1b 51       		.byte	0x51
 8138 0a1c 0D000000 		.4byte	.LVL219-1
 8139 0a20 32000000 		.4byte	.LVL227
 8140 0a24 0400     		.2byte	0x4
 8141 0a26 F3       		.byte	0xf3
 8142 0a27 01       		.uleb128 0x1
 8143 0a28 51       		.byte	0x51
 8144 0a29 9F       		.byte	0x9f
 8145 0a2a 32000000 		.4byte	.LVL227
 8146 0a2e 38000000 		.4byte	.LFE16
 8147 0a32 0100     		.2byte	0x1
 8148 0a34 51       		.byte	0x51
 8149 0a35 00000000 		.4byte	0
 8150 0a39 00000000 		.4byte	0
 8151              	.LLST60:
 8152 0a3d 12000000 		.4byte	.LVL220
 8153 0a41 2A000000 		.4byte	.LVL225
 8154 0a45 0100     		.2byte	0x1
 8155 0a47 54       		.byte	0x54
 8156 0a48 2C000000 		.4byte	.LVL226
 8157 0a4c 32000000 		.4byte	.LVL227
 8158 0a50 0100     		.2byte	0x1
 8159 0a52 54       		.byte	0x54
 8160 0a53 00000000 		.4byte	0
 8161 0a57 00000000 		.4byte	0
 8162              	.LLST61:
 8163 0a5b 12000000 		.4byte	.LVL220
 8164 0a5f 32000000 		.4byte	.LVL227
 8165 0a63 0100     		.2byte	0x1
 8166 0a65 56       		.byte	0x56
 8167 0a66 00000000 		.4byte	0
ARM GAS  C:\Users\Dell\AppData\Local\Temp\ccFHrQg5.s 			page 212


 8168 0a6a 00000000 		.4byte	0
 8169              	.LLST62:
 8170 0a6e 00000000 		.4byte	.LVL218
 8171 0a72 16000000 		.4byte	.LVL221
 8172 0a76 0200     		.2byte	0x2
 8173 0a78 30       		.byte	0x30
 8174 0a79 9F       		.byte	0x9f
 8175 0a7a 16000000 		.4byte	.LVL221
 8176 0a7e 26000000 		.4byte	.LVL223
 8177 0a82 0100     		.2byte	0x1
 8178 0a84 55       		.byte	0x55
 8179 0a85 28000000 		.4byte	.LVL224
 8180 0a89 32000000 		.4byte	.LVL227
 8181 0a8d 0100     		.2byte	0x1
 8182 0a8f 55       		.byte	0x55
 8183 0a90 32000000 		.4byte	.LVL227
 8184 0a94 38000000 		.4byte	.LFE16
 8185 0a98 0200     		.2byte	0x2
 8186 0a9a 30       		.byte	0x30
 8187 0a9b 9F       		.byte	0x9f
 8188 0a9c 00000000 		.4byte	0
 8189 0aa0 00000000 		.4byte	0
 8190              	.LLST63:
 8191 0aa4 00000000 		.4byte	.LVL228
 8192 0aa8 0B000000 		.4byte	.LVL230-1
 8193 0aac 0100     		.2byte	0x1
 8194 0aae 50       		.byte	0x50
 8195 0aaf 0B000000 		.4byte	.LVL230-1
 8196 0ab3 12000000 		.4byte	.LVL231
 8197 0ab7 0400     		.2byte	0x4
 8198 0ab9 F3       		.byte	0xf3
 8199 0aba 01       		.uleb128 0x1
 8200 0abb 50       		.byte	0x50
 8201 0abc 9F       		.byte	0x9f
 8202 0abd 12000000 		.4byte	.LVL231
 8203 0ac1 18000000 		.4byte	.LFE17
 8204 0ac5 0100     		.2byte	0x1
 8205 0ac7 50       		.byte	0x50
 8206 0ac8 00000000 		.4byte	0
 8207 0acc 00000000 		.4byte	0
 8208              	.LLST64:
 8209 0ad0 00000000 		.4byte	.LVL228
 8210 0ad4 0B000000 		.4byte	.LVL230-1
 8211 0ad8 0100     		.2byte	0x1
 8212 0ada 51       		.byte	0x51
 8213 0adb 0B000000 		.4byte	.LVL230-1
 8214 0adf 12000000 		.4byte	.LVL231
 8215 0ae3 0400     		.2byte	0x4
 8216 0ae5 F3       		.byte	0xf3
 8217 0ae6 01       		.uleb128 0x1
 8218 0ae7 51       		.byte	0x51
 8219 0ae8 9F       		.byte	0x9f
 8220 0ae9 12000000 		.4byte	.LVL231
 8221 0aed 18000000 		.4byte	.LFE17
 8222 0af1 0100     		.2byte	0x1
 8223 0af3 51       		.byte	0x51
 8224 0af4 00000000 		.4byte	0
ARM GAS  C:\Users\Dell\AppData\Local\Temp\ccFHrQg5.s 			page 213


 8225 0af8 00000000 		.4byte	0
 8226              	.LLST65:
 8227 0afc 08000000 		.4byte	.LVL229
 8228 0b00 12000000 		.4byte	.LVL231
 8229 0b04 0100     		.2byte	0x1
 8230 0b06 54       		.byte	0x54
 8231 0b07 00000000 		.4byte	0
 8232 0b0b 00000000 		.4byte	0
 8233              	.LLST66:
 8234 0b0f 00000000 		.4byte	.LVL232
 8235 0b13 04000000 		.4byte	.LVL233
 8236 0b17 0100     		.2byte	0x1
 8237 0b19 50       		.byte	0x50
 8238 0b1a 04000000 		.4byte	.LVL233
 8239 0b1e 1C000000 		.4byte	.LFE36
 8240 0b22 0400     		.2byte	0x4
 8241 0b24 F3       		.byte	0xf3
 8242 0b25 01       		.uleb128 0x1
 8243 0b26 50       		.byte	0x50
 8244 0b27 9F       		.byte	0x9f
 8245 0b28 00000000 		.4byte	0
 8246 0b2c 00000000 		.4byte	0
 8247              	.LLST67:
 8248 0b30 04000000 		.4byte	.LVL233
 8249 0b34 0C000000 		.4byte	.LVL234
 8250 0b38 0100     		.2byte	0x1
 8251 0b3a 50       		.byte	0x50
 8252 0b3b 00000000 		.4byte	0
 8253 0b3f 00000000 		.4byte	0
 8254              	.LLST68:
 8255 0b43 0C000000 		.4byte	.LVL234
 8256 0b47 14000000 		.4byte	.LVL236
 8257 0b4b 0500     		.2byte	0x5
 8258 0b4d 70       		.byte	0x70
 8259 0b4e 00       		.sleb128 0
 8260 0b4f 38       		.byte	0x38
 8261 0b50 24       		.byte	0x24
 8262 0b51 9F       		.byte	0x9f
 8263 0b52 00000000 		.4byte	0
 8264 0b56 00000000 		.4byte	0
 8265              	.LLST69:
 8266 0b5a 10000000 		.4byte	.LVL235
 8267 0b5e 14000000 		.4byte	.LVL236
 8268 0b62 0800     		.2byte	0x8
 8269 0b64 70       		.byte	0x70
 8270 0b65 00       		.sleb128 0
 8271 0b66 38       		.byte	0x38
 8272 0b67 24       		.byte	0x24
 8273 0b68 73       		.byte	0x73
 8274 0b69 00       		.sleb128 0
 8275 0b6a 21       		.byte	0x21
 8276 0b6b 9F       		.byte	0x9f
 8277 0b6c 00000000 		.4byte	0
 8278 0b70 00000000 		.4byte	0
 8279              	.LLST70:
 8280 0b74 00000000 		.4byte	.LVL237
 8281 0b78 1C000000 		.4byte	.LVL240
ARM GAS  C:\Users\Dell\AppData\Local\Temp\ccFHrQg5.s 			page 214


 8282 0b7c 0100     		.2byte	0x1
 8283 0b7e 50       		.byte	0x50
 8284 0b7f 1C000000 		.4byte	.LVL240
 8285 0b83 D0000000 		.4byte	.LFE21
 8286 0b87 0400     		.2byte	0x4
 8287 0b89 F3       		.byte	0xf3
 8288 0b8a 01       		.uleb128 0x1
 8289 0b8b 50       		.byte	0x50
 8290 0b8c 9F       		.byte	0x9f
 8291 0b8d 00000000 		.4byte	0
 8292 0b91 00000000 		.4byte	0
 8293              	.LLST71:
 8294 0b95 00000000 		.4byte	.LVL237
 8295 0b99 1C000000 		.4byte	.LVL240
 8296 0b9d 0100     		.2byte	0x1
 8297 0b9f 51       		.byte	0x51
 8298 0ba0 1C000000 		.4byte	.LVL240
 8299 0ba4 D0000000 		.4byte	.LFE21
 8300 0ba8 0400     		.2byte	0x4
 8301 0baa F3       		.byte	0xf3
 8302 0bab 01       		.uleb128 0x1
 8303 0bac 51       		.byte	0x51
 8304 0bad 9F       		.byte	0x9f
 8305 0bae 00000000 		.4byte	0
 8306 0bb2 00000000 		.4byte	0
 8307              	.LLST72:
 8308 0bb6 00000000 		.4byte	.LVL237
 8309 0bba 1C000000 		.4byte	.LVL240
 8310 0bbe 0100     		.2byte	0x1
 8311 0bc0 52       		.byte	0x52
 8312 0bc1 1C000000 		.4byte	.LVL240
 8313 0bc5 D0000000 		.4byte	.LFE21
 8314 0bc9 0400     		.2byte	0x4
 8315 0bcb F3       		.byte	0xf3
 8316 0bcc 01       		.uleb128 0x1
 8317 0bcd 52       		.byte	0x52
 8318 0bce 9F       		.byte	0x9f
 8319 0bcf 00000000 		.4byte	0
 8320 0bd3 00000000 		.4byte	0
 8321              	.LLST73:
 8322 0bd7 00000000 		.4byte	.LVL237
 8323 0bdb 10000000 		.4byte	.LVL238
 8324 0bdf 0100     		.2byte	0x1
 8325 0be1 53       		.byte	0x53
 8326 0be2 10000000 		.4byte	.LVL238
 8327 0be6 D0000000 		.4byte	.LFE21
 8328 0bea 0400     		.2byte	0x4
 8329 0bec F3       		.byte	0xf3
 8330 0bed 01       		.uleb128 0x1
 8331 0bee 53       		.byte	0x53
 8332 0bef 9F       		.byte	0x9f
 8333 0bf0 00000000 		.4byte	0
 8334 0bf4 00000000 		.4byte	0
 8335              	.LLST74:
 8336 0bf8 18000000 		.4byte	.LVL239
 8337 0bfc 1C000000 		.4byte	.LVL240
 8338 0c00 0100     		.2byte	0x1
ARM GAS  C:\Users\Dell\AppData\Local\Temp\ccFHrQg5.s 			page 215


 8339 0c02 52       		.byte	0x52
 8340 0c03 1C000000 		.4byte	.LVL240
 8341 0c07 25000000 		.4byte	.LVL241-1
 8342 0c0b 0100     		.2byte	0x1
 8343 0c0d 53       		.byte	0x53
 8344 0c0e 34000000 		.4byte	.LVL243
 8345 0c12 5C000000 		.4byte	.LVL244
 8346 0c16 0100     		.2byte	0x1
 8347 0c18 53       		.byte	0x53
 8348 0c19 5E000000 		.4byte	.LVL245
 8349 0c1d 8A000000 		.4byte	.LVL249
 8350 0c21 0100     		.2byte	0x1
 8351 0c23 53       		.byte	0x53
 8352 0c24 8C000000 		.4byte	.LVL250
 8353 0c28 96000000 		.4byte	.LVL252
 8354 0c2c 0100     		.2byte	0x1
 8355 0c2e 53       		.byte	0x53
 8356 0c2f A6000000 		.4byte	.LVL255
 8357 0c33 C0000000 		.4byte	.LVL256
 8358 0c37 0100     		.2byte	0x1
 8359 0c39 54       		.byte	0x54
 8360 0c3a C2000000 		.4byte	.LVL257
 8361 0c3e C6000000 		.4byte	.LVL258
 8362 0c42 0100     		.2byte	0x1
 8363 0c44 54       		.byte	0x54
 8364 0c45 00000000 		.4byte	0
 8365 0c49 00000000 		.4byte	0
 8366              	.LLST75:
 8367 0c4d 62000000 		.4byte	.LVL246
 8368 0c51 86000000 		.4byte	.LVL247
 8369 0c55 0100     		.2byte	0x1
 8370 0c57 56       		.byte	0x56
 8371 0c58 88000000 		.4byte	.LVL248
 8372 0c5c 9E000000 		.4byte	.LVL253
 8373 0c60 0100     		.2byte	0x1
 8374 0c62 56       		.byte	0x56
 8375 0c63 A0000000 		.4byte	.LVL254
 8376 0c67 CC000000 		.4byte	.LVL259
 8377 0c6b 0100     		.2byte	0x1
 8378 0c6d 56       		.byte	0x56
 8379 0c6e 00000000 		.4byte	0
 8380 0c72 00000000 		.4byte	0
 8381              	.LLST76:
 8382 0c76 1C000000 		.4byte	.LVL240
 8383 0c7a 32000000 		.4byte	.LVL242
 8384 0c7e 0500     		.2byte	0x5
 8385 0c80 77       		.byte	0x77
 8386 0c81 00       		.sleb128 0
 8387 0c82 3F       		.byte	0x3f
 8388 0c83 1A       		.byte	0x1a
 8389 0c84 9F       		.byte	0x9f
 8390 0c85 00000000 		.4byte	0
 8391 0c89 00000000 		.4byte	0
 8392              	.LLST77:
 8393 0c8d 18000000 		.4byte	.LVL239
 8394 0c91 1C000000 		.4byte	.LVL240
 8395 0c95 0100     		.2byte	0x1
ARM GAS  C:\Users\Dell\AppData\Local\Temp\ccFHrQg5.s 			page 216


 8396 0c97 50       		.byte	0x50
 8397 0c98 1C000000 		.4byte	.LVL240
 8398 0c9c CC000000 		.4byte	.LVL259
 8399 0ca0 0100     		.2byte	0x1
 8400 0ca2 57       		.byte	0x57
 8401 0ca3 00000000 		.4byte	0
 8402 0ca7 00000000 		.4byte	0
 8403              	.LLST78:
 8404 0cab 00000000 		.4byte	.LVL260
 8405 0caf 0F000000 		.4byte	.LVL261-1
 8406 0cb3 0100     		.2byte	0x1
 8407 0cb5 50       		.byte	0x50
 8408 0cb6 0F000000 		.4byte	.LVL261-1
 8409 0cba 16000000 		.4byte	.LVL262
 8410 0cbe 0400     		.2byte	0x4
 8411 0cc0 F3       		.byte	0xf3
 8412 0cc1 01       		.uleb128 0x1
 8413 0cc2 50       		.byte	0x50
 8414 0cc3 9F       		.byte	0x9f
 8415 0cc4 16000000 		.4byte	.LVL262
 8416 0cc8 1C000000 		.4byte	.LFE24
 8417 0ccc 0100     		.2byte	0x1
 8418 0cce 50       		.byte	0x50
 8419 0ccf 00000000 		.4byte	0
 8420 0cd3 00000000 		.4byte	0
 8421              	.LLST79:
 8422 0cd7 00000000 		.4byte	.LVL260
 8423 0cdb 0F000000 		.4byte	.LVL261-1
 8424 0cdf 0100     		.2byte	0x1
 8425 0ce1 51       		.byte	0x51
 8426 0ce2 0F000000 		.4byte	.LVL261-1
 8427 0ce6 16000000 		.4byte	.LVL262
 8428 0cea 0400     		.2byte	0x4
 8429 0cec F3       		.byte	0xf3
 8430 0ced 01       		.uleb128 0x1
 8431 0cee 51       		.byte	0x51
 8432 0cef 9F       		.byte	0x9f
 8433 0cf0 16000000 		.4byte	.LVL262
 8434 0cf4 1C000000 		.4byte	.LFE24
 8435 0cf8 0100     		.2byte	0x1
 8436 0cfa 51       		.byte	0x51
 8437 0cfb 00000000 		.4byte	0
 8438 0cff 00000000 		.4byte	0
 8439              	.LLST80:
 8440 0d03 10000000 		.4byte	.LVL261
 8441 0d07 16000000 		.4byte	.LVL262
 8442 0d0b 0100     		.2byte	0x1
 8443 0d0d 50       		.byte	0x50
 8444 0d0e 00000000 		.4byte	0
 8445 0d12 00000000 		.4byte	0
 8446              	.LLST81:
 8447 0d16 00000000 		.4byte	.LVL263
 8448 0d1a 0B000000 		.4byte	.LVL264-1
 8449 0d1e 0100     		.2byte	0x1
 8450 0d20 50       		.byte	0x50
 8451 0d21 0B000000 		.4byte	.LVL264-1
 8452 0d25 12000000 		.4byte	.LVL265
ARM GAS  C:\Users\Dell\AppData\Local\Temp\ccFHrQg5.s 			page 217


 8453 0d29 0400     		.2byte	0x4
 8454 0d2b F3       		.byte	0xf3
 8455 0d2c 01       		.uleb128 0x1
 8456 0d2d 50       		.byte	0x50
 8457 0d2e 9F       		.byte	0x9f
 8458 0d2f 12000000 		.4byte	.LVL265
 8459 0d33 18000000 		.4byte	.LFE25
 8460 0d37 0100     		.2byte	0x1
 8461 0d39 50       		.byte	0x50
 8462 0d3a 00000000 		.4byte	0
 8463 0d3e 00000000 		.4byte	0
 8464              	.LLST82:
 8465 0d42 00000000 		.4byte	.LVL263
 8466 0d46 0B000000 		.4byte	.LVL264-1
 8467 0d4a 0100     		.2byte	0x1
 8468 0d4c 51       		.byte	0x51
 8469 0d4d 0B000000 		.4byte	.LVL264-1
 8470 0d51 12000000 		.4byte	.LVL265
 8471 0d55 0400     		.2byte	0x4
 8472 0d57 F3       		.byte	0xf3
 8473 0d58 01       		.uleb128 0x1
 8474 0d59 51       		.byte	0x51
 8475 0d5a 9F       		.byte	0x9f
 8476 0d5b 12000000 		.4byte	.LVL265
 8477 0d5f 18000000 		.4byte	.LFE25
 8478 0d63 0100     		.2byte	0x1
 8479 0d65 51       		.byte	0x51
 8480 0d66 00000000 		.4byte	0
 8481 0d6a 00000000 		.4byte	0
 8482              	.LLST83:
 8483 0d6e 0C000000 		.4byte	.LVL264
 8484 0d72 12000000 		.4byte	.LVL265
 8485 0d76 0100     		.2byte	0x1
 8486 0d78 50       		.byte	0x50
 8487 0d79 00000000 		.4byte	0
 8488 0d7d 00000000 		.4byte	0
 8489              	.LLST84:
 8490 0d81 00000000 		.4byte	.LVL266
 8491 0d85 06000000 		.4byte	.LVL268
 8492 0d89 0100     		.2byte	0x1
 8493 0d8b 50       		.byte	0x50
 8494 0d8c 06000000 		.4byte	.LVL268
 8495 0d90 30000000 		.4byte	.LFE37
 8496 0d94 0400     		.2byte	0x4
 8497 0d96 F3       		.byte	0xf3
 8498 0d97 01       		.uleb128 0x1
 8499 0d98 50       		.byte	0x50
 8500 0d99 9F       		.byte	0x9f
 8501 0d9a 00000000 		.4byte	0
 8502 0d9e 00000000 		.4byte	0
 8503              	.LLST85:
 8504 0da2 04000000 		.4byte	.LVL267
 8505 0da6 16000000 		.4byte	.LVL273
 8506 0daa 0100     		.2byte	0x1
 8507 0dac 53       		.byte	0x53
 8508 0dad 24000000 		.4byte	.LVL277
 8509 0db1 30000000 		.4byte	.LFE37
ARM GAS  C:\Users\Dell\AppData\Local\Temp\ccFHrQg5.s 			page 218


 8510 0db5 0100     		.2byte	0x1
 8511 0db7 53       		.byte	0x53
 8512 0db8 00000000 		.4byte	0
 8513 0dbc 00000000 		.4byte	0
 8514              	.LLST86:
 8515 0dc0 06000000 		.4byte	.LVL268
 8516 0dc4 08000000 		.4byte	.LVL269
 8517 0dc8 0100     		.2byte	0x1
 8518 0dca 50       		.byte	0x50
 8519 0dcb 08000000 		.4byte	.LVL269
 8520 0dcf 0A000000 		.4byte	.LVL270
 8521 0dd3 0300     		.2byte	0x3
 8522 0dd5 70       		.byte	0x70
 8523 0dd6 02       		.sleb128 2
 8524 0dd7 9F       		.byte	0x9f
 8525 0dd8 0E000000 		.4byte	.LVL271
 8526 0ddc 14000000 		.4byte	.LVL272
 8527 0de0 0100     		.2byte	0x1
 8528 0de2 50       		.byte	0x50
 8529 0de3 00000000 		.4byte	0
 8530 0de7 00000000 		.4byte	0
 8531              	.LLST87:
 8532 0deb 1E000000 		.4byte	.LVL275
 8533 0def 24000000 		.4byte	.LVL277
 8534 0df3 0100     		.2byte	0x1
 8535 0df5 53       		.byte	0x53
 8536 0df6 00000000 		.4byte	0
 8537 0dfa 00000000 		.4byte	0
 8538              	.LLST88:
 8539 0dfe 1A000000 		.4byte	.LVL274
 8540 0e02 22000000 		.4byte	.LVL276
 8541 0e06 0500     		.2byte	0x5
 8542 0e08 70       		.byte	0x70
 8543 0e09 00       		.sleb128 0
 8544 0e0a 38       		.byte	0x38
 8545 0e0b 24       		.byte	0x24
 8546 0e0c 9F       		.byte	0x9f
 8547 0e0d 00000000 		.4byte	0
 8548 0e11 00000000 		.4byte	0
 8549              	.LLST89:
 8550 0e15 22000000 		.4byte	.LVL276
 8551 0e19 24000000 		.4byte	.LVL277
 8552 0e1d 0100     		.2byte	0x1
 8553 0e1f 50       		.byte	0x50
 8554 0e20 28000000 		.4byte	.LVL278
 8555 0e24 30000000 		.4byte	.LFE37
 8556 0e28 0100     		.2byte	0x1
 8557 0e2a 50       		.byte	0x50
 8558 0e2b 00000000 		.4byte	0
 8559 0e2f 00000000 		.4byte	0
 8560              	.LLST90:
 8561 0e33 00000000 		.4byte	.LVL279
 8562 0e37 28000000 		.4byte	.LVL286
 8563 0e3b 0100     		.2byte	0x1
 8564 0e3d 50       		.byte	0x50
 8565 0e3e 28000000 		.4byte	.LVL286
 8566 0e42 40010000 		.4byte	.LFE20
ARM GAS  C:\Users\Dell\AppData\Local\Temp\ccFHrQg5.s 			page 219


 8567 0e46 0400     		.2byte	0x4
 8568 0e48 F3       		.byte	0xf3
 8569 0e49 01       		.uleb128 0x1
 8570 0e4a 50       		.byte	0x50
 8571 0e4b 9F       		.byte	0x9f
 8572 0e4c 00000000 		.4byte	0
 8573 0e50 00000000 		.4byte	0
 8574              	.LLST91:
 8575 0e54 00000000 		.4byte	.LVL279
 8576 0e58 28000000 		.4byte	.LVL286
 8577 0e5c 0100     		.2byte	0x1
 8578 0e5e 51       		.byte	0x51
 8579 0e5f 28000000 		.4byte	.LVL286
 8580 0e63 40010000 		.4byte	.LFE20
 8581 0e67 0400     		.2byte	0x4
 8582 0e69 F3       		.byte	0xf3
 8583 0e6a 01       		.uleb128 0x1
 8584 0e6b 51       		.byte	0x51
 8585 0e6c 9F       		.byte	0x9f
 8586 0e6d 00000000 		.4byte	0
 8587 0e71 00000000 		.4byte	0
 8588              	.LLST92:
 8589 0e75 00000000 		.4byte	.LVL279
 8590 0e79 1C000000 		.4byte	.LVL282
 8591 0e7d 0100     		.2byte	0x1
 8592 0e7f 52       		.byte	0x52
 8593 0e80 1C000000 		.4byte	.LVL282
 8594 0e84 20000000 		.4byte	.LVL283
 8595 0e88 0400     		.2byte	0x4
 8596 0e8a F3       		.byte	0xf3
 8597 0e8b 01       		.uleb128 0x1
 8598 0e8c 52       		.byte	0x52
 8599 0e8d 9F       		.byte	0x9f
 8600 0e8e 20000000 		.4byte	.LVL283
 8601 0e92 22000000 		.4byte	.LVL284
 8602 0e96 0100     		.2byte	0x1
 8603 0e98 52       		.byte	0x52
 8604 0e99 22000000 		.4byte	.LVL284
 8605 0e9d 40010000 		.4byte	.LFE20
 8606 0ea1 0400     		.2byte	0x4
 8607 0ea3 F3       		.byte	0xf3
 8608 0ea4 01       		.uleb128 0x1
 8609 0ea5 52       		.byte	0x52
 8610 0ea6 9F       		.byte	0x9f
 8611 0ea7 00000000 		.4byte	0
 8612 0eab 00000000 		.4byte	0
 8613              	.LLST93:
 8614 0eaf 00000000 		.4byte	.LVL279
 8615 0eb3 0E000000 		.4byte	.LVL281
 8616 0eb7 0100     		.2byte	0x1
 8617 0eb9 53       		.byte	0x53
 8618 0eba 0E000000 		.4byte	.LVL281
 8619 0ebe 40010000 		.4byte	.LFE20
 8620 0ec2 0400     		.2byte	0x4
 8621 0ec4 F3       		.byte	0xf3
 8622 0ec5 01       		.uleb128 0x1
 8623 0ec6 53       		.byte	0x53
ARM GAS  C:\Users\Dell\AppData\Local\Temp\ccFHrQg5.s 			page 220


 8624 0ec7 9F       		.byte	0x9f
 8625 0ec8 00000000 		.4byte	0
 8626 0ecc 00000000 		.4byte	0
 8627              	.LLST94:
 8628 0ed0 24000000 		.4byte	.LVL285
 8629 0ed4 28000000 		.4byte	.LVL286
 8630 0ed8 0100     		.2byte	0x1
 8631 0eda 54       		.byte	0x54
 8632 0edb 28000000 		.4byte	.LVL286
 8633 0edf 43000000 		.4byte	.LVL288-1
 8634 0ee3 0100     		.2byte	0x1
 8635 0ee5 53       		.byte	0x53
 8636 0ee6 54000000 		.4byte	.LVL290
 8637 0eea 63000000 		.4byte	.LVL291-1
 8638 0eee 0100     		.2byte	0x1
 8639 0ef0 53       		.byte	0x53
 8640 0ef1 6A000000 		.4byte	.LVL292
 8641 0ef5 87000000 		.4byte	.LVL293-1
 8642 0ef9 0100     		.2byte	0x1
 8643 0efb 53       		.byte	0x53
 8644 0efc 94000000 		.4byte	.LVL294
 8645 0f00 9B000000 		.4byte	.LVL296-1
 8646 0f04 0100     		.2byte	0x1
 8647 0f06 53       		.byte	0x53
 8648 0f07 A8000000 		.4byte	.LVL297
 8649 0f0b C2000000 		.4byte	.LVL300
 8650 0f0f 0100     		.2byte	0x1
 8651 0f11 53       		.byte	0x53
 8652 0f12 C4000000 		.4byte	.LVL301
 8653 0f16 CE000000 		.4byte	.LVL305
 8654 0f1a 0100     		.2byte	0x1
 8655 0f1c 53       		.byte	0x53
 8656 0f1d D4000000 		.4byte	.LVL306
 8657 0f21 F4000000 		.4byte	.LVL309
 8658 0f25 0100     		.2byte	0x1
 8659 0f27 53       		.byte	0x53
 8660 0f28 F6000000 		.4byte	.LVL310
 8661 0f2c F8000000 		.4byte	.LVL311
 8662 0f30 0100     		.2byte	0x1
 8663 0f32 53       		.byte	0x53
 8664 0f33 FA000000 		.4byte	.LVL312
 8665 0f37 00010000 		.4byte	.LVL313
 8666 0f3b 0100     		.2byte	0x1
 8667 0f3d 53       		.byte	0x53
 8668 0f3e 10010000 		.4byte	.LVL316
 8669 0f42 2A010000 		.4byte	.LVL317
 8670 0f46 0100     		.2byte	0x1
 8671 0f48 54       		.byte	0x54
 8672 0f49 2C010000 		.4byte	.LVL318
 8673 0f4d 30010000 		.4byte	.LVL319
 8674 0f51 0100     		.2byte	0x1
 8675 0f53 54       		.byte	0x54
 8676 0f54 00000000 		.4byte	0
 8677 0f58 00000000 		.4byte	0
 8678              	.LLST95:
 8679 0f5c CE000000 		.4byte	.LVL305
 8680 0f60 F0000000 		.4byte	.LVL307
ARM GAS  C:\Users\Dell\AppData\Local\Temp\ccFHrQg5.s 			page 221


 8681 0f64 0100     		.2byte	0x1
 8682 0f66 55       		.byte	0x55
 8683 0f67 F2000000 		.4byte	.LVL308
 8684 0f6b 08010000 		.4byte	.LVL314
 8685 0f6f 0100     		.2byte	0x1
 8686 0f71 55       		.byte	0x55
 8687 0f72 0A010000 		.4byte	.LVL315
 8688 0f76 36010000 		.4byte	.LVL320
 8689 0f7a 0100     		.2byte	0x1
 8690 0f7c 55       		.byte	0x55
 8691 0f7d 00000000 		.4byte	0
 8692 0f81 00000000 		.4byte	0
 8693              	.LLST96:
 8694 0f85 1C000000 		.4byte	.LVL282
 8695 0f89 20000000 		.4byte	.LVL283
 8696 0f8d 0200     		.2byte	0x2
 8697 0f8f 30       		.byte	0x30
 8698 0f90 9F       		.byte	0x9f
 8699 0f91 22000000 		.4byte	.LVL284
 8700 0f95 24000000 		.4byte	.LVL285
 8701 0f99 0200     		.2byte	0x2
 8702 0f9b 31       		.byte	0x31
 8703 0f9c 9F       		.byte	0x9f
 8704 0f9d 24000000 		.4byte	.LVL285
 8705 0fa1 96000000 		.4byte	.LVL295
 8706 0fa5 0100     		.2byte	0x1
 8707 0fa7 57       		.byte	0x57
 8708 0fa8 A8000000 		.4byte	.LVL297
 8709 0fac CE000000 		.4byte	.LVL305
 8710 0fb0 0100     		.2byte	0x1
 8711 0fb2 57       		.byte	0x57
 8712 0fb3 00000000 		.4byte	0
 8713 0fb7 00000000 		.4byte	0
 8714              	.LLST97:
 8715 0fbb 3A000000 		.4byte	.LVL287
 8716 0fbf 43000000 		.4byte	.LVL288-1
 8717 0fc3 0100     		.2byte	0x1
 8718 0fc5 50       		.byte	0x50
 8719 0fc6 00000000 		.4byte	0
 8720 0fca 00000000 		.4byte	0
 8721              	.LLST98:
 8722 0fce 0C000000 		.4byte	.LVL280
 8723 0fd2 6A000000 		.4byte	.LVL292
 8724 0fd6 0200     		.2byte	0x2
 8725 0fd8 30       		.byte	0x30
 8726 0fd9 9F       		.byte	0x9f
 8727 0fda 6A000000 		.4byte	.LVL292
 8728 0fde 87000000 		.4byte	.LVL293-1
 8729 0fe2 0100     		.2byte	0x1
 8730 0fe4 52       		.byte	0x52
 8731 0fe5 94000000 		.4byte	.LVL294
 8732 0fe9 9B000000 		.4byte	.LVL296-1
 8733 0fed 0100     		.2byte	0x1
 8734 0fef 52       		.byte	0x52
 8735 0ff0 A8000000 		.4byte	.LVL297
 8736 0ff4 BE000000 		.4byte	.LVL298
 8737 0ff8 0100     		.2byte	0x1
ARM GAS  C:\Users\Dell\AppData\Local\Temp\ccFHrQg5.s 			page 222


 8738 0ffa 52       		.byte	0x52
 8739 0ffb C0000000 		.4byte	.LVL299
 8740 0fff C6000000 		.4byte	.LVL302
 8741 1003 0100     		.2byte	0x1
 8742 1005 52       		.byte	0x52
 8743 1006 C6000000 		.4byte	.LVL302
 8744 100a CA000000 		.4byte	.LVL304
 8745 100e 0200     		.2byte	0x2
 8746 1010 30       		.byte	0x30
 8747 1011 9F       		.byte	0x9f
 8748 1012 CA000000 		.4byte	.LVL304
 8749 1016 CE000000 		.4byte	.LVL305
 8750 101a 0100     		.2byte	0x1
 8751 101c 52       		.byte	0x52
 8752 101d 00000000 		.4byte	0
 8753 1021 00000000 		.4byte	0
 8754              	.LLST99:
 8755 1025 1C000000 		.4byte	.LVL282
 8756 1029 20000000 		.4byte	.LVL283
 8757 102d 0100     		.2byte	0x1
 8758 102f 50       		.byte	0x50
 8759 1030 22000000 		.4byte	.LVL284
 8760 1034 43000000 		.4byte	.LVL288-1
 8761 1038 0100     		.2byte	0x1
 8762 103a 52       		.byte	0x52
 8763 103b 50000000 		.4byte	.LVL289
 8764 103f 63000000 		.4byte	.LVL291-1
 8765 1043 0100     		.2byte	0x1
 8766 1045 52       		.byte	0x52
 8767 1046 C6000000 		.4byte	.LVL302
 8768 104a C8000000 		.4byte	.LVL303
 8769 104e 0100     		.2byte	0x1
 8770 1050 52       		.byte	0x52
 8771 1051 00000000 		.4byte	0
 8772 1055 00000000 		.4byte	0
 8773              	.LLST100:
 8774 1059 00000000 		.4byte	.LVL321
 8775 105d 09000000 		.4byte	.LVL323-1
 8776 1061 0100     		.2byte	0x1
 8777 1063 50       		.byte	0x50
 8778 1064 09000000 		.4byte	.LVL323-1
 8779 1068 2E000000 		.4byte	.LVL331
 8780 106c 0100     		.2byte	0x1
 8781 106e 57       		.byte	0x57
 8782 106f 2E000000 		.4byte	.LVL331
 8783 1073 34000000 		.4byte	.LFE22
 8784 1077 0400     		.2byte	0x4
 8785 1079 F3       		.byte	0xf3
 8786 107a 01       		.uleb128 0x1
 8787 107b 50       		.byte	0x50
 8788 107c 9F       		.byte	0x9f
 8789 107d 00000000 		.4byte	0
 8790 1081 00000000 		.4byte	0
 8791              	.LLST101:
 8792 1085 00000000 		.4byte	.LVL321
 8793 1089 09000000 		.4byte	.LVL323-1
 8794 108d 0100     		.2byte	0x1
ARM GAS  C:\Users\Dell\AppData\Local\Temp\ccFHrQg5.s 			page 223


 8795 108f 51       		.byte	0x51
 8796 1090 09000000 		.4byte	.LVL323-1
 8797 1094 34000000 		.4byte	.LFE22
 8798 1098 0400     		.2byte	0x4
 8799 109a F3       		.byte	0xf3
 8800 109b 01       		.uleb128 0x1
 8801 109c 51       		.byte	0x51
 8802 109d 9F       		.byte	0x9f
 8803 109e 00000000 		.4byte	0
 8804 10a2 00000000 		.4byte	0
 8805              	.LLST102:
 8806 10a6 0E000000 		.4byte	.LVL324
 8807 10aa 26000000 		.4byte	.LVL329
 8808 10ae 0100     		.2byte	0x1
 8809 10b0 54       		.byte	0x54
 8810 10b1 28000000 		.4byte	.LVL330
 8811 10b5 2E000000 		.4byte	.LVL331
 8812 10b9 0100     		.2byte	0x1
 8813 10bb 54       		.byte	0x54
 8814 10bc 00000000 		.4byte	0
 8815 10c0 00000000 		.4byte	0
 8816              	.LLST103:
 8817 10c4 0E000000 		.4byte	.LVL324
 8818 10c8 2E000000 		.4byte	.LVL331
 8819 10cc 0100     		.2byte	0x1
 8820 10ce 56       		.byte	0x56
 8821 10cf 00000000 		.4byte	0
 8822 10d3 00000000 		.4byte	0
 8823              	.LLST104:
 8824 10d7 06000000 		.4byte	.LVL322
 8825 10db 12000000 		.4byte	.LVL325
 8826 10df 0200     		.2byte	0x2
 8827 10e1 30       		.byte	0x30
 8828 10e2 9F       		.byte	0x9f
 8829 10e3 12000000 		.4byte	.LVL325
 8830 10e7 22000000 		.4byte	.LVL327
 8831 10eb 0100     		.2byte	0x1
 8832 10ed 55       		.byte	0x55
 8833 10ee 24000000 		.4byte	.LVL328
 8834 10f2 2E000000 		.4byte	.LVL331
 8835 10f6 0100     		.2byte	0x1
 8836 10f8 55       		.byte	0x55
 8837 10f9 00000000 		.4byte	0
 8838 10fd 00000000 		.4byte	0
 8839              	.LLST105:
 8840 1101 1C000000 		.4byte	.LVL326
 8841 1105 24000000 		.4byte	.LVL328
 8842 1109 0100     		.2byte	0x1
 8843 110b 50       		.byte	0x50
 8844 110c 00000000 		.4byte	0
 8845 1110 00000000 		.4byte	0
 8846              	.LLST106:
 8847 1114 00000000 		.4byte	.LVL332
 8848 1118 0B000000 		.4byte	.LVL333-1
 8849 111c 0100     		.2byte	0x1
 8850 111e 50       		.byte	0x50
 8851 111f 0B000000 		.4byte	.LVL333-1
ARM GAS  C:\Users\Dell\AppData\Local\Temp\ccFHrQg5.s 			page 224


 8852 1123 12000000 		.4byte	.LVL334
 8853 1127 0400     		.2byte	0x4
 8854 1129 F3       		.byte	0xf3
 8855 112a 01       		.uleb128 0x1
 8856 112b 50       		.byte	0x50
 8857 112c 9F       		.byte	0x9f
 8858 112d 12000000 		.4byte	.LVL334
 8859 1131 18000000 		.4byte	.LFE23
 8860 1135 0100     		.2byte	0x1
 8861 1137 50       		.byte	0x50
 8862 1138 00000000 		.4byte	0
 8863 113c 00000000 		.4byte	0
 8864              	.LLST107:
 8865 1140 00000000 		.4byte	.LVL332
 8866 1144 0B000000 		.4byte	.LVL333-1
 8867 1148 0100     		.2byte	0x1
 8868 114a 51       		.byte	0x51
 8869 114b 0B000000 		.4byte	.LVL333-1
 8870 114f 12000000 		.4byte	.LVL334
 8871 1153 0400     		.2byte	0x4
 8872 1155 F3       		.byte	0xf3
 8873 1156 01       		.uleb128 0x1
 8874 1157 51       		.byte	0x51
 8875 1158 9F       		.byte	0x9f
 8876 1159 12000000 		.4byte	.LVL334
 8877 115d 18000000 		.4byte	.LFE23
 8878 1161 0100     		.2byte	0x1
 8879 1163 51       		.byte	0x51
 8880 1164 00000000 		.4byte	0
 8881 1168 00000000 		.4byte	0
 8882              	.LLST108:
 8883 116c 0C000000 		.4byte	.LVL333
 8884 1170 12000000 		.4byte	.LVL334
 8885 1174 0100     		.2byte	0x1
 8886 1176 50       		.byte	0x50
 8887 1177 00000000 		.4byte	0
 8888 117b 00000000 		.4byte	0
 8889              	.LLST109:
 8890 117f 00000000 		.4byte	.LVL335
 8891 1183 04000000 		.4byte	.LVL336
 8892 1187 0100     		.2byte	0x1
 8893 1189 50       		.byte	0x50
 8894 118a 04000000 		.4byte	.LVL336
 8895 118e 1C000000 		.4byte	.LFE38
 8896 1192 0400     		.2byte	0x4
 8897 1194 F3       		.byte	0xf3
 8898 1195 01       		.uleb128 0x1
 8899 1196 50       		.byte	0x50
 8900 1197 9F       		.byte	0x9f
 8901 1198 00000000 		.4byte	0
 8902 119c 00000000 		.4byte	0
 8903              	.LLST110:
 8904 11a0 04000000 		.4byte	.LVL336
 8905 11a4 0C000000 		.4byte	.LVL337
 8906 11a8 0100     		.2byte	0x1
 8907 11aa 50       		.byte	0x50
 8908 11ab 00000000 		.4byte	0
ARM GAS  C:\Users\Dell\AppData\Local\Temp\ccFHrQg5.s 			page 225


 8909 11af 00000000 		.4byte	0
 8910              	.LLST111:
 8911 11b3 0C000000 		.4byte	.LVL337
 8912 11b7 14000000 		.4byte	.LVL339
 8913 11bb 0500     		.2byte	0x5
 8914 11bd 70       		.byte	0x70
 8915 11be 00       		.sleb128 0
 8916 11bf 38       		.byte	0x38
 8917 11c0 24       		.byte	0x24
 8918 11c1 9F       		.byte	0x9f
 8919 11c2 00000000 		.4byte	0
 8920 11c6 00000000 		.4byte	0
 8921              	.LLST112:
 8922 11ca 10000000 		.4byte	.LVL338
 8923 11ce 14000000 		.4byte	.LVL339
 8924 11d2 0800     		.2byte	0x8
 8925 11d4 70       		.byte	0x70
 8926 11d5 00       		.sleb128 0
 8927 11d6 38       		.byte	0x38
 8928 11d7 24       		.byte	0x24
 8929 11d8 73       		.byte	0x73
 8930 11d9 00       		.sleb128 0
 8931 11da 21       		.byte	0x21
 8932 11db 9F       		.byte	0x9f
 8933 11dc 00000000 		.4byte	0
 8934 11e0 00000000 		.4byte	0
 8935              	.LLST113:
 8936 11e4 00000000 		.4byte	.LVL340
 8937 11e8 1C000000 		.4byte	.LVL343
 8938 11ec 0100     		.2byte	0x1
 8939 11ee 50       		.byte	0x50
 8940 11ef 1C000000 		.4byte	.LVL343
 8941 11f3 D0000000 		.4byte	.LFE27
 8942 11f7 0400     		.2byte	0x4
 8943 11f9 F3       		.byte	0xf3
 8944 11fa 01       		.uleb128 0x1
 8945 11fb 50       		.byte	0x50
 8946 11fc 9F       		.byte	0x9f
 8947 11fd 00000000 		.4byte	0
 8948 1201 00000000 		.4byte	0
 8949              	.LLST114:
 8950 1205 00000000 		.4byte	.LVL340
 8951 1209 1C000000 		.4byte	.LVL343
 8952 120d 0100     		.2byte	0x1
 8953 120f 51       		.byte	0x51
 8954 1210 1C000000 		.4byte	.LVL343
 8955 1214 D0000000 		.4byte	.LFE27
 8956 1218 0400     		.2byte	0x4
 8957 121a F3       		.byte	0xf3
 8958 121b 01       		.uleb128 0x1
 8959 121c 51       		.byte	0x51
 8960 121d 9F       		.byte	0x9f
 8961 121e 00000000 		.4byte	0
 8962 1222 00000000 		.4byte	0
 8963              	.LLST115:
 8964 1226 00000000 		.4byte	.LVL340
 8965 122a 1C000000 		.4byte	.LVL343
ARM GAS  C:\Users\Dell\AppData\Local\Temp\ccFHrQg5.s 			page 226


 8966 122e 0100     		.2byte	0x1
 8967 1230 52       		.byte	0x52
 8968 1231 1C000000 		.4byte	.LVL343
 8969 1235 D0000000 		.4byte	.LFE27
 8970 1239 0400     		.2byte	0x4
 8971 123b F3       		.byte	0xf3
 8972 123c 01       		.uleb128 0x1
 8973 123d 52       		.byte	0x52
 8974 123e 9F       		.byte	0x9f
 8975 123f 00000000 		.4byte	0
 8976 1243 00000000 		.4byte	0
 8977              	.LLST116:
 8978 1247 00000000 		.4byte	.LVL340
 8979 124b 10000000 		.4byte	.LVL341
 8980 124f 0100     		.2byte	0x1
 8981 1251 53       		.byte	0x53
 8982 1252 10000000 		.4byte	.LVL341
 8983 1256 D0000000 		.4byte	.LFE27
 8984 125a 0400     		.2byte	0x4
 8985 125c F3       		.byte	0xf3
 8986 125d 01       		.uleb128 0x1
 8987 125e 53       		.byte	0x53
 8988 125f 9F       		.byte	0x9f
 8989 1260 00000000 		.4byte	0
 8990 1264 00000000 		.4byte	0
 8991              	.LLST117:
 8992 1268 18000000 		.4byte	.LVL342
 8993 126c 1C000000 		.4byte	.LVL343
 8994 1270 0100     		.2byte	0x1
 8995 1272 52       		.byte	0x52
 8996 1273 1C000000 		.4byte	.LVL343
 8997 1277 25000000 		.4byte	.LVL344-1
 8998 127b 0100     		.2byte	0x1
 8999 127d 53       		.byte	0x53
 9000 127e 34000000 		.4byte	.LVL346
 9001 1282 5A000000 		.4byte	.LVL347
 9002 1286 0100     		.2byte	0x1
 9003 1288 53       		.byte	0x53
 9004 1289 5C000000 		.4byte	.LVL348
 9005 128d 88000000 		.4byte	.LVL352
 9006 1291 0100     		.2byte	0x1
 9007 1293 53       		.byte	0x53
 9008 1294 8A000000 		.4byte	.LVL353
 9009 1298 94000000 		.4byte	.LVL355
 9010 129c 0100     		.2byte	0x1
 9011 129e 53       		.byte	0x53
 9012 129f A4000000 		.4byte	.LVL358
 9013 12a3 BE000000 		.4byte	.LVL359
 9014 12a7 0100     		.2byte	0x1
 9015 12a9 54       		.byte	0x54
 9016 12aa C0000000 		.4byte	.LVL360
 9017 12ae C4000000 		.4byte	.LVL361
 9018 12b2 0100     		.2byte	0x1
 9019 12b4 54       		.byte	0x54
 9020 12b5 00000000 		.4byte	0
 9021 12b9 00000000 		.4byte	0
 9022              	.LLST118:
ARM GAS  C:\Users\Dell\AppData\Local\Temp\ccFHrQg5.s 			page 227


 9023 12bd 60000000 		.4byte	.LVL349
 9024 12c1 84000000 		.4byte	.LVL350
 9025 12c5 0100     		.2byte	0x1
 9026 12c7 56       		.byte	0x56
 9027 12c8 86000000 		.4byte	.LVL351
 9028 12cc 9C000000 		.4byte	.LVL356
 9029 12d0 0100     		.2byte	0x1
 9030 12d2 56       		.byte	0x56
 9031 12d3 9E000000 		.4byte	.LVL357
 9032 12d7 CA000000 		.4byte	.LVL362
 9033 12db 0100     		.2byte	0x1
 9034 12dd 56       		.byte	0x56
 9035 12de 00000000 		.4byte	0
 9036 12e2 00000000 		.4byte	0
 9037              	.LLST119:
 9038 12e6 1C000000 		.4byte	.LVL343
 9039 12ea 32000000 		.4byte	.LVL345
 9040 12ee 0500     		.2byte	0x5
 9041 12f0 77       		.byte	0x77
 9042 12f1 00       		.sleb128 0
 9043 12f2 3F       		.byte	0x3f
 9044 12f3 1A       		.byte	0x1a
 9045 12f4 9F       		.byte	0x9f
 9046 12f5 00000000 		.4byte	0
 9047 12f9 00000000 		.4byte	0
 9048              	.LLST120:
 9049 12fd 18000000 		.4byte	.LVL342
 9050 1301 1C000000 		.4byte	.LVL343
 9051 1305 0100     		.2byte	0x1
 9052 1307 50       		.byte	0x50
 9053 1308 1C000000 		.4byte	.LVL343
 9054 130c CA000000 		.4byte	.LVL362
 9055 1310 0100     		.2byte	0x1
 9056 1312 57       		.byte	0x57
 9057 1313 00000000 		.4byte	0
 9058 1317 00000000 		.4byte	0
 9059              	.LLST121:
 9060 131b 00000000 		.4byte	.LVL363
 9061 131f 0F000000 		.4byte	.LVL364-1
 9062 1323 0100     		.2byte	0x1
 9063 1325 50       		.byte	0x50
 9064 1326 0F000000 		.4byte	.LVL364-1
 9065 132a 16000000 		.4byte	.LVL365
 9066 132e 0400     		.2byte	0x4
 9067 1330 F3       		.byte	0xf3
 9068 1331 01       		.uleb128 0x1
 9069 1332 50       		.byte	0x50
 9070 1333 9F       		.byte	0x9f
 9071 1334 16000000 		.4byte	.LVL365
 9072 1338 1C000000 		.4byte	.LFE30
 9073 133c 0100     		.2byte	0x1
 9074 133e 50       		.byte	0x50
 9075 133f 00000000 		.4byte	0
 9076 1343 00000000 		.4byte	0
 9077              	.LLST122:
 9078 1347 00000000 		.4byte	.LVL363
 9079 134b 0F000000 		.4byte	.LVL364-1
ARM GAS  C:\Users\Dell\AppData\Local\Temp\ccFHrQg5.s 			page 228


 9080 134f 0100     		.2byte	0x1
 9081 1351 51       		.byte	0x51
 9082 1352 0F000000 		.4byte	.LVL364-1
 9083 1356 16000000 		.4byte	.LVL365
 9084 135a 0400     		.2byte	0x4
 9085 135c F3       		.byte	0xf3
 9086 135d 01       		.uleb128 0x1
 9087 135e 51       		.byte	0x51
 9088 135f 9F       		.byte	0x9f
 9089 1360 16000000 		.4byte	.LVL365
 9090 1364 1C000000 		.4byte	.LFE30
 9091 1368 0100     		.2byte	0x1
 9092 136a 51       		.byte	0x51
 9093 136b 00000000 		.4byte	0
 9094 136f 00000000 		.4byte	0
 9095              	.LLST123:
 9096 1373 10000000 		.4byte	.LVL364
 9097 1377 16000000 		.4byte	.LVL365
 9098 137b 0100     		.2byte	0x1
 9099 137d 50       		.byte	0x50
 9100 137e 00000000 		.4byte	0
 9101 1382 00000000 		.4byte	0
 9102              	.LLST124:
 9103 1386 00000000 		.4byte	.LVL366
 9104 138a 0B000000 		.4byte	.LVL367-1
 9105 138e 0100     		.2byte	0x1
 9106 1390 50       		.byte	0x50
 9107 1391 0B000000 		.4byte	.LVL367-1
 9108 1395 12000000 		.4byte	.LVL368
 9109 1399 0400     		.2byte	0x4
 9110 139b F3       		.byte	0xf3
 9111 139c 01       		.uleb128 0x1
 9112 139d 50       		.byte	0x50
 9113 139e 9F       		.byte	0x9f
 9114 139f 12000000 		.4byte	.LVL368
 9115 13a3 18000000 		.4byte	.LFE31
 9116 13a7 0100     		.2byte	0x1
 9117 13a9 50       		.byte	0x50
 9118 13aa 00000000 		.4byte	0
 9119 13ae 00000000 		.4byte	0
 9120              	.LLST125:
 9121 13b2 00000000 		.4byte	.LVL366
 9122 13b6 0B000000 		.4byte	.LVL367-1
 9123 13ba 0100     		.2byte	0x1
 9124 13bc 51       		.byte	0x51
 9125 13bd 0B000000 		.4byte	.LVL367-1
 9126 13c1 12000000 		.4byte	.LVL368
 9127 13c5 0400     		.2byte	0x4
 9128 13c7 F3       		.byte	0xf3
 9129 13c8 01       		.uleb128 0x1
 9130 13c9 51       		.byte	0x51
 9131 13ca 9F       		.byte	0x9f
 9132 13cb 12000000 		.4byte	.LVL368
 9133 13cf 18000000 		.4byte	.LFE31
 9134 13d3 0100     		.2byte	0x1
 9135 13d5 51       		.byte	0x51
 9136 13d6 00000000 		.4byte	0
ARM GAS  C:\Users\Dell\AppData\Local\Temp\ccFHrQg5.s 			page 229


 9137 13da 00000000 		.4byte	0
 9138              	.LLST126:
 9139 13de 0C000000 		.4byte	.LVL367
 9140 13e2 12000000 		.4byte	.LVL368
 9141 13e6 0100     		.2byte	0x1
 9142 13e8 50       		.byte	0x50
 9143 13e9 00000000 		.4byte	0
 9144 13ed 00000000 		.4byte	0
 9145              	.LLST127:
 9146 13f1 00000000 		.4byte	.LVL369
 9147 13f5 06000000 		.4byte	.LVL371
 9148 13f9 0100     		.2byte	0x1
 9149 13fb 50       		.byte	0x50
 9150 13fc 06000000 		.4byte	.LVL371
 9151 1400 30000000 		.4byte	.LFE39
 9152 1404 0400     		.2byte	0x4
 9153 1406 F3       		.byte	0xf3
 9154 1407 01       		.uleb128 0x1
 9155 1408 50       		.byte	0x50
 9156 1409 9F       		.byte	0x9f
 9157 140a 00000000 		.4byte	0
 9158 140e 00000000 		.4byte	0
 9159              	.LLST128:
 9160 1412 04000000 		.4byte	.LVL370
 9161 1416 16000000 		.4byte	.LVL376
 9162 141a 0100     		.2byte	0x1
 9163 141c 53       		.byte	0x53
 9164 141d 24000000 		.4byte	.LVL380
 9165 1421 30000000 		.4byte	.LFE39
 9166 1425 0100     		.2byte	0x1
 9167 1427 53       		.byte	0x53
 9168 1428 00000000 		.4byte	0
 9169 142c 00000000 		.4byte	0
 9170              	.LLST129:
 9171 1430 06000000 		.4byte	.LVL371
 9172 1434 08000000 		.4byte	.LVL372
 9173 1438 0100     		.2byte	0x1
 9174 143a 50       		.byte	0x50
 9175 143b 08000000 		.4byte	.LVL372
 9176 143f 0A000000 		.4byte	.LVL373
 9177 1443 0300     		.2byte	0x3
 9178 1445 70       		.byte	0x70
 9179 1446 02       		.sleb128 2
 9180 1447 9F       		.byte	0x9f
 9181 1448 0E000000 		.4byte	.LVL374
 9182 144c 14000000 		.4byte	.LVL375
 9183 1450 0100     		.2byte	0x1
 9184 1452 50       		.byte	0x50
 9185 1453 00000000 		.4byte	0
 9186 1457 00000000 		.4byte	0
 9187              	.LLST130:
 9188 145b 1E000000 		.4byte	.LVL378
 9189 145f 24000000 		.4byte	.LVL380
 9190 1463 0100     		.2byte	0x1
 9191 1465 53       		.byte	0x53
 9192 1466 00000000 		.4byte	0
 9193 146a 00000000 		.4byte	0
ARM GAS  C:\Users\Dell\AppData\Local\Temp\ccFHrQg5.s 			page 230


 9194              	.LLST131:
 9195 146e 1A000000 		.4byte	.LVL377
 9196 1472 22000000 		.4byte	.LVL379
 9197 1476 0500     		.2byte	0x5
 9198 1478 70       		.byte	0x70
 9199 1479 00       		.sleb128 0
 9200 147a 38       		.byte	0x38
 9201 147b 24       		.byte	0x24
 9202 147c 9F       		.byte	0x9f
 9203 147d 00000000 		.4byte	0
 9204 1481 00000000 		.4byte	0
 9205              	.LLST132:
 9206 1485 22000000 		.4byte	.LVL379
 9207 1489 24000000 		.4byte	.LVL380
 9208 148d 0100     		.2byte	0x1
 9209 148f 50       		.byte	0x50
 9210 1490 28000000 		.4byte	.LVL381
 9211 1494 30000000 		.4byte	.LFE39
 9212 1498 0100     		.2byte	0x1
 9213 149a 50       		.byte	0x50
 9214 149b 00000000 		.4byte	0
 9215 149f 00000000 		.4byte	0
 9216              	.LLST133:
 9217 14a3 00000000 		.4byte	.LVL382
 9218 14a7 28000000 		.4byte	.LVL389
 9219 14ab 0100     		.2byte	0x1
 9220 14ad 50       		.byte	0x50
 9221 14ae 28000000 		.4byte	.LVL389
 9222 14b2 3C010000 		.4byte	.LFE26
 9223 14b6 0400     		.2byte	0x4
 9224 14b8 F3       		.byte	0xf3
 9225 14b9 01       		.uleb128 0x1
 9226 14ba 50       		.byte	0x50
 9227 14bb 9F       		.byte	0x9f
 9228 14bc 00000000 		.4byte	0
 9229 14c0 00000000 		.4byte	0
 9230              	.LLST134:
 9231 14c4 00000000 		.4byte	.LVL382
 9232 14c8 28000000 		.4byte	.LVL389
 9233 14cc 0100     		.2byte	0x1
 9234 14ce 51       		.byte	0x51
 9235 14cf 28000000 		.4byte	.LVL389
 9236 14d3 3C010000 		.4byte	.LFE26
 9237 14d7 0400     		.2byte	0x4
 9238 14d9 F3       		.byte	0xf3
 9239 14da 01       		.uleb128 0x1
 9240 14db 51       		.byte	0x51
 9241 14dc 9F       		.byte	0x9f
 9242 14dd 00000000 		.4byte	0
 9243 14e1 00000000 		.4byte	0
 9244              	.LLST135:
 9245 14e5 00000000 		.4byte	.LVL382
 9246 14e9 1C000000 		.4byte	.LVL385
 9247 14ed 0100     		.2byte	0x1
 9248 14ef 52       		.byte	0x52
 9249 14f0 1C000000 		.4byte	.LVL385
 9250 14f4 20000000 		.4byte	.LVL386
ARM GAS  C:\Users\Dell\AppData\Local\Temp\ccFHrQg5.s 			page 231


 9251 14f8 0400     		.2byte	0x4
 9252 14fa F3       		.byte	0xf3
 9253 14fb 01       		.uleb128 0x1
 9254 14fc 52       		.byte	0x52
 9255 14fd 9F       		.byte	0x9f
 9256 14fe 20000000 		.4byte	.LVL386
 9257 1502 22000000 		.4byte	.LVL387
 9258 1506 0100     		.2byte	0x1
 9259 1508 52       		.byte	0x52
 9260 1509 22000000 		.4byte	.LVL387
 9261 150d 3C010000 		.4byte	.LFE26
 9262 1511 0400     		.2byte	0x4
 9263 1513 F3       		.byte	0xf3
 9264 1514 01       		.uleb128 0x1
 9265 1515 52       		.byte	0x52
 9266 1516 9F       		.byte	0x9f
 9267 1517 00000000 		.4byte	0
 9268 151b 00000000 		.4byte	0
 9269              	.LLST136:
 9270 151f 00000000 		.4byte	.LVL382
 9271 1523 0E000000 		.4byte	.LVL384
 9272 1527 0100     		.2byte	0x1
 9273 1529 53       		.byte	0x53
 9274 152a 0E000000 		.4byte	.LVL384
 9275 152e 3C010000 		.4byte	.LFE26
 9276 1532 0400     		.2byte	0x4
 9277 1534 F3       		.byte	0xf3
 9278 1535 01       		.uleb128 0x1
 9279 1536 53       		.byte	0x53
 9280 1537 9F       		.byte	0x9f
 9281 1538 00000000 		.4byte	0
 9282 153c 00000000 		.4byte	0
 9283              	.LLST137:
 9284 1540 24000000 		.4byte	.LVL388
 9285 1544 28000000 		.4byte	.LVL389
 9286 1548 0100     		.2byte	0x1
 9287 154a 54       		.byte	0x54
 9288 154b 28000000 		.4byte	.LVL389
 9289 154f 43000000 		.4byte	.LVL391-1
 9290 1553 0100     		.2byte	0x1
 9291 1555 53       		.byte	0x53
 9292 1556 54000000 		.4byte	.LVL393
 9293 155a 63000000 		.4byte	.LVL394-1
 9294 155e 0100     		.2byte	0x1
 9295 1560 53       		.byte	0x53
 9296 1561 6A000000 		.4byte	.LVL395
 9297 1565 85000000 		.4byte	.LVL396-1
 9298 1569 0100     		.2byte	0x1
 9299 156b 53       		.byte	0x53
 9300 156c 92000000 		.4byte	.LVL397
 9301 1570 99000000 		.4byte	.LVL399-1
 9302 1574 0100     		.2byte	0x1
 9303 1576 53       		.byte	0x53
 9304 1577 A6000000 		.4byte	.LVL400
 9305 157b C0000000 		.4byte	.LVL403
 9306 157f 0100     		.2byte	0x1
 9307 1581 53       		.byte	0x53
ARM GAS  C:\Users\Dell\AppData\Local\Temp\ccFHrQg5.s 			page 232


 9308 1582 C2000000 		.4byte	.LVL404
 9309 1586 CC000000 		.4byte	.LVL408
 9310 158a 0100     		.2byte	0x1
 9311 158c 53       		.byte	0x53
 9312 158d D2000000 		.4byte	.LVL409
 9313 1591 F2000000 		.4byte	.LVL412
 9314 1595 0100     		.2byte	0x1
 9315 1597 53       		.byte	0x53
 9316 1598 F4000000 		.4byte	.LVL413
 9317 159c F6000000 		.4byte	.LVL414
 9318 15a0 0100     		.2byte	0x1
 9319 15a2 53       		.byte	0x53
 9320 15a3 F8000000 		.4byte	.LVL415
 9321 15a7 FE000000 		.4byte	.LVL416
 9322 15ab 0100     		.2byte	0x1
 9323 15ad 53       		.byte	0x53
 9324 15ae 0E010000 		.4byte	.LVL419
 9325 15b2 28010000 		.4byte	.LVL420
 9326 15b6 0100     		.2byte	0x1
 9327 15b8 54       		.byte	0x54
 9328 15b9 2A010000 		.4byte	.LVL421
 9329 15bd 2E010000 		.4byte	.LVL422
 9330 15c1 0100     		.2byte	0x1
 9331 15c3 54       		.byte	0x54
 9332 15c4 00000000 		.4byte	0
 9333 15c8 00000000 		.4byte	0
 9334              	.LLST138:
 9335 15cc CC000000 		.4byte	.LVL408
 9336 15d0 EE000000 		.4byte	.LVL410
 9337 15d4 0100     		.2byte	0x1
 9338 15d6 55       		.byte	0x55
 9339 15d7 F0000000 		.4byte	.LVL411
 9340 15db 06010000 		.4byte	.LVL417
 9341 15df 0100     		.2byte	0x1
 9342 15e1 55       		.byte	0x55
 9343 15e2 08010000 		.4byte	.LVL418
 9344 15e6 34010000 		.4byte	.LVL423
 9345 15ea 0100     		.2byte	0x1
 9346 15ec 55       		.byte	0x55
 9347 15ed 00000000 		.4byte	0
 9348 15f1 00000000 		.4byte	0
 9349              	.LLST139:
 9350 15f5 1C000000 		.4byte	.LVL385
 9351 15f9 20000000 		.4byte	.LVL386
 9352 15fd 0200     		.2byte	0x2
 9353 15ff 30       		.byte	0x30
 9354 1600 9F       		.byte	0x9f
 9355 1601 22000000 		.4byte	.LVL387
 9356 1605 24000000 		.4byte	.LVL388
 9357 1609 0200     		.2byte	0x2
 9358 160b 31       		.byte	0x31
 9359 160c 9F       		.byte	0x9f
 9360 160d 24000000 		.4byte	.LVL388
 9361 1611 94000000 		.4byte	.LVL398
 9362 1615 0100     		.2byte	0x1
 9363 1617 57       		.byte	0x57
 9364 1618 A6000000 		.4byte	.LVL400
ARM GAS  C:\Users\Dell\AppData\Local\Temp\ccFHrQg5.s 			page 233


 9365 161c CC000000 		.4byte	.LVL408
 9366 1620 0100     		.2byte	0x1
 9367 1622 57       		.byte	0x57
 9368 1623 00000000 		.4byte	0
 9369 1627 00000000 		.4byte	0
 9370              	.LLST140:
 9371 162b 3A000000 		.4byte	.LVL390
 9372 162f 43000000 		.4byte	.LVL391-1
 9373 1633 0100     		.2byte	0x1
 9374 1635 50       		.byte	0x50
 9375 1636 00000000 		.4byte	0
 9376 163a 00000000 		.4byte	0
 9377              	.LLST141:
 9378 163e 0C000000 		.4byte	.LVL383
 9379 1642 6A000000 		.4byte	.LVL395
 9380 1646 0200     		.2byte	0x2
 9381 1648 30       		.byte	0x30
 9382 1649 9F       		.byte	0x9f
 9383 164a 6A000000 		.4byte	.LVL395
 9384 164e 85000000 		.4byte	.LVL396-1
 9385 1652 0100     		.2byte	0x1
 9386 1654 52       		.byte	0x52
 9387 1655 92000000 		.4byte	.LVL397
 9388 1659 99000000 		.4byte	.LVL399-1
 9389 165d 0100     		.2byte	0x1
 9390 165f 52       		.byte	0x52
 9391 1660 A6000000 		.4byte	.LVL400
 9392 1664 BC000000 		.4byte	.LVL401
 9393 1668 0100     		.2byte	0x1
 9394 166a 52       		.byte	0x52
 9395 166b BE000000 		.4byte	.LVL402
 9396 166f C4000000 		.4byte	.LVL405
 9397 1673 0100     		.2byte	0x1
 9398 1675 52       		.byte	0x52
 9399 1676 C4000000 		.4byte	.LVL405
 9400 167a C8000000 		.4byte	.LVL407
 9401 167e 0200     		.2byte	0x2
 9402 1680 30       		.byte	0x30
 9403 1681 9F       		.byte	0x9f
 9404 1682 C8000000 		.4byte	.LVL407
 9405 1686 CC000000 		.4byte	.LVL408
 9406 168a 0100     		.2byte	0x1
 9407 168c 52       		.byte	0x52
 9408 168d 00000000 		.4byte	0
 9409 1691 00000000 		.4byte	0
 9410              	.LLST142:
 9411 1695 1C000000 		.4byte	.LVL385
 9412 1699 20000000 		.4byte	.LVL386
 9413 169d 0100     		.2byte	0x1
 9414 169f 50       		.byte	0x50
 9415 16a0 22000000 		.4byte	.LVL387
 9416 16a4 43000000 		.4byte	.LVL391-1
 9417 16a8 0100     		.2byte	0x1
 9418 16aa 52       		.byte	0x52
 9419 16ab 50000000 		.4byte	.LVL392
 9420 16af 63000000 		.4byte	.LVL394-1
 9421 16b3 0100     		.2byte	0x1
ARM GAS  C:\Users\Dell\AppData\Local\Temp\ccFHrQg5.s 			page 234


 9422 16b5 52       		.byte	0x52
 9423 16b6 C4000000 		.4byte	.LVL405
 9424 16ba C6000000 		.4byte	.LVL406
 9425 16be 0100     		.2byte	0x1
 9426 16c0 52       		.byte	0x52
 9427 16c1 00000000 		.4byte	0
 9428 16c5 00000000 		.4byte	0
 9429              	.LLST143:
 9430 16c9 00000000 		.4byte	.LVL424
 9431 16cd 09000000 		.4byte	.LVL426-1
 9432 16d1 0100     		.2byte	0x1
 9433 16d3 50       		.byte	0x50
 9434 16d4 09000000 		.4byte	.LVL426-1
 9435 16d8 2E000000 		.4byte	.LVL434
 9436 16dc 0100     		.2byte	0x1
 9437 16de 57       		.byte	0x57
 9438 16df 2E000000 		.4byte	.LVL434
 9439 16e3 34000000 		.4byte	.LFE28
 9440 16e7 0400     		.2byte	0x4
 9441 16e9 F3       		.byte	0xf3
 9442 16ea 01       		.uleb128 0x1
 9443 16eb 50       		.byte	0x50
 9444 16ec 9F       		.byte	0x9f
 9445 16ed 00000000 		.4byte	0
 9446 16f1 00000000 		.4byte	0
 9447              	.LLST144:
 9448 16f5 00000000 		.4byte	.LVL424
 9449 16f9 09000000 		.4byte	.LVL426-1
 9450 16fd 0100     		.2byte	0x1
 9451 16ff 51       		.byte	0x51
 9452 1700 09000000 		.4byte	.LVL426-1
 9453 1704 34000000 		.4byte	.LFE28
 9454 1708 0400     		.2byte	0x4
 9455 170a F3       		.byte	0xf3
 9456 170b 01       		.uleb128 0x1
 9457 170c 51       		.byte	0x51
 9458 170d 9F       		.byte	0x9f
 9459 170e 00000000 		.4byte	0
 9460 1712 00000000 		.4byte	0
 9461              	.LLST145:
 9462 1716 0E000000 		.4byte	.LVL427
 9463 171a 26000000 		.4byte	.LVL432
 9464 171e 0100     		.2byte	0x1
 9465 1720 54       		.byte	0x54
 9466 1721 28000000 		.4byte	.LVL433
 9467 1725 2E000000 		.4byte	.LVL434
 9468 1729 0100     		.2byte	0x1
 9469 172b 54       		.byte	0x54
 9470 172c 00000000 		.4byte	0
 9471 1730 00000000 		.4byte	0
 9472              	.LLST146:
 9473 1734 0E000000 		.4byte	.LVL427
 9474 1738 2E000000 		.4byte	.LVL434
 9475 173c 0100     		.2byte	0x1
 9476 173e 56       		.byte	0x56
 9477 173f 00000000 		.4byte	0
 9478 1743 00000000 		.4byte	0
ARM GAS  C:\Users\Dell\AppData\Local\Temp\ccFHrQg5.s 			page 235


 9479              	.LLST147:
 9480 1747 06000000 		.4byte	.LVL425
 9481 174b 12000000 		.4byte	.LVL428
 9482 174f 0200     		.2byte	0x2
 9483 1751 30       		.byte	0x30
 9484 1752 9F       		.byte	0x9f
 9485 1753 12000000 		.4byte	.LVL428
 9486 1757 22000000 		.4byte	.LVL430
 9487 175b 0100     		.2byte	0x1
 9488 175d 55       		.byte	0x55
 9489 175e 24000000 		.4byte	.LVL431
 9490 1762 2E000000 		.4byte	.LVL434
 9491 1766 0100     		.2byte	0x1
 9492 1768 55       		.byte	0x55
 9493 1769 00000000 		.4byte	0
 9494 176d 00000000 		.4byte	0
 9495              	.LLST148:
 9496 1771 1C000000 		.4byte	.LVL429
 9497 1775 24000000 		.4byte	.LVL431
 9498 1779 0100     		.2byte	0x1
 9499 177b 50       		.byte	0x50
 9500 177c 00000000 		.4byte	0
 9501 1780 00000000 		.4byte	0
 9502              	.LLST149:
 9503 1784 00000000 		.4byte	.LVL435
 9504 1788 0B000000 		.4byte	.LVL436-1
 9505 178c 0100     		.2byte	0x1
 9506 178e 50       		.byte	0x50
 9507 178f 0B000000 		.4byte	.LVL436-1
 9508 1793 12000000 		.4byte	.LVL437
 9509 1797 0400     		.2byte	0x4
 9510 1799 F3       		.byte	0xf3
 9511 179a 01       		.uleb128 0x1
 9512 179b 50       		.byte	0x50
 9513 179c 9F       		.byte	0x9f
 9514 179d 12000000 		.4byte	.LVL437
 9515 17a1 18000000 		.4byte	.LFE29
 9516 17a5 0100     		.2byte	0x1
 9517 17a7 50       		.byte	0x50
 9518 17a8 00000000 		.4byte	0
 9519 17ac 00000000 		.4byte	0
 9520              	.LLST150:
 9521 17b0 00000000 		.4byte	.LVL435
 9522 17b4 0B000000 		.4byte	.LVL436-1
 9523 17b8 0100     		.2byte	0x1
 9524 17ba 51       		.byte	0x51
 9525 17bb 0B000000 		.4byte	.LVL436-1
 9526 17bf 12000000 		.4byte	.LVL437
 9527 17c3 0400     		.2byte	0x4
 9528 17c5 F3       		.byte	0xf3
 9529 17c6 01       		.uleb128 0x1
 9530 17c7 51       		.byte	0x51
 9531 17c8 9F       		.byte	0x9f
 9532 17c9 12000000 		.4byte	.LVL437
 9533 17cd 18000000 		.4byte	.LFE29
 9534 17d1 0100     		.2byte	0x1
 9535 17d3 51       		.byte	0x51
ARM GAS  C:\Users\Dell\AppData\Local\Temp\ccFHrQg5.s 			page 236


 9536 17d4 00000000 		.4byte	0
 9537 17d8 00000000 		.4byte	0
 9538              	.LLST151:
 9539 17dc 0C000000 		.4byte	.LVL436
 9540 17e0 12000000 		.4byte	.LVL437
 9541 17e4 0100     		.2byte	0x1
 9542 17e6 50       		.byte	0x50
 9543 17e7 00000000 		.4byte	0
 9544 17eb 00000000 		.4byte	0
 9545              	.LLST152:
 9546 17ef 00000000 		.4byte	.LVL438
 9547 17f3 0E000000 		.4byte	.LVL439
 9548 17f7 0100     		.2byte	0x1
 9549 17f9 50       		.byte	0x50
 9550 17fa 0E000000 		.4byte	.LVL439
 9551 17fe 14000000 		.4byte	.LVL440
 9552 1802 0400     		.2byte	0x4
 9553 1804 F3       		.byte	0xf3
 9554 1805 01       		.uleb128 0x1
 9555 1806 50       		.byte	0x50
 9556 1807 9F       		.byte	0x9f
 9557 1808 14000000 		.4byte	.LVL440
 9558 180c 22000000 		.4byte	.LVL441
 9559 1810 0100     		.2byte	0x1
 9560 1812 50       		.byte	0x50
 9561 1813 22000000 		.4byte	.LVL441
 9562 1817 3C000000 		.4byte	.LFE40
 9563 181b 0400     		.2byte	0x4
 9564 181d F3       		.byte	0xf3
 9565 181e 01       		.uleb128 0x1
 9566 181f 50       		.byte	0x50
 9567 1820 9F       		.byte	0x9f
 9568 1821 00000000 		.4byte	0
 9569 1825 00000000 		.4byte	0
 9570              	.LLST153:
 9571 1829 00000000 		.4byte	.LVL438
 9572 182d 2A000000 		.4byte	.LVL442
 9573 1831 0100     		.2byte	0x1
 9574 1833 51       		.byte	0x51
 9575 1834 2A000000 		.4byte	.LVL442
 9576 1838 3C000000 		.4byte	.LFE40
 9577 183c 0400     		.2byte	0x4
 9578 183e F3       		.byte	0xf3
 9579 183f 01       		.uleb128 0x1
 9580 1840 51       		.byte	0x51
 9581 1841 9F       		.byte	0x9f
 9582 1842 00000000 		.4byte	0
 9583 1846 00000000 		.4byte	0
 9584              	.LLST154:
 9585 184a 00000000 		.4byte	.LVL443
 9586 184e 04000000 		.4byte	.LVL444
 9587 1852 0100     		.2byte	0x1
 9588 1854 50       		.byte	0x50
 9589 1855 04000000 		.4byte	.LVL444
 9590 1859 0C000000 		.4byte	.LFE41
 9591 185d 0400     		.2byte	0x4
 9592 185f F3       		.byte	0xf3
ARM GAS  C:\Users\Dell\AppData\Local\Temp\ccFHrQg5.s 			page 237


 9593 1860 01       		.uleb128 0x1
 9594 1861 50       		.byte	0x50
 9595 1862 9F       		.byte	0x9f
 9596 1863 00000000 		.4byte	0
 9597 1867 00000000 		.4byte	0
 9598              		.section	.debug_aranges,"",%progbits
 9599 0000 64010000 		.4byte	0x164
 9600 0004 0200     		.2byte	0x2
 9601 0006 00000000 		.4byte	.Ldebug_info0
 9602 000a 04       		.byte	0x4
 9603 000b 00       		.byte	0
 9604 000c 0000     		.2byte	0
 9605 000e 0000     		.2byte	0
 9606 0010 00000000 		.4byte	.LFB0
 9607 0014 60010000 		.4byte	.LFE0-.LFB0
 9608 0018 00000000 		.4byte	.LFB1
 9609 001c 3C000000 		.4byte	.LFE1-.LFB1
 9610 0020 00000000 		.4byte	.LFB2
 9611 0024 6C000000 		.4byte	.LFE2-.LFB2
 9612 0028 00000000 		.4byte	.LFB4
 9613 002c 24000000 		.4byte	.LFE4-.LFB4
 9614 0030 00000000 		.4byte	.LFB7
 9615 0034 10000000 		.4byte	.LFE7-.LFB7
 9616 0038 00000000 		.4byte	.LFB8
 9617 003c 20000000 		.4byte	.LFE8-.LFB8
 9618 0040 00000000 		.4byte	.LFB9
 9619 0044 20000000 		.4byte	.LFE9-.LFB9
 9620 0048 00000000 		.4byte	.LFB10
 9621 004c 1C000000 		.4byte	.LFE10-.LFB10
 9622 0050 00000000 		.4byte	.LFB11
 9623 0054 28000000 		.4byte	.LFE11-.LFB11
 9624 0058 00000000 		.4byte	.LFB12
 9625 005c 10000000 		.4byte	.LFE12-.LFB12
 9626 0060 00000000 		.4byte	.LFB13
 9627 0064 18000000 		.4byte	.LFE13-.LFB13
 9628 0068 00000000 		.4byte	.LFB3
 9629 006c 30000000 		.4byte	.LFE3-.LFB3
 9630 0070 00000000 		.4byte	.LFB5
 9631 0074 1C000000 		.4byte	.LFE5-.LFB5
 9632 0078 00000000 		.4byte	.LFB6
 9633 007c 20000000 		.4byte	.LFE6-.LFB6
 9634 0080 00000000 		.4byte	.LFB32
 9635 0084 24000000 		.4byte	.LFE32-.LFB32
 9636 0088 00000000 		.4byte	.LFB33
 9637 008c 18000000 		.4byte	.LFE33-.LFB33
 9638 0090 00000000 		.4byte	.LFB34
 9639 0094 10000000 		.4byte	.LFE34-.LFB34
 9640 0098 00000000 		.4byte	.LFB15
 9641 009c 24010000 		.4byte	.LFE15-.LFB15
 9642 00a0 00000000 		.4byte	.LFB18
 9643 00a4 1C000000 		.4byte	.LFE18-.LFB18
 9644 00a8 00000000 		.4byte	.LFB19
 9645 00ac 18000000 		.4byte	.LFE19-.LFB19
 9646 00b0 00000000 		.4byte	.LFB35
 9647 00b4 24000000 		.4byte	.LFE35-.LFB35
 9648 00b8 00000000 		.4byte	.LFB14
 9649 00bc 80010000 		.4byte	.LFE14-.LFB14
ARM GAS  C:\Users\Dell\AppData\Local\Temp\ccFHrQg5.s 			page 238


 9650 00c0 00000000 		.4byte	.LFB16
 9651 00c4 38000000 		.4byte	.LFE16-.LFB16
 9652 00c8 00000000 		.4byte	.LFB17
 9653 00cc 18000000 		.4byte	.LFE17-.LFB17
 9654 00d0 00000000 		.4byte	.LFB36
 9655 00d4 1C000000 		.4byte	.LFE36-.LFB36
 9656 00d8 00000000 		.4byte	.LFB21
 9657 00dc D0000000 		.4byte	.LFE21-.LFB21
 9658 00e0 00000000 		.4byte	.LFB24
 9659 00e4 1C000000 		.4byte	.LFE24-.LFB24
 9660 00e8 00000000 		.4byte	.LFB25
 9661 00ec 18000000 		.4byte	.LFE25-.LFB25
 9662 00f0 00000000 		.4byte	.LFB37
 9663 00f4 30000000 		.4byte	.LFE37-.LFB37
 9664 00f8 00000000 		.4byte	.LFB20
 9665 00fc 40010000 		.4byte	.LFE20-.LFB20
 9666 0100 00000000 		.4byte	.LFB22
 9667 0104 34000000 		.4byte	.LFE22-.LFB22
 9668 0108 00000000 		.4byte	.LFB23
 9669 010c 18000000 		.4byte	.LFE23-.LFB23
 9670 0110 00000000 		.4byte	.LFB38
 9671 0114 1C000000 		.4byte	.LFE38-.LFB38
 9672 0118 00000000 		.4byte	.LFB27
 9673 011c D0000000 		.4byte	.LFE27-.LFB27
 9674 0120 00000000 		.4byte	.LFB30
 9675 0124 1C000000 		.4byte	.LFE30-.LFB30
 9676 0128 00000000 		.4byte	.LFB31
 9677 012c 18000000 		.4byte	.LFE31-.LFB31
 9678 0130 00000000 		.4byte	.LFB39
 9679 0134 30000000 		.4byte	.LFE39-.LFB39
 9680 0138 00000000 		.4byte	.LFB26
 9681 013c 3C010000 		.4byte	.LFE26-.LFB26
 9682 0140 00000000 		.4byte	.LFB28
 9683 0144 34000000 		.4byte	.LFE28-.LFB28
 9684 0148 00000000 		.4byte	.LFB29
 9685 014c 18000000 		.4byte	.LFE29-.LFB29
 9686 0150 00000000 		.4byte	.LFB40
 9687 0154 3C000000 		.4byte	.LFE40-.LFB40
 9688 0158 00000000 		.4byte	.LFB41
 9689 015c 0C000000 		.4byte	.LFE41-.LFB41
 9690 0160 00000000 		.4byte	0
 9691 0164 00000000 		.4byte	0
 9692              		.section	.debug_ranges,"",%progbits
 9693              	.Ldebug_ranges0:
 9694 0000 00000000 		.4byte	.LFB0
 9695 0004 60010000 		.4byte	.LFE0
 9696 0008 00000000 		.4byte	.LFB1
 9697 000c 3C000000 		.4byte	.LFE1
 9698 0010 00000000 		.4byte	.LFB2
 9699 0014 6C000000 		.4byte	.LFE2
 9700 0018 00000000 		.4byte	.LFB4
 9701 001c 24000000 		.4byte	.LFE4
 9702 0020 00000000 		.4byte	.LFB7
 9703 0024 10000000 		.4byte	.LFE7
 9704 0028 00000000 		.4byte	.LFB8
 9705 002c 20000000 		.4byte	.LFE8
 9706 0030 00000000 		.4byte	.LFB9
ARM GAS  C:\Users\Dell\AppData\Local\Temp\ccFHrQg5.s 			page 239


 9707 0034 20000000 		.4byte	.LFE9
 9708 0038 00000000 		.4byte	.LFB10
 9709 003c 1C000000 		.4byte	.LFE10
 9710 0040 00000000 		.4byte	.LFB11
 9711 0044 28000000 		.4byte	.LFE11
 9712 0048 00000000 		.4byte	.LFB12
 9713 004c 10000000 		.4byte	.LFE12
 9714 0050 00000000 		.4byte	.LFB13
 9715 0054 18000000 		.4byte	.LFE13
 9716 0058 00000000 		.4byte	.LFB3
 9717 005c 30000000 		.4byte	.LFE3
 9718 0060 00000000 		.4byte	.LFB5
 9719 0064 1C000000 		.4byte	.LFE5
 9720 0068 00000000 		.4byte	.LFB6
 9721 006c 20000000 		.4byte	.LFE6
 9722 0070 00000000 		.4byte	.LFB32
 9723 0074 24000000 		.4byte	.LFE32
 9724 0078 00000000 		.4byte	.LFB33
 9725 007c 18000000 		.4byte	.LFE33
 9726 0080 00000000 		.4byte	.LFB34
 9727 0084 10000000 		.4byte	.LFE34
 9728 0088 00000000 		.4byte	.LFB15
 9729 008c 24010000 		.4byte	.LFE15
 9730 0090 00000000 		.4byte	.LFB18
 9731 0094 1C000000 		.4byte	.LFE18
 9732 0098 00000000 		.4byte	.LFB19
 9733 009c 18000000 		.4byte	.LFE19
 9734 00a0 00000000 		.4byte	.LFB35
 9735 00a4 24000000 		.4byte	.LFE35
 9736 00a8 00000000 		.4byte	.LFB14
 9737 00ac 80010000 		.4byte	.LFE14
 9738 00b0 00000000 		.4byte	.LFB16
 9739 00b4 38000000 		.4byte	.LFE16
 9740 00b8 00000000 		.4byte	.LFB17
 9741 00bc 18000000 		.4byte	.LFE17
 9742 00c0 00000000 		.4byte	.LFB36
 9743 00c4 1C000000 		.4byte	.LFE36
 9744 00c8 00000000 		.4byte	.LFB21
 9745 00cc D0000000 		.4byte	.LFE21
 9746 00d0 00000000 		.4byte	.LFB24
 9747 00d4 1C000000 		.4byte	.LFE24
 9748 00d8 00000000 		.4byte	.LFB25
 9749 00dc 18000000 		.4byte	.LFE25
 9750 00e0 00000000 		.4byte	.LFB37
 9751 00e4 30000000 		.4byte	.LFE37
 9752 00e8 00000000 		.4byte	.LFB20
 9753 00ec 40010000 		.4byte	.LFE20
 9754 00f0 00000000 		.4byte	.LFB22
 9755 00f4 34000000 		.4byte	.LFE22
 9756 00f8 00000000 		.4byte	.LFB23
 9757 00fc 18000000 		.4byte	.LFE23
 9758 0100 00000000 		.4byte	.LFB38
 9759 0104 1C000000 		.4byte	.LFE38
 9760 0108 00000000 		.4byte	.LFB27
 9761 010c D0000000 		.4byte	.LFE27
 9762 0110 00000000 		.4byte	.LFB30
 9763 0114 1C000000 		.4byte	.LFE30
ARM GAS  C:\Users\Dell\AppData\Local\Temp\ccFHrQg5.s 			page 240


 9764 0118 00000000 		.4byte	.LFB31
 9765 011c 18000000 		.4byte	.LFE31
 9766 0120 00000000 		.4byte	.LFB39
 9767 0124 30000000 		.4byte	.LFE39
 9768 0128 00000000 		.4byte	.LFB26
 9769 012c 3C010000 		.4byte	.LFE26
 9770 0130 00000000 		.4byte	.LFB28
 9771 0134 34000000 		.4byte	.LFE28
 9772 0138 00000000 		.4byte	.LFB29
 9773 013c 18000000 		.4byte	.LFE29
 9774 0140 00000000 		.4byte	.LFB40
 9775 0144 3C000000 		.4byte	.LFE40
 9776 0148 00000000 		.4byte	.LFB41
 9777 014c 0C000000 		.4byte	.LFE41
 9778 0150 00000000 		.4byte	0
 9779 0154 00000000 		.4byte	0
 9780              		.section	.debug_line,"",%progbits
 9781              	.Ldebug_line0:
 9782 0000 33080000 		.section	.debug_str,"MS",%progbits,1
 9782      02002601 
 9782      00000201 
 9782      FB0E0D00 
 9782      01010101 
 9783              	.LASF87:
 9784 0000 64697370 		.ascii	"display_EncodeChar14Seg\000"
 9784      6C61795F 
 9784      456E636F 
 9784      64654368 
 9784      61723134 
 9785              	.LASF82:
 9786 0018 64697370 		.ascii	"display_14SegDigitsHigh\000"
 9786      6C61795F 
 9786      31345365 
 9786      67446967 
 9786      69747348 
 9787              	.LASF110:
 9788 0030 64697370 		.ascii	"display_tempCom\000"
 9788      6C61795F 
 9788      74656D70 
 9788      436F6D00 
 9789              	.LASF69:
 9790 0040 64697370 		.ascii	"display_EncodeChar7Seg\000"
 9790      6C61795F 
 9790      456E636F 
 9790      64654368 
 9790      61723753 
 9791              	.LASF70:
 9792 0057 696E7075 		.ascii	"input\000"
 9792      7400
 9793              	.LASF134:
 9794 005d 7374726C 		.ascii	"strlen\000"
 9794      656E00
 9795              	.LASF86:
 9796 0064 64697370 		.ascii	"display_Write14SegDigitHex\000"
 9796      6C61795F 
 9796      57726974 
 9796      65313453 
ARM GAS  C:\Users\Dell\AppData\Local\Temp\ccFHrQg5.s 			page 241


 9796      65674469 
 9797              	.LASF22:
 9798 007f 62617369 		.ascii	"basic_status\000"
 9798      635F7374 
 9798      61747573 
 9798      00
 9799              	.LASF83:
 9800 008c 64697370 		.ascii	"display_Write14SegNumberHex\000"
 9800      6C61795F 
 9800      57726974 
 9800      65313453 
 9800      65674E75 
 9801              	.LASF42:
 9802 00a8 726F7753 		.ascii	"rowSegSelect\000"
 9802      65675365 
 9802      6C656374 
 9802      00
 9803              	.LASF119:
 9804 00b5 64697370 		.ascii	"display_dmaBCTd\000"
 9804      6C61795F 
 9804      646D6142 
 9804      43546400 
 9805              	.LASF62:
 9806 00c5 73656C65 		.ascii	"selectVal\000"
 9806      63745661 
 9806      6C00
 9807              	.LASF8:
 9808 00cf 756E7369 		.ascii	"unsigned int\000"
 9808      676E6564 
 9808      20696E74 
 9808      00
 9809              	.LASF44:
 9810 00dc 64697370 		.ascii	"display_ClearDisplayAll\000"
 9810      6C61795F 
 9810      436C6561 
 9810      72446973 
 9810      706C6179 
 9811              	.LASF43:
 9812 00f4 64697370 		.ascii	"display_ClearDisplay\000"
 9812      6C61795F 
 9812      436C6561 
 9812      72446973 
 9812      706C6179 
 9813              	.LASF100:
 9814 0109 64697370 		.ascii	"display_Write16SegDigitDec\000"
 9814      6C61795F 
 9814      57726974 
 9814      65313653 
 9814      65674469 
 9815              	.LASF37:
 9816 0124 726F7753 		.ascii	"rowSeg\000"
 9816      656700
 9817              	.LASF17:
 9818 012b 72656738 		.ascii	"reg8\000"
 9818      00
 9819              	.LASF99:
 9820 0130 64697370 		.ascii	"display_Write16SegNumberHex\000"
ARM GAS  C:\Users\Dell\AppData\Local\Temp\ccFHrQg5.s 			page 242


 9820      6C61795F 
 9820      57726974 
 9820      65313653 
 9820      65674E75 
 9821              	.LASF88:
 9822 014c 64697370 		.ascii	"display_14SegASCIILow\000"
 9822      6C61795F 
 9822      31345365 
 9822      67415343 
 9822      49494C6F 
 9823              	.LASF96:
 9824 0162 64697370 		.ascii	"display_EncodeNumber16Seg\000"
 9824      6C61795F 
 9824      456E636F 
 9824      64654E75 
 9824      6D626572 
 9825              	.LASF56:
 9826 017c 76616C4E 		.ascii	"valNum\000"
 9826      756D00
 9827              	.LASF102:
 9828 0183 64697370 		.ascii	"display_EncodeChar16Seg\000"
 9828      6C61795F 
 9828      456E636F 
 9828      64654368 
 9828      61723136 
 9829              	.LASF127:
 9830 019b 64697370 		.ascii	"display_DMA_Seg_DmaInitialize\000"
 9830      6C61795F 
 9830      444D415F 
 9830      5365675F 
 9830      446D6149 
 9831              	.LASF30:
 9832 01b9 64697370 		.ascii	"display_Enable\000"
 9832      6C61795F 
 9832      456E6162 
 9832      6C6500
 9833              	.LASF131:
 9834 01c8 4379446D 		.ascii	"CyDmaChDisable\000"
 9834      61436844 
 9834      69736162 
 9834      6C6500
 9835              	.LASF66:
 9836 01d7 64697370 		.ascii	"display_Write7SegDigitDec\000"
 9836      6C61795F 
 9836      57726974 
 9836      65375365 
 9836      67446967 
 9837              	.LASF137:
 9838 01f1 433A5C55 		.ascii	"C:\\Users\\Dell\\Documents\\PSoC Creator\\clase_7_s"
 9838      73657273 
 9838      5C44656C 
 9838      6C5C446F 
 9838      63756D65 
 9839 021f 65676D65 		.ascii	"egmentos\\Design01.cydsn\000"
 9839      6E746F73 
 9839      5C446573 
 9839      69676E30 
ARM GAS  C:\Users\Dell\AppData\Local\Temp\ccFHrQg5.s 			page 243


 9839      312E6379 
 9840              	.LASF13:
 9841 0237 666C6F61 		.ascii	"float\000"
 9841      7400
 9842              	.LASF12:
 9843 023d 696E7433 		.ascii	"int32\000"
 9843      3200
 9844              	.LASF114:
 9845 0243 64697370 		.ascii	"display_dmaComChannel\000"
 9845      6C61795F 
 9845      646D6143 
 9845      6F6D4368 
 9845      616E6E65 
 9846              	.LASF7:
 9847 0259 6C6F6E67 		.ascii	"long long unsigned int\000"
 9847      206C6F6E 
 9847      6720756E 
 9847      7369676E 
 9847      65642069 
 9848              	.LASF48:
 9849 0270 64697370 		.ascii	"display_Stop\000"
 9849      6C61795F 
 9849      53746F70 
 9849      00
 9850              	.LASF35:
 9851 027d 64697370 		.ascii	"display_SetRC\000"
 9851      6C61795F 
 9851      53657452 
 9851      4300
 9852              	.LASF59:
 9853 028b 64696769 		.ascii	"digits\000"
 9853      747300
 9854              	.LASF71:
 9855 0292 64697370 		.ascii	"display_7SegASCII\000"
 9855      6C61795F 
 9855      37536567 
 9855      41534349 
 9855      4900
 9856              	.LASF32:
 9857 02a4 76616C75 		.ascii	"value\000"
 9857      6500
 9858              	.LASF135:
 9859 02aa 474E5520 		.ascii	"GNU C11 5.4.1 20160609 (release) [ARM/embedded-5-br"
 9859      43313120 
 9859      352E342E 
 9859      31203230 
 9859      31363036 
 9860 02dd 616E6368 		.ascii	"anch revision 237715] -mcpu=cortex-m3 -mthumb -g -O"
 9860      20726576 
 9860      6973696F 
 9860      6E203233 
 9860      37373135 
 9861 0310 67202D66 		.ascii	"g -ffunction-sections -ffat-lto-objects\000"
 9861      66756E63 
 9861      74696F6E 
 9861      2D736563 
 9861      74696F6E 
ARM GAS  C:\Users\Dell\AppData\Local\Temp\ccFHrQg5.s 			page 244


 9862              	.LASF133:
 9863 0338 4379446D 		.ascii	"CyDmaChSetRequest\000"
 9863      61436853 
 9863      65745265 
 9863      71756573 
 9863      7400
 9864              	.LASF29:
 9865 034a 646D6143 		.ascii	"dmaChannelList\000"
 9865      68616E6E 
 9865      656C4C69 
 9865      737400
 9866              	.LASF94:
 9867 0359 63757272 		.ascii	"currPosition\000"
 9867      506F7369 
 9867      74696F6E 
 9867      00
 9868              	.LASF113:
 9869 0366 64697370 		.ascii	"display_brightnessReg\000"
 9869      6C61795F 
 9869      62726967 
 9869      68746E65 
 9869      73735265 
 9870              	.LASF104:
 9871 037c 64697370 		.ascii	"display_16SegASCIIHigh\000"
 9871      6C61795F 
 9871      31365365 
 9871      67415343 
 9871      49494869 
 9872              	.LASF65:
 9873 0393 6E756D62 		.ascii	"numberVal\000"
 9873      65725661 
 9873      6C00
 9874              	.LASF77:
 9875 039d 63686172 		.ascii	"character\000"
 9875      61637465 
 9875      7200
 9876              	.LASF115:
 9877 03a7 64697370 		.ascii	"display_dmaComTd\000"
 9877      6C61795F 
 9877      646D6143 
 9877      6F6D5464 
 9877      00
 9878              	.LASF41:
 9879 03b8 76616C75 		.ascii	"valueRC\000"
 9879      65524300 
 9880              	.LASF103:
 9881 03c0 64697370 		.ascii	"display_16SegASCIILow\000"
 9881      6C61795F 
 9881      31365365 
 9881      67415343 
 9881      49494C6F 
 9882              	.LASF123:
 9883 03d6 64697370 		.ascii	"display_DMA_Com_DmaInitialize\000"
 9883      6C61795F 
 9883      444D415F 
 9883      436F6D5F 
 9883      446D6149 
ARM GAS  C:\Users\Dell\AppData\Local\Temp\ccFHrQg5.s 			page 245


 9884              	.LASF106:
 9885 03f4 64697370 		.ascii	"display_WriteString16Seg\000"
 9885      6C61795F 
 9885      57726974 
 9885      65537472 
 9885      696E6731 
 9886              	.LASF124:
 9887 040d 4379446D 		.ascii	"CyDmaTdAllocate\000"
 9887      61546441 
 9887      6C6C6F63 
 9887      61746500 
 9888              	.LASF89:
 9889 041d 64697370 		.ascii	"display_14SegASCIIHigh\000"
 9889      6C61795F 
 9889      31345365 
 9889      67415343 
 9889      49494869 
 9890              	.LASF73:
 9891 0434 76616C48 		.ascii	"valHigh\000"
 9891      69676800 
 9892              	.LASF51:
 9893 043c 64697370 		.ascii	"display_GetDecimalPoint\000"
 9893      6C61795F 
 9893      47657444 
 9893      6563696D 
 9893      616C506F 
 9894              	.LASF90:
 9895 0454 76616C48 		.ascii	"valHexLow\000"
 9895      65784C6F 
 9895      7700
 9896              	.LASF16:
 9897 045e 63686172 		.ascii	"char\000"
 9897      00
 9898              	.LASF53:
 9899 0463 64697370 		.ascii	"display_EncodeNumber7Seg\000"
 9899      6C61795F 
 9899      456E636F 
 9899      64654E75 
 9899      6D626572 
 9900              	.LASF84:
 9901 047c 64697370 		.ascii	"display_Write14SegDigitDec\000"
 9901      6C61795F 
 9901      57726974 
 9901      65313453 
 9901      65674469 
 9902              	.LASF109:
 9903 0497 62726967 		.ascii	"bright\000"
 9903      687400
 9904              	.LASF10:
 9905 049e 75696E74 		.ascii	"uint16\000"
 9905      313600
 9906              	.LASF50:
 9907 04a5 64697370 		.ascii	"display_GetRC\000"
 9907      6C61795F 
 9907      47657452 
 9907      4300
 9908              	.LASF39:
ARM GAS  C:\Users\Dell\AppData\Local\Temp\ccFHrQg5.s 			page 246


 9909 04b3 726F7753 		.ascii	"rowSelect\000"
 9909      656C6563 
 9909      7400
 9910              	.LASF97:
 9911 04bd 64697370 		.ascii	"display_16SegDigitsLow\000"
 9911      6C61795F 
 9911      31365365 
 9911      67446967 
 9911      6974734C 
 9912              	.LASF92:
 9913 04d4 64697370 		.ascii	"display_Write14SegNumberDec\000"
 9913      6C61795F 
 9913      57726974 
 9913      65313453 
 9913      65674E75 
 9914              	.LASF20:
 9915 04f0 62617369 		.ascii	"basic_cfg\000"
 9915      635F6366 
 9915      6700
 9916              	.LASF136:
 9917 04fa 47656E65 		.ascii	"Generated_Source\\PSoC5\\display.c\000"
 9917      72617465 
 9917      645F536F 
 9917      75726365 
 9917      5C50536F 
 9918              	.LASF15:
 9919 051b 63686172 		.ascii	"char8\000"
 9919      3800
 9920              	.LASF6:
 9921 0521 6C6F6E67 		.ascii	"long long int\000"
 9921      206C6F6E 
 9921      6720696E 
 9921      7400
 9922              	.LASF81:
 9923 052f 64697370 		.ascii	"display_14SegDigitsLow\000"
 9923      6C61795F 
 9923      31345365 
 9923      67446967 
 9923      6974734C 
 9924              	.LASF105:
 9925 0546 64697370 		.ascii	"display_Write16SegNumberDec\000"
 9925      6C61795F 
 9925      57726974 
 9925      65313653 
 9925      65674E75 
 9926              	.LASF47:
 9927 0562 64697370 		.ascii	"display_Start\000"
 9927      6C61795F 
 9927      53746172 
 9927      7400
 9928              	.LASF67:
 9929 0570 64696769 		.ascii	"digit\000"
 9929      7400
 9930              	.LASF52:
 9931 0576 64656350 		.ascii	"decPointVal\000"
 9931      6F696E74 
 9931      56616C00 
ARM GAS  C:\Users\Dell\AppData\Local\Temp\ccFHrQg5.s 			page 247


 9932              	.LASF27:
 9933 0582 64697370 		.ascii	"display_DmaDisable\000"
 9933      6C61795F 
 9933      446D6144 
 9933      69736162 
 9933      6C6500
 9934              	.LASF11:
 9935 0595 75696E74 		.ascii	"uint32\000"
 9935      333200
 9936              	.LASF46:
 9937 059c 64697370 		.ascii	"display_dmaInitDone\000"
 9937      6C61795F 
 9937      646D6149 
 9937      6E697444 
 9937      6F6E6500 
 9938              	.LASF49:
 9939 05b0 64697370 		.ascii	"display_PutDecimalPoint\000"
 9939      6C61795F 
 9939      50757444 
 9939      6563696D 
 9939      616C506F 
 9940              	.LASF79:
 9941 05c8 64697370 		.ascii	"display_PutChar7Seg\000"
 9941      6C61795F 
 9941      50757443 
 9941      68617237 
 9941      53656700 
 9942              	.LASF121:
 9943 05dc 64697370 		.ascii	"display_enableVar\000"
 9943      6C61795F 
 9943      656E6162 
 9943      6C655661 
 9943      7200
 9944              	.LASF118:
 9945 05ee 64697370 		.ascii	"display_dmaBCChannel\000"
 9945      6C61795F 
 9945      646D6142 
 9945      43436861 
 9945      6E6E656C 
 9946              	.LASF74:
 9947 0603 64697370 		.ascii	"display_Write7SegNumberDec\000"
 9947      6C61795F 
 9947      57726974 
 9947      65375365 
 9947      674E756D 
 9948              	.LASF132:
 9949 061e 64697370 		.ascii	"display_Com_Driver_Write\000"
 9949      6C61795F 
 9949      436F6D5F 
 9949      44726976 
 9949      65725F57 
 9950              	.LASF19:
 9951 0637 6C6F6E67 		.ascii	"long double\000"
 9951      20646F75 
 9951      626C6500 
 9952              	.LASF28:
 9953 0643 6368616E 		.ascii	"channel\000"
ARM GAS  C:\Users\Dell\AppData\Local\Temp\ccFHrQg5.s 			page 248


 9953      6E656C00 
 9954              	.LASF117:
 9955 064b 64697370 		.ascii	"display_dmaSegLTd\000"
 9955      6C61795F 
 9955      646D6153 
 9955      65674C54 
 9955      6400
 9956              	.LASF26:
 9957 065d 64697370 		.ascii	"display_DmaEnable\000"
 9957      6C61795F 
 9957      446D6145 
 9957      6E61626C 
 9957      6500
 9958              	.LASF61:
 9959 066f 63686F69 		.ascii	"choiceReg\000"
 9959      63655265 
 9959      6700
 9960              	.LASF125:
 9961 0679 4379446D 		.ascii	"CyDmaTdSetConfiguration\000"
 9961      61546453 
 9961      6574436F 
 9961      6E666967 
 9961      75726174 
 9962              	.LASF2:
 9963 0691 73686F72 		.ascii	"short int\000"
 9963      7420696E 
 9963      7400
 9964              	.LASF40:
 9965 069b 64697370 		.ascii	"display_ToggleRC\000"
 9965      6C61795F 
 9965      546F6767 
 9965      6C655243 
 9965      00
 9966              	.LASF4:
 9967 06ac 6C6F6E67 		.ascii	"long int\000"
 9967      20696E74 
 9967      00
 9968              	.LASF78:
 9969 06b5 73697A65 		.ascii	"sizeLimit\000"
 9969      4C696D69 
 9969      7400
 9970              	.LASF101:
 9971 06bf 64697370 		.ascii	"display_Write16SegDigitHex\000"
 9971      6C61795F 
 9971      57726974 
 9971      65313653 
 9971      65674469 
 9972              	.LASF130:
 9973 06da 4379446D 		.ascii	"CyDmaChEnable\000"
 9973      61436845 
 9973      6E61626C 
 9973      6500
 9974              	.LASF122:
 9975 06e8 64697370 		.ascii	"display_segLBuffer\000"
 9975      6C61795F 
 9975      7365674C 
 9975      42756666 
ARM GAS  C:\Users\Dell\AppData\Local\Temp\ccFHrQg5.s 			page 249


 9975      657200
 9976              	.LASF45:
 9977 06fb 64697370 		.ascii	"display_Init\000"
 9977      6C61795F 
 9977      496E6974 
 9977      00
 9978              	.LASF25:
 9979 0708 64697370 		.ascii	"display_DmaInit\000"
 9979      6C61795F 
 9979      446D6149 
 9979      6E697400 
 9980              	.LASF21:
 9981 0718 61637469 		.ascii	"action\000"
 9981      6F6E00
 9982              	.LASF36:
 9983 071f 636F6C75 		.ascii	"column\000"
 9983      6D6E00
 9984              	.LASF112:
 9985 0726 64697370 		.ascii	"display_comBuffer\000"
 9985      6C61795F 
 9985      636F6D42 
 9985      75666665 
 9985      7200
 9986              	.LASF57:
 9987 0738 76616C48 		.ascii	"valHex\000"
 9987      657800
 9988              	.LASF128:
 9989 073f 64697370 		.ascii	"display_DMA_BC_DmaInitialize\000"
 9989      6C61795F 
 9989      444D415F 
 9989      42435F44 
 9989      6D61496E 
 9990              	.LASF54:
 9991 075c 6E756D62 		.ascii	"number\000"
 9991      657200
 9992              	.LASF95:
 9993 0763 64697370 		.ascii	"display_PutChar14Seg\000"
 9993      6C61795F 
 9993      50757443 
 9993      68617231 
 9993      34536567 
 9994              	.LASF108:
 9995 0778 64697370 		.ascii	"display_SetBrightness\000"
 9995      6C61795F 
 9995      53657442 
 9995      72696768 
 9995      746E6573 
 9996              	.LASF126:
 9997 078e 4379446D 		.ascii	"CyDmaTdSetAddress\000"
 9997      61546453 
 9997      65744164 
 9997      64726573 
 9997      7300
 9998              	.LASF18:
 9999 07a0 73697A65 		.ascii	"sizetype\000"
 9999      74797065 
 9999      00
ARM GAS  C:\Users\Dell\AppData\Local\Temp\ccFHrQg5.s 			page 250


 10000              	.LASF5:
 10001 07a9 6C6F6E67 		.ascii	"long unsigned int\000"
 10001      20756E73 
 10001      69676E65 
 10001      6420696E 
 10001      7400
 10002              	.LASF91:
 10003 07bb 76616C48 		.ascii	"valHexHigh\000"
 10003      65784869 
 10003      676800
 10004              	.LASF68:
 10005 07c6 64697370 		.ascii	"display_Write7SegDigitHex\000"
 10005      6C61795F 
 10005      57726974 
 10005      65375365 
 10005      67446967 
 10006              	.LASF31:
 10007 07e0 64697370 		.ascii	"display_SetDisplayRAM\000"
 10007      6C61795F 
 10007      53657444 
 10007      6973706C 
 10007      61795241 
 10008              	.LASF1:
 10009 07f6 756E7369 		.ascii	"unsigned char\000"
 10009      676E6564 
 10009      20636861 
 10009      7200
 10010              	.LASF111:
 10011 0804 64697370 		.ascii	"display_GetBrightness\000"
 10011      6C61795F 
 10011      47657442 
 10011      72696768 
 10011      746E6573 
 10012              	.LASF76:
 10013 081a 64697370 		.ascii	"display_WriteString7Seg\000"
 10013      6C61795F 
 10013      57726974 
 10013      65537472 
 10013      696E6737 
 10014              	.LASF55:
 10015 0832 64697370 		.ascii	"display_7SegDigits\000"
 10015      6C61795F 
 10015      37536567 
 10015      44696769 
 10015      747300
 10016              	.LASF24:
 10017 0845 646D6163 		.ascii	"dmac_ch\000"
 10017      5F636800 
 10018              	.LASF85:
 10019 084d 63686172 		.ascii	"charDisplay\000"
 10019      44697370 
 10019      6C617900 
 10020              	.LASF120:
 10021 0859 64697370 		.ascii	"display_initVar\000"
 10021      6C61795F 
 10021      696E6974 
 10021      56617200 
ARM GAS  C:\Users\Dell\AppData\Local\Temp\ccFHrQg5.s 			page 251


 10022              	.LASF75:
 10023 0869 6E756D62 		.ascii	"numberSign\000"
 10023      65725369 
 10023      676E00
 10024              	.LASF64:
 10025 0874 62756641 		.ascii	"bufArray\000"
 10025      72726179 
 10025      00
 10026              	.LASF0:
 10027 087d 7369676E 		.ascii	"signed char\000"
 10027      65642063 
 10027      68617200 
 10028              	.LASF138:
 10029 0889 646D6163 		.ascii	"dmac_ch_struct\000"
 10029      5F63685F 
 10029      73747275 
 10029      637400
 10030              	.LASF129:
 10031 0898 4379446D 		.ascii	"CyDmaChSetInitialTd\000"
 10031      61436853 
 10031      6574496E 
 10031      69746961 
 10031      6C546400 
 10032              	.LASF3:
 10033 08ac 73686F72 		.ascii	"short unsigned int\000"
 10033      7420756E 
 10033      7369676E 
 10033      65642069 
 10033      6E7400
 10034              	.LASF107:
 10035 08bf 64697370 		.ascii	"display_PutChar16Seg\000"
 10035      6C61795F 
 10035      50757443 
 10035      68617231 
 10035      36536567 
 10036              	.LASF23:
 10037 08d4 72657365 		.ascii	"reserved\000"
 10037      72766564 
 10037      00
 10038              	.LASF98:
 10039 08dd 64697370 		.ascii	"display_16SegDigitsHigh\000"
 10039      6C61795F 
 10039      31365365 
 10039      67446967 
 10039      69747348 
 10040              	.LASF9:
 10041 08f5 75696E74 		.ascii	"uint8\000"
 10041      3800
 10042              	.LASF14:
 10043 08fb 646F7562 		.ascii	"double\000"
 10043      6C6500
 10044              	.LASF60:
 10045 0902 616C6967 		.ascii	"alignment\000"
 10045      6E6D656E 
 10045      7400
 10046              	.LASF93:
 10047 090c 64697370 		.ascii	"display_WriteString14Seg\000"
ARM GAS  C:\Users\Dell\AppData\Local\Temp\ccFHrQg5.s 			page 252


 10047      6C61795F 
 10047      57726974 
 10047      65537472 
 10047      696E6731 
 10048              	.LASF116:
 10049 0925 64697370 		.ascii	"display_dmaSegChannel\000"
 10049      6C61795F 
 10049      646D6153 
 10049      65674368 
 10049      616E6E65 
 10050              	.LASF58:
 10051 093b 64697370 		.ascii	"display_Write7SegNumberHex\000"
 10051      6C61795F 
 10051      57726974 
 10051      65375365 
 10051      674E756D 
 10052              	.LASF63:
 10053 0956 7A65726F 		.ascii	"zeroCount\000"
 10053      436F756E 
 10053      7400
 10054              	.LASF80:
 10055 0960 64697370 		.ascii	"display_EncodeNumber14Seg\000"
 10055      6C61795F 
 10055      456E636F 
 10055      64654E75 
 10055      6D626572 
 10056              	.LASF72:
 10057 097a 76616C4C 		.ascii	"valLow\000"
 10057      6F7700
 10058              	.LASF33:
 10059 0981 706F7369 		.ascii	"position\000"
 10059      74696F6E 
 10059      00
 10060              	.LASF38:
 10061 098a 64697370 		.ascii	"display_ClearRC\000"
 10061      6C61795F 
 10061      436C6561 
 10061      72524300 
 10062              	.LASF34:
 10063 099a 72656C50 		.ascii	"relPosition\000"
 10063      6F736974 
 10063      696F6E00 
 10064              		.ident	"GCC: (GNU Tools for ARM Embedded Processors) 5.4.1 20160609 (release) [ARM/embedded-5-bran
