ARM GAS  C:\Users\NICOLA~1\AppData\Local\Temp\cc0oD2Zd.s 			page 1


   1              		.syntax unified
   2              		.cpu cortex-m3
   3              		.fpu softvfp
   4              		.eabi_attribute 20, 1
   5              		.eabi_attribute 21, 1
   6              		.eabi_attribute 23, 3
   7              		.eabi_attribute 24, 1
   8              		.eabi_attribute 25, 1
   9              		.eabi_attribute 26, 1
  10              		.eabi_attribute 30, 1
  11              		.eabi_attribute 34, 1
  12              		.eabi_attribute 18, 4
  13              		.thumb
  14              		.syntax unified
  15              		.file	"main.c"
  16              		.text
  17              	.Ltext0:
  18              		.cfi_sections	.debug_frame
  19              		.section	.text.visualLCD,"ax",%progbits
  20              		.align	2
  21              		.global	visualLCD
  22              		.thumb
  23              		.thumb_func
  24              		.type	visualLCD, %function
  25              	visualLCD:
  26              	.LFB63:
  27              		.file 1 "main.c"
   1:main.c        **** /* ========================================
   2:main.c        ****  *
   3:main.c        ****  * Copyright YOUR COMPANY, THE YEAR
   4:main.c        ****  * All Rights Reserved
   5:main.c        ****  * UNPUBLISHED, LICENSED SOFTWARE.
   6:main.c        ****  *
   7:main.c        ****  * CONFIDENTIAL AND PROPRIETARY INFORMATION
   8:main.c        ****  * WHICH IS THE PROPERTY OF your company.
   9:main.c        ****  *
  10:main.c        ****  * ========================================
  11:main.c        **** */
  12:main.c        **** #include "project.h"
  13:main.c        **** volatile uint8 seg;
  14:main.c        **** volatile uint8 u_min;
  15:main.c        **** volatile uint8 d_min;
  16:main.c        **** volatile uint8 u_hora;
  17:main.c        **** volatile uint8 d_hora;
  18:main.c        **** 
  19:main.c        **** uint16 count;
  20:main.c        **** uint8 de=1;
  21:main.c        **** uint8 aux=0;
  22:main.c        **** uint8 Inferior[]={12,9,11,10,9,10,0,9,0,9};
  23:main.c        **** uint8 Superior[]={8,7,6,6,4,5,5,6,8,8};
  24:main.c        **** //                0     1    2   3     4   5    6    7     8*    9*   10   11   12
  25:main.c        **** uint16 PasosS[]={5700,5380,5140,4810,4500,4200,4000,3990,3260,2800,2400,2070,1740};
  26:main.c        **** 
  27:main.c        **** void visualLCD(){
  28              		.loc 1 27 0
  29              		.cfi_startproc
  30              		@ args = 0, pretend = 0, frame = 0
ARM GAS  C:\Users\NICOLA~1\AppData\Local\Temp\cc0oD2Zd.s 			page 2


  31              		@ frame_needed = 0, uses_anonymous_args = 0
  32 0000 38B5     		push	{r3, r4, r5, lr}
  33              		.cfi_def_cfa_offset 16
  34              		.cfi_offset 3, -16
  35              		.cfi_offset 4, -12
  36              		.cfi_offset 5, -8
  37              		.cfi_offset 14, -4
  28:main.c        **** 
  29:main.c        ****      LCD_Position(0,0);
  38              		.loc 1 29 0
  39 0002 0021     		movs	r1, #0
  40 0004 0846     		mov	r0, r1
  41 0006 FFF7FEFF 		bl	LCD_Position
  42              	.LVL0:
  30:main.c        ****      LCD_PrintString("             ");//Se Borra
  43              		.loc 1 30 0
  44 000a 1A48     		ldr	r0, .L3
  45 000c FFF7FEFF 		bl	LCD_PrintString
  46              	.LVL1:
  31:main.c        ****      LCD_Position(0,0);
  47              		.loc 1 31 0
  48 0010 0021     		movs	r1, #0
  49 0012 0846     		mov	r0, r1
  50 0014 FFF7FEFF 		bl	LCD_Position
  51              	.LVL2:
  32:main.c        ****      LCD_PrintNumber(d_hora);
  52              		.loc 1 32 0
  53 0018 174B     		ldr	r3, .L3+4
  54 001a 1878     		ldrb	r0, [r3]	@ zero_extendqisi2
  55 001c FFF7FEFF 		bl	LCD_PrintU32Number
  56              	.LVL3:
  33:main.c        ****      LCD_PrintNumber(u_hora);
  57              		.loc 1 33 0
  58 0020 164B     		ldr	r3, .L3+8
  59 0022 1878     		ldrb	r0, [r3]	@ zero_extendqisi2
  60 0024 FFF7FEFF 		bl	LCD_PrintU32Number
  61              	.LVL4:
  34:main.c        ****      LCD_PrintString(":");
  62              		.loc 1 34 0
  63 0028 154C     		ldr	r4, .L3+12
  64 002a 2046     		mov	r0, r4
  65 002c FFF7FEFF 		bl	LCD_PrintString
  66              	.LVL5:
  35:main.c        ****      LCD_PrintNumber(d_min);
  67              		.loc 1 35 0
  68 0030 144B     		ldr	r3, .L3+16
  69 0032 1878     		ldrb	r0, [r3]	@ zero_extendqisi2
  70 0034 FFF7FEFF 		bl	LCD_PrintU32Number
  71              	.LVL6:
  36:main.c        ****      LCD_PrintNumber(u_min);
  72              		.loc 1 36 0
  73 0038 134B     		ldr	r3, .L3+20
  74 003a 1878     		ldrb	r0, [r3]	@ zero_extendqisi2
  75 003c FFF7FEFF 		bl	LCD_PrintU32Number
  76              	.LVL7:
  37:main.c        ****      LCD_PrintString(":");
  77              		.loc 1 37 0
ARM GAS  C:\Users\NICOLA~1\AppData\Local\Temp\cc0oD2Zd.s 			page 3


  78 0040 2046     		mov	r0, r4
  79 0042 FFF7FEFF 		bl	LCD_PrintString
  80              	.LVL8:
  38:main.c        ****      LCD_PrintNumber(seg/10);
  81              		.loc 1 38 0
  82 0046 114D     		ldr	r5, .L3+24
  83 0048 2878     		ldrb	r0, [r5]	@ zero_extendqisi2
  84 004a C0B2     		uxtb	r0, r0
  85 004c 104C     		ldr	r4, .L3+28
  86 004e A4FB0030 		umull	r3, r0, r4, r0
  87 0052 C008     		lsrs	r0, r0, #3
  88 0054 FFF7FEFF 		bl	LCD_PrintU32Number
  89              	.LVL9:
  39:main.c        ****     LCD_PrintNumber(seg%10);
  90              		.loc 1 39 0
  91 0058 2B78     		ldrb	r3, [r5]	@ zero_extendqisi2
  92 005a DBB2     		uxtb	r3, r3
  93 005c A4FB0324 		umull	r2, r4, r4, r3
  94 0060 E408     		lsrs	r4, r4, #3
  95 0062 04EB8404 		add	r4, r4, r4, lsl #2
  96 0066 6000     		lsls	r0, r4, #1
  97 0068 181A     		subs	r0, r3, r0
  98 006a C0B2     		uxtb	r0, r0
  99 006c FFF7FEFF 		bl	LCD_PrintU32Number
 100              	.LVL10:
 101 0070 38BD     		pop	{r3, r4, r5, pc}
 102              	.L4:
 103 0072 00BF     		.align	2
 104              	.L3:
 105 0074 00000000 		.word	.LC0
 106 0078 00000000 		.word	d_hora
 107 007c 00000000 		.word	u_hora
 108 0080 10000000 		.word	.LC1
 109 0084 00000000 		.word	d_min
 110 0088 00000000 		.word	u_min
 111 008c 00000000 		.word	seg
 112 0090 CDCCCCCC 		.word	-858993459
 113              		.cfi_endproc
 114              	.LFE63:
 115              		.size	visualLCD, .-visualLCD
 116              		.section	.text.tiempo,"ax",%progbits
 117              		.align	2
 118              		.global	tiempo
 119              		.thumb
 120              		.thumb_func
 121              		.type	tiempo, %function
 122              	tiempo:
 123              	.LFB64:
  40:main.c        **** 
  41:main.c        **** }
  42:main.c        **** 
  43:main.c        **** void tiempo(uint8 aumento){
 124              		.loc 1 43 0
 125              		.cfi_startproc
 126              		@ args = 0, pretend = 0, frame = 0
 127              		@ frame_needed = 0, uses_anonymous_args = 0
 128              		@ link register save eliminated.
ARM GAS  C:\Users\NICOLA~1\AppData\Local\Temp\cc0oD2Zd.s 			page 4


 129              	.LVL11:
  44:main.c        **** seg=seg+aumento;
 130              		.loc 1 44 0
 131 0000 244A     		ldr	r2, .L8
 132 0002 1378     		ldrb	r3, [r2]	@ zero_extendqisi2
 133 0004 1844     		add	r0, r0, r3
 134              	.LVL12:
 135 0006 C0B2     		uxtb	r0, r0
 136 0008 1070     		strb	r0, [r2]
  45:main.c        ****  if(seg>=60){    
 137              		.loc 1 45 0
 138 000a 1378     		ldrb	r3, [r2]	@ zero_extendqisi2
 139 000c DBB2     		uxtb	r3, r3
 140 000e 3B2B     		cmp	r3, #59
 141 0010 3FD9     		bls	.L5
  46:main.c        **** 		seg=0;
 142              		.loc 1 46 0
 143 0012 0022     		movs	r2, #0
 144 0014 1F4B     		ldr	r3, .L8
 145 0016 1A70     		strb	r2, [r3]
  47:main.c        **** 		u_min++;
 146              		.loc 1 47 0
 147 0018 1F4A     		ldr	r2, .L8+4
 148 001a 1378     		ldrb	r3, [r2]	@ zero_extendqisi2
 149 001c 0133     		adds	r3, r3, #1
 150 001e DBB2     		uxtb	r3, r3
 151 0020 1370     		strb	r3, [r2]
  48:main.c        **** 		if(u_min == 10){
 152              		.loc 1 48 0
 153 0022 1378     		ldrb	r3, [r2]	@ zero_extendqisi2
 154 0024 DBB2     		uxtb	r3, r3
 155 0026 0A2B     		cmp	r3, #10
 156 0028 33D1     		bne	.L5
  49:main.c        **** 			u_min=0;
 157              		.loc 1 49 0
 158 002a 0022     		movs	r2, #0
 159 002c 1A4B     		ldr	r3, .L8+4
 160 002e 1A70     		strb	r2, [r3]
  50:main.c        **** 			d_min++;
 161              		.loc 1 50 0
 162 0030 1A4A     		ldr	r2, .L8+8
 163 0032 1378     		ldrb	r3, [r2]	@ zero_extendqisi2
 164 0034 0133     		adds	r3, r3, #1
 165 0036 DBB2     		uxtb	r3, r3
 166 0038 1370     		strb	r3, [r2]
  51:main.c        **** 			if(d_min==6){
 167              		.loc 1 51 0
 168 003a 1378     		ldrb	r3, [r2]	@ zero_extendqisi2
 169 003c DBB2     		uxtb	r3, r3
 170 003e 062B     		cmp	r3, #6
 171 0040 27D1     		bne	.L5
  52:main.c        **** 				d_min=0;
 172              		.loc 1 52 0
 173 0042 0022     		movs	r2, #0
 174 0044 154B     		ldr	r3, .L8+8
 175 0046 1A70     		strb	r2, [r3]
  53:main.c        **** 				u_hora++;
ARM GAS  C:\Users\NICOLA~1\AppData\Local\Temp\cc0oD2Zd.s 			page 5


 176              		.loc 1 53 0
 177 0048 154A     		ldr	r2, .L8+12
 178 004a 1378     		ldrb	r3, [r2]	@ zero_extendqisi2
 179 004c 0133     		adds	r3, r3, #1
 180 004e DBB2     		uxtb	r3, r3
 181 0050 1370     		strb	r3, [r2]
  54:main.c        **** 				if(u_hora==10){
 182              		.loc 1 54 0
 183 0052 1378     		ldrb	r3, [r2]	@ zero_extendqisi2
 184 0054 DBB2     		uxtb	r3, r3
 185 0056 0A2B     		cmp	r3, #10
 186 0058 08D1     		bne	.L7
  55:main.c        **** 					u_hora=0;
 187              		.loc 1 55 0
 188 005a 0022     		movs	r2, #0
 189 005c 104B     		ldr	r3, .L8+12
 190 005e 1A70     		strb	r2, [r3]
  56:main.c        **** 					d_hora++;
 191              		.loc 1 56 0
 192 0060 104A     		ldr	r2, .L8+16
 193 0062 1378     		ldrb	r3, [r2]	@ zero_extendqisi2
 194 0064 0133     		adds	r3, r3, #1
 195 0066 DBB2     		uxtb	r3, r3
 196 0068 1370     		strb	r3, [r2]
 197 006a 7047     		bx	lr
 198              	.L7:
  57:main.c        **** 				}else{
  58:main.c        **** 					if(u_hora==1){
 199              		.loc 1 58 0
 200 006c 0C4B     		ldr	r3, .L8+12
 201 006e 1B78     		ldrb	r3, [r3]	@ zero_extendqisi2
 202 0070 DBB2     		uxtb	r3, r3
 203 0072 012B     		cmp	r3, #1
 204 0074 0DD1     		bne	.L5
  59:main.c        **** 						if(d_hora==2){
 205              		.loc 1 59 0
 206 0076 0B4B     		ldr	r3, .L8+16
 207 0078 1B78     		ldrb	r3, [r3]	@ zero_extendqisi2
 208 007a DBB2     		uxtb	r3, r3
 209 007c 022B     		cmp	r3, #2
 210 007e 08D1     		bne	.L5
  60:main.c        **** 						    //Reinicia Reloj
  61:main.c        ****                             u_hora=0;
 211              		.loc 1 61 0
 212 0080 0023     		movs	r3, #0
 213 0082 074A     		ldr	r2, .L8+12
 214 0084 1370     		strb	r3, [r2]
  62:main.c        **** 							d_hora=0;
 215              		.loc 1 62 0
 216 0086 074A     		ldr	r2, .L8+16
 217 0088 1370     		strb	r3, [r2]
  63:main.c        ****                             u_min=0;
 218              		.loc 1 63 0
 219 008a 034A     		ldr	r2, .L8+4
 220 008c 1370     		strb	r3, [r2]
  64:main.c        ****                             d_min=0;
 221              		.loc 1 64 0
ARM GAS  C:\Users\NICOLA~1\AppData\Local\Temp\cc0oD2Zd.s 			page 6


 222 008e 034A     		ldr	r2, .L8+8
 223 0090 1370     		strb	r3, [r2]
 224              	.L5:
 225 0092 7047     		bx	lr
 226              	.L9:
 227              		.align	2
 228              	.L8:
 229 0094 00000000 		.word	seg
 230 0098 00000000 		.word	u_min
 231 009c 00000000 		.word	d_min
 232 00a0 00000000 		.word	u_hora
 233 00a4 00000000 		.word	d_hora
 234              		.cfi_endproc
 235              	.LFE64:
 236              		.size	tiempo, .-tiempo
 237              		.section	.text.INT_SE,"ax",%progbits
 238              		.align	2
 239              		.global	INT_SE
 240              		.thumb
 241              		.thumb_func
 242              		.type	INT_SE, %function
 243              	INT_SE:
 244              	.LFB66:
  65:main.c        **** 						}
  66:main.c        **** 					}
  67:main.c        **** 				}
  68:main.c        **** 			}
  69:main.c        **** 		}
  70:main.c        **** 	}
  71:main.c        **** 
  72:main.c        **** }
  73:main.c        **** 
  74:main.c        **** 
  75:main.c        **** 
  76:main.c        **** 
  77:main.c        **** 
  78:main.c        **** void Numero(uint8 numero)
  79:main.c        **** {
  80:main.c        ****     
  81:main.c        ****     for(uint16 i=3200;i<=5700;i=i+300){
  82:main.c        ****     PWM_WriteCompare1(i);
  83:main.c        ****     CyDelay(200);
  84:main.c        ****     }
  85:main.c        ****      for(uint8 i=1;i<=Inferior[numero];i++){
  86:main.c        ****      PWM_WriteCompare1(5700-330*i);
  87:main.c        ****      CyDelay(200);
  88:main.c        ****     }
  89:main.c        ****     
  90:main.c        ****     if(Inferior[numero]<Superior[numero]){
  91:main.c        ****         for(uint8 i=0;i<=Superior[numero];i++){ 
  92:main.c        ****         PWM_WriteCompare1(PasosS[i]);
  93:main.c        ****         CyDelay(200);
  94:main.c        ****         }
  95:main.c        ****     }else{
  96:main.c        ****         for(uint8 i=Inferior[numero];i>Superior[numero];i--){
  97:main.c        ****         PWM_WriteCompare1(PasosS[i]);
  98:main.c        ****         CyDelay(200);
ARM GAS  C:\Users\NICOLA~1\AppData\Local\Temp\cc0oD2Zd.s 			page 7


  99:main.c        ****         }
 100:main.c        ****     }
 101:main.c        **** }
 102:main.c        **** 
 103:main.c        **** CY_ISR(INT_SE){
 245              		.loc 1 103 0
 246              		.cfi_startproc
 247              		@ args = 0, pretend = 0, frame = 0
 248              		@ frame_needed = 0, uses_anonymous_args = 0
 249 0000 08B5     		push	{r3, lr}
 250              		.cfi_def_cfa_offset 8
 251              		.cfi_offset 3, -8
 252              		.cfi_offset 14, -4
 104:main.c        ****       tiempo(1); // Se llama tiempo cuando se llega al limite
 253              		.loc 1 104 0
 254 0002 0120     		movs	r0, #1
 255 0004 FFF7FEFF 		bl	tiempo
 256              	.LVL13:
 105:main.c        ****       visualLCD();  
 257              		.loc 1 105 0
 258 0008 FFF7FEFF 		bl	visualLCD
 259              	.LVL14:
 260 000c 08BD     		pop	{r3, pc}
 261              		.cfi_endproc
 262              	.LFE66:
 263              		.size	INT_SE, .-INT_SE
 264 000e 00BF     		.section	.text.INT_SWI,"ax",%progbits
 265              		.align	2
 266              		.global	INT_SWI
 267              		.thumb
 268              		.thumb_func
 269              		.type	INT_SWI, %function
 270              	INT_SWI:
 271              	.LFB67:
 106:main.c        **** }
 107:main.c        ****     
 108:main.c        **** CY_ISR(INT_SWI){
 272              		.loc 1 108 0
 273              		.cfi_startproc
 274              		@ args = 0, pretend = 0, frame = 0
 275              		@ frame_needed = 0, uses_anonymous_args = 0
 276 0000 08B5     		push	{r3, lr}
 277              		.cfi_def_cfa_offset 8
 278              		.cfi_offset 3, -8
 279              		.cfi_offset 14, -4
 109:main.c        ****     CyDelay(1);
 280              		.loc 1 109 0
 281 0002 0120     		movs	r0, #1
 282 0004 FFF7FEFF 		bl	CyDelay
 283              	.LVL15:
 110:main.c        ****     switch(SWI_Read()){
 284              		.loc 1 110 0
 285 0008 FFF7FEFF 		bl	SWI_Read
 286              	.LVL16:
 287 000c 0128     		cmp	r0, #1
 288 000e 02D0     		beq	.L14
 289 0010 0228     		cmp	r0, #2
ARM GAS  C:\Users\NICOLA~1\AppData\Local\Temp\cc0oD2Zd.s 			page 8


 290 0012 1ED0     		beq	.L15
 291 0014 28E0     		b	.L13
 292              	.L14:
 111:main.c        ****     case 0b00000001:
 112:main.c        ****       if(aux==1){
 293              		.loc 1 112 0
 294 0016 164B     		ldr	r3, .L19
 295 0018 1B78     		ldrb	r3, [r3]	@ zero_extendqisi2
 296 001a 012B     		cmp	r3, #1
 297 001c 0CD1     		bne	.L16
 113:main.c        ****         LCD_Position(1,0);
 298              		.loc 1 113 0
 299 001e 0021     		movs	r1, #0
 300 0020 0120     		movs	r0, #1
 301 0022 FFF7FEFF 		bl	LCD_Position
 302              	.LVL17:
 114:main.c        ****         LCD_PrintString("Configuracion");
 303              		.loc 1 114 0
 304 0026 1348     		ldr	r0, .L19+4
 305 0028 FFF7FEFF 		bl	LCD_PrintString
 306              	.LVL18:
 115:main.c        ****         Timer_Stop();
 307              		.loc 1 115 0
 308 002c FFF7FEFF 		bl	Timer_Stop
 309              	.LVL19:
 116:main.c        ****         aux=0;
 310              		.loc 1 116 0
 311 0030 0022     		movs	r2, #0
 312 0032 0F4B     		ldr	r3, .L19
 313 0034 1A70     		strb	r2, [r3]
 314 0036 17E0     		b	.L13
 315              	.L16:
 117:main.c        ****         }else{
 118:main.c        ****         LCD_Position(1,0);
 316              		.loc 1 118 0
 317 0038 0021     		movs	r1, #0
 318 003a 0120     		movs	r0, #1
 319 003c FFF7FEFF 		bl	LCD_Position
 320              	.LVL20:
 119:main.c        ****         LCD_PrintString("             ");
 321              		.loc 1 119 0
 322 0040 0D48     		ldr	r0, .L19+8
 323 0042 FFF7FEFF 		bl	LCD_PrintString
 324              	.LVL21:
 120:main.c        ****         Timer_Start();
 325              		.loc 1 120 0
 326 0046 FFF7FEFF 		bl	Timer_Start
 327              	.LVL22:
 121:main.c        ****         aux=1;
 328              		.loc 1 121 0
 329 004a 0122     		movs	r2, #1
 330 004c 084B     		ldr	r3, .L19
 331 004e 1A70     		strb	r2, [r3]
 332 0050 0AE0     		b	.L13
 333              	.L15:
 122:main.c        ****       }
 123:main.c        ****         break;
ARM GAS  C:\Users\NICOLA~1\AppData\Local\Temp\cc0oD2Zd.s 			page 9


 124:main.c        ****     case 0b00000010:
 125:main.c        ****         if(aux==0){
 334              		.loc 1 125 0
 335 0052 074B     		ldr	r3, .L19
 336 0054 1B78     		ldrb	r3, [r3]	@ zero_extendqisi2
 337 0056 2BB9     		cbnz	r3, .L17
 126:main.c        ****         tiempo(60);
 338              		.loc 1 126 0
 339 0058 3C20     		movs	r0, #60
 340 005a FFF7FEFF 		bl	tiempo
 341              	.LVL23:
 127:main.c        ****         seg=0;//Segundos en Cero
 342              		.loc 1 127 0
 343 005e 0022     		movs	r2, #0
 344 0060 064B     		ldr	r3, .L19+12
 345 0062 1A70     		strb	r2, [r3]
 346              	.L17:
 128:main.c        ****         }
 129:main.c        ****         visualLCD();
 347              		.loc 1 129 0
 348 0064 FFF7FEFF 		bl	visualLCD
 349              	.LVL24:
 350              	.L13:
 130:main.c        ****         break;
 131:main.c        ****      default:
 132:main.c        ****         break;
 133:main.c        ****     }
 134:main.c        ****     SWI_ClearInterrupt();
 351              		.loc 1 134 0
 352 0068 FFF7FEFF 		bl	SWI_ClearInterrupt
 353              	.LVL25:
 354 006c 08BD     		pop	{r3, pc}
 355              	.L20:
 356 006e 00BF     		.align	2
 357              	.L19:
 358 0070 00000000 		.word	.LANCHOR0
 359 0074 14000000 		.word	.LC2
 360 0078 00000000 		.word	.LC0
 361 007c 00000000 		.word	seg
 362              		.cfi_endproc
 363              	.LFE67:
 364              		.size	INT_SWI, .-INT_SWI
 365              		.section	.text.Numero,"ax",%progbits
 366              		.align	2
 367              		.global	Numero
 368              		.thumb
 369              		.thumb_func
 370              		.type	Numero, %function
 371              	Numero:
 372              	.LFB65:
  79:main.c        ****     
 373              		.loc 1 79 0
 374              		.cfi_startproc
 375              		@ args = 0, pretend = 0, frame = 0
 376              		@ frame_needed = 0, uses_anonymous_args = 0
 377              	.LVL26:
 378 0000 F8B5     		push	{r3, r4, r5, r6, r7, lr}
ARM GAS  C:\Users\NICOLA~1\AppData\Local\Temp\cc0oD2Zd.s 			page 10


 379              		.cfi_def_cfa_offset 24
 380              		.cfi_offset 3, -24
 381              		.cfi_offset 4, -20
 382              		.cfi_offset 5, -16
 383              		.cfi_offset 6, -12
 384              		.cfi_offset 7, -8
 385              		.cfi_offset 14, -4
 386 0002 0546     		mov	r5, r0
 387              	.LVL27:
 388              	.LBB2:
  81:main.c        ****     PWM_WriteCompare1(i);
 389              		.loc 1 81 0
 390 0004 4FF44864 		mov	r4, #3200
 391 0008 08E0     		b	.L22
 392              	.LVL28:
 393              	.L23:
  82:main.c        ****     CyDelay(200);
 394              		.loc 1 82 0 discriminator 3
 395 000a 2046     		mov	r0, r4
 396 000c FFF7FEFF 		bl	PWM_WriteCompare1
 397              	.LVL29:
  83:main.c        ****     }
 398              		.loc 1 83 0 discriminator 3
 399 0010 C820     		movs	r0, #200
 400 0012 FFF7FEFF 		bl	CyDelay
 401              	.LVL30:
  81:main.c        ****     PWM_WriteCompare1(i);
 402              		.loc 1 81 0 discriminator 3
 403 0016 04F59674 		add	r4, r4, #300
 404              	.LVL31:
 405 001a A4B2     		uxth	r4, r4
 406              	.LVL32:
 407              	.L22:
  81:main.c        ****     PWM_WriteCompare1(i);
 408              		.loc 1 81 0 is_stmt 0 discriminator 1
 409 001c 41F24463 		movw	r3, #5700
 410 0020 9C42     		cmp	r4, r3
 411 0022 F2D9     		bls	.L23
 412 0024 0124     		movs	r4, #1
 413              	.LVL33:
 414 0026 0FE0     		b	.L24
 415              	.LVL34:
 416              	.L25:
 417              	.LBE2:
 418              	.LBB3:
  86:main.c        ****      CyDelay(200);
 419              		.loc 1 86 0 is_stmt 1 discriminator 3
 420 0028 04EB8403 		add	r3, r4, r4, lsl #2
 421 002c 03EB4313 		add	r3, r3, r3, lsl #5
 422 0030 5800     		lsls	r0, r3, #1
 423 0032 C0F5B250 		rsb	r0, r0, #5696
 424 0036 0430     		adds	r0, r0, #4
 425 0038 80B2     		uxth	r0, r0
 426 003a FFF7FEFF 		bl	PWM_WriteCompare1
 427              	.LVL35:
  87:main.c        ****     }
 428              		.loc 1 87 0 discriminator 3
ARM GAS  C:\Users\NICOLA~1\AppData\Local\Temp\cc0oD2Zd.s 			page 11


 429 003e C820     		movs	r0, #200
 430 0040 FFF7FEFF 		bl	CyDelay
 431              	.LVL36:
  85:main.c        ****      PWM_WriteCompare1(5700-330*i);
 432              		.loc 1 85 0 discriminator 3
 433 0044 0134     		adds	r4, r4, #1
 434              	.LVL37:
 435 0046 E4B2     		uxtb	r4, r4
 436              	.LVL38:
 437              	.L24:
  85:main.c        ****      PWM_WriteCompare1(5700-330*i);
 438              		.loc 1 85 0 is_stmt 0 discriminator 1
 439 0048 2F46     		mov	r7, r5
 440 004a 164B     		ldr	r3, .L33
 441 004c 5E5D     		ldrb	r6, [r3, r5]	@ zero_extendqisi2
 442 004e B442     		cmp	r4, r6
 443 0050 EAD9     		bls	.L25
 444              	.LBE3:
  90:main.c        ****         for(uint8 i=0;i<=Superior[numero];i++){ 
 445              		.loc 1 90 0 is_stmt 1
 446 0052 2B44     		add	r3, r3, r5
 447 0054 1B7B     		ldrb	r3, [r3, #12]	@ zero_extendqisi2
 448 0056 9E42     		cmp	r6, r3
 449 0058 0CD3     		bcc	.L31
 450 005a 1DE0     		b	.L27
 451              	.LVL39:
 452              	.L28:
 453              	.LBB4:
  92:main.c        ****         CyDelay(200);
 454              		.loc 1 92 0 discriminator 3
 455 005c 114B     		ldr	r3, .L33
 456 005e 03EB4403 		add	r3, r3, r4, lsl #1
 457 0062 188B     		ldrh	r0, [r3, #24]
 458 0064 FFF7FEFF 		bl	PWM_WriteCompare1
 459              	.LVL40:
  93:main.c        ****         }
 460              		.loc 1 93 0 discriminator 3
 461 0068 C820     		movs	r0, #200
 462 006a FFF7FEFF 		bl	CyDelay
 463              	.LVL41:
  91:main.c        ****         PWM_WriteCompare1(PasosS[i]);
 464              		.loc 1 91 0 discriminator 3
 465 006e 0134     		adds	r4, r4, #1
 466              	.LVL42:
 467 0070 E4B2     		uxtb	r4, r4
 468              	.LVL43:
 469 0072 00E0     		b	.L26
 470              	.LVL44:
 471              	.L31:
 472              	.LBE4:
 473 0074 0024     		movs	r4, #0
 474              	.LVL45:
 475              	.L26:
 476              	.LBB5:
  91:main.c        ****         PWM_WriteCompare1(PasosS[i]);
 477              		.loc 1 91 0 is_stmt 0 discriminator 1
 478 0076 0B4B     		ldr	r3, .L33
ARM GAS  C:\Users\NICOLA~1\AppData\Local\Temp\cc0oD2Zd.s 			page 12


 479 0078 3B44     		add	r3, r3, r7
 480 007a 1B7B     		ldrb	r3, [r3, #12]	@ zero_extendqisi2
 481 007c 9C42     		cmp	r4, r3
 482 007e EDD9     		bls	.L28
 483 0080 F8BD     		pop	{r3, r4, r5, r6, r7, pc}
 484              	.LVL46:
 485              	.L30:
 486              	.LBE5:
 487              	.LBB6:
  97:main.c        ****         CyDelay(200);
 488              		.loc 1 97 0 is_stmt 1 discriminator 3
 489 0082 084B     		ldr	r3, .L33
 490 0084 03EB4603 		add	r3, r3, r6, lsl #1
 491 0088 188B     		ldrh	r0, [r3, #24]
 492 008a FFF7FEFF 		bl	PWM_WriteCompare1
 493              	.LVL47:
  98:main.c        ****         }
 494              		.loc 1 98 0 discriminator 3
 495 008e C820     		movs	r0, #200
 496 0090 FFF7FEFF 		bl	CyDelay
 497              	.LVL48:
  96:main.c        ****         PWM_WriteCompare1(PasosS[i]);
 498              		.loc 1 96 0 discriminator 3
 499 0094 013E     		subs	r6, r6, #1
 500              	.LVL49:
 501 0096 F6B2     		uxtb	r6, r6
 502              	.LVL50:
 503              	.L27:
  96:main.c        ****         PWM_WriteCompare1(PasosS[i]);
 504              		.loc 1 96 0 is_stmt 0 discriminator 1
 505 0098 024B     		ldr	r3, .L33
 506 009a 3B44     		add	r3, r3, r7
 507 009c 1B7B     		ldrb	r3, [r3, #12]	@ zero_extendqisi2
 508 009e 9E42     		cmp	r6, r3
 509 00a0 EFD8     		bhi	.L30
 510 00a2 F8BD     		pop	{r3, r4, r5, r6, r7, pc}
 511              	.LVL51:
 512              	.L34:
 513              		.align	2
 514              	.L33:
 515 00a4 00000000 		.word	.LANCHOR1
 516              	.LBE6:
 517              		.cfi_endproc
 518              	.LFE65:
 519              		.size	Numero, .-Numero
 520              		.section	.text.main,"ax",%progbits
 521              		.align	2
 522              		.global	main
 523              		.thumb
 524              		.thumb_func
 525              		.type	main, %function
 526              	main:
 527              	.LFB68:
 135:main.c        **** }
 136:main.c        **** 
 137:main.c        **** int main(){
 528              		.loc 1 137 0 is_stmt 1
ARM GAS  C:\Users\NICOLA~1\AppData\Local\Temp\cc0oD2Zd.s 			page 13


 529              		.cfi_startproc
 530              		@ Volatile: function does not return.
 531              		@ args = 0, pretend = 0, frame = 0
 532              		@ frame_needed = 0, uses_anonymous_args = 0
 533 0000 08B5     		push	{r3, lr}
 534              		.cfi_def_cfa_offset 8
 535              		.cfi_offset 3, -8
 536              		.cfi_offset 14, -4
 138:main.c        **** 
 139:main.c        ****     
 140:main.c        ****     d_hora=0;
 537              		.loc 1 140 0
 538 0002 0022     		movs	r2, #0
 539 0004 0D4B     		ldr	r3, .L38
 540 0006 1A70     		strb	r2, [r3]
 141:main.c        ****     u_hora=2;
 541              		.loc 1 141 0
 542 0008 0222     		movs	r2, #2
 543 000a 0D4B     		ldr	r3, .L38+4
 544 000c 1A70     		strb	r2, [r3]
 142:main.c        ****     d_min=1;
 545              		.loc 1 142 0
 546 000e 0123     		movs	r3, #1
 547 0010 0C4A     		ldr	r2, .L38+8
 548 0012 1370     		strb	r3, [r2]
 143:main.c        ****     u_min=1;
 549              		.loc 1 143 0
 550 0014 0C4A     		ldr	r2, .L38+12
 551 0016 1370     		strb	r3, [r2]
 144:main.c        ****     seg=9;
 552              		.loc 1 144 0
 553 0018 0922     		movs	r2, #9
 554 001a 0C4B     		ldr	r3, .L38+16
 555 001c 1A70     		strb	r2, [r3]
 145:main.c        **** 
 146:main.c        ****     
 147:main.c        ****     
 148:main.c        ****     CyGlobalIntEnable; /* Enable global interrupts. */
 556              		.loc 1 148 0
 557              		.syntax unified
 558              	@ 148 "main.c" 1
 559 001e 62B6     		CPSIE   i
 560              	@ 0 "" 2
 149:main.c        **** 
 150:main.c        ****     /* Place your initialization/startup code here (e.g. MyInst_Start()) */
 151:main.c        ****     ISR_SWI_StartEx(INT_SWI);
 561              		.loc 1 151 0
 562              		.thumb
 563              		.syntax unified
 564 0020 0B48     		ldr	r0, .L38+20
 565 0022 FFF7FEFF 		bl	ISR_SWI_StartEx
 566              	.LVL52:
 152:main.c        ****     ISR_SE_StartEx(INT_SE);
 567              		.loc 1 152 0
 568 0026 0B48     		ldr	r0, .L38+24
 569 0028 FFF7FEFF 		bl	ISR_SE_StartEx
 570              	.LVL53:
ARM GAS  C:\Users\NICOLA~1\AppData\Local\Temp\cc0oD2Zd.s 			page 14


 153:main.c        ****     PWM_Start();
 571              		.loc 1 153 0
 572 002c FFF7FEFF 		bl	PWM_Start
 573              	.LVL54:
 154:main.c        ****     LCD_Start();
 574              		.loc 1 154 0
 575 0030 FFF7FEFF 		bl	LCD_Start
 576              	.LVL55:
 155:main.c        ****     Timer_Start();
 577              		.loc 1 155 0
 578 0034 FFF7FEFF 		bl	Timer_Start
 579              	.LVL56:
 580              	.L36:
 581 0038 FEE7     		b	.L36
 582              	.L39:
 583 003a 00BF     		.align	2
 584              	.L38:
 585 003c 00000000 		.word	d_hora
 586 0040 00000000 		.word	u_hora
 587 0044 00000000 		.word	d_min
 588 0048 00000000 		.word	u_min
 589 004c 00000000 		.word	seg
 590 0050 00000000 		.word	INT_SWI
 591 0054 00000000 		.word	INT_SE
 592              		.cfi_endproc
 593              	.LFE68:
 594              		.size	main, .-main
 595              		.global	PasosS
 596              		.global	Superior
 597              		.global	Inferior
 598              		.global	aux
 599              		.global	de
 600              		.comm	count,2,2
 601              		.comm	d_hora,1,1
 602              		.comm	u_hora,1,1
 603              		.comm	d_min,1,1
 604              		.comm	u_min,1,1
 605              		.comm	seg,1,1
 606              		.data
 607              		.align	2
 608              		.set	.LANCHOR1,. + 0
 609              		.type	Inferior, %object
 610              		.size	Inferior, 10
 611              	Inferior:
 612 0000 0C       		.byte	12
 613 0001 09       		.byte	9
 614 0002 0B       		.byte	11
 615 0003 0A       		.byte	10
 616 0004 09       		.byte	9
 617 0005 0A       		.byte	10
 618 0006 00       		.byte	0
 619 0007 09       		.byte	9
 620 0008 00       		.byte	0
 621 0009 09       		.byte	9
 622 000a 0000     		.space	2
 623              		.type	Superior, %object
 624              		.size	Superior, 10
ARM GAS  C:\Users\NICOLA~1\AppData\Local\Temp\cc0oD2Zd.s 			page 15


 625              	Superior:
 626 000c 08       		.byte	8
 627 000d 07       		.byte	7
 628 000e 06       		.byte	6
 629 000f 06       		.byte	6
 630 0010 04       		.byte	4
 631 0011 05       		.byte	5
 632 0012 05       		.byte	5
 633 0013 06       		.byte	6
 634 0014 08       		.byte	8
 635 0015 08       		.byte	8
 636 0016 0000     		.space	2
 637              		.type	PasosS, %object
 638              		.size	PasosS, 26
 639              	PasosS:
 640 0018 4416     		.short	5700
 641 001a 0415     		.short	5380
 642 001c 1414     		.short	5140
 643 001e CA12     		.short	4810
 644 0020 9411     		.short	4500
 645 0022 6810     		.short	4200
 646 0024 A00F     		.short	4000
 647 0026 960F     		.short	3990
 648 0028 BC0C     		.short	3260
 649 002a F00A     		.short	2800
 650 002c 6009     		.short	2400
 651 002e 1608     		.short	2070
 652 0030 CC06     		.short	1740
 653              		.type	de, %object
 654              		.size	de, 1
 655              	de:
 656 0032 01       		.byte	1
 657              		.section	.rodata.str1.4,"aMS",%progbits,1
 658              		.align	2
 659              	.LC0:
 660 0000 20202020 		.ascii	"             \000"
 660      20202020 
 660      20202020 
 660      2000
 661 000e 0000     		.space	2
 662              	.LC1:
 663 0010 3A00     		.ascii	":\000"
 664 0012 0000     		.space	2
 665              	.LC2:
 666 0014 436F6E66 		.ascii	"Configuracion\000"
 666      69677572 
 666      6163696F 
 666      6E00
 667              		.bss
 668              		.set	.LANCHOR0,. + 0
 669              		.type	aux, %object
 670              		.size	aux, 1
 671              	aux:
 672 0000 00       		.space	1
 673              		.text
 674              	.Letext0:
 675              		.file 2 "c:\\program files (x86)\\cypress\\psoc creator\\4.2\\psoc creator\\import\\gnu\\arm\\5.4.
ARM GAS  C:\Users\NICOLA~1\AppData\Local\Temp\cc0oD2Zd.s 			page 16


 676              		.file 3 "c:\\program files (x86)\\cypress\\psoc creator\\4.2\\psoc creator\\import\\gnu\\arm\\5.4.
 677              		.file 4 "Generated_Source\\PSoC5/cytypes.h"
 678              		.file 5 "Generated_Source\\PSoC5/core_cm3.h"
 679              		.file 6 "Generated_Source\\PSoC5/LCD.h"
 680              		.file 7 "Generated_Source\\PSoC5/CyLib.h"
 681              		.file 8 "Generated_Source\\PSoC5/SWI.h"
 682              		.file 9 "Generated_Source\\PSoC5/Timer.h"
 683              		.file 10 "Generated_Source\\PSoC5/PWM.h"
 684              		.file 11 "Generated_Source\\PSoC5/ISR_SWI.h"
 685              		.file 12 "Generated_Source\\PSoC5/ISR_SE.h"