ARM GAS  C:\Users\NICOLA~1\AppData\Local\Temp\ccaOqkwZ.s 			page 1


   1              		.syntax unified
   2              		.cpu cortex-m3
   3              		.fpu softvfp
   4              		.eabi_attribute 20, 1
   5              		.eabi_attribute 21, 1
   6              		.eabi_attribute 23, 3
   7              		.eabi_attribute 24, 1
   8              		.eabi_attribute 25, 1
   9              		.eabi_attribute 26, 1
  10              		.eabi_attribute 30, 1
  11              		.eabi_attribute 34, 1
  12              		.eabi_attribute 18, 4
  13              		.thumb
  14              		.syntax unified
  15              		.file	"main.c"
  16              		.text
  17              	.Ltext0:
  18              		.cfi_sections	.debug_frame
  19              		.section	.text.main,"ax",%progbits
  20              		.align	2
  21              		.global	main
  22              		.thumb
  23              		.thumb_func
  24              		.type	main, %function
  25              	main:
  26              	.LFB63:
  27              		.file 1 "main.c"
   1:main.c        **** /* ========================================
   2:main.c        ****  *
   3:main.c        ****  * Copyright YOUR COMPANY, THE YEAR
   4:main.c        ****  * All Rights Reserved
   5:main.c        ****  * UNPUBLISHED, LICENSED SOFTWARE.
   6:main.c        ****  *
   7:main.c        ****  * CONFIDENTIAL AND PROPRIETARY INFORMATION
   8:main.c        ****  * WHICH IS THE PROPERTY OF your company.
   9:main.c        ****  *
  10:main.c        ****  * ========================================
  11:main.c        **** */
  12:main.c        **** #include "project.h"
  13:main.c        **** #define SlaveAddress  0x60
  14:main.c        **** 
  15:main.c        **** uint8 result;
  16:main.c        **** uint8 Tabla[4];
  17:main.c        **** uint16 angulo;
  18:main.c        **** 
  19:main.c        **** int main(void)
  20:main.c        **** {
  28              		.loc 1 20 0
  29              		.cfi_startproc
  30              		@ args = 0, pretend = 0, frame = 0
  31              		@ frame_needed = 0, uses_anonymous_args = 0
  32 0000 38B5     		push	{r3, r4, r5, lr}
  33              		.cfi_def_cfa_offset 16
  34              		.cfi_offset 3, -16
  35              		.cfi_offset 4, -12
  36              		.cfi_offset 5, -8
  37              		.cfi_offset 14, -4
ARM GAS  C:\Users\NICOLA~1\AppData\Local\Temp\ccaOqkwZ.s 			page 2


  21:main.c        ****     CyGlobalIntEnable; /* Enable global interrupts. */
  38              		.loc 1 21 0
  39              		.syntax unified
  40              	@ 21 "main.c" 1
  41 0002 62B6     		CPSIE   i
  42              	@ 0 "" 2
  22:main.c        **** 
  23:main.c        ****     /* Place your initialization/startup code here (e.g. MyInst_Start()) */
  24:main.c        ****     LCD_Start();
  43              		.loc 1 24 0
  44              		.thumb
  45              		.syntax unified
  46 0004 FFF7FEFF 		bl	LCD_Start
  47              	.LVL0:
  25:main.c        ****     I2C_Start();
  48              		.loc 1 25 0
  49 0008 FFF7FEFF 		bl	I2C_Start
  50              	.LVL1:
  26:main.c        ****         LCD_Position(0,2);
  51              		.loc 1 26 0
  52 000c 0221     		movs	r1, #2
  53 000e 0020     		movs	r0, #0
  54 0010 FFF7FEFF 		bl	LCD_Position
  55              	.LVL2:
  27:main.c        ****         LCD_ClearDisplay();
  56              		.loc 1 27 0
  57 0014 0120     		movs	r0, #1
  58 0016 FFF7FEFF 		bl	LCD_WriteControl
  59              	.LVL3:
  28:main.c        ****         LCD_PrintString("resultado:");
  60              		.loc 1 28 0
  61 001a 2348     		ldr	r0, .L7
  62 001c FFF7FEFF 		bl	LCD_PrintString
  63              	.LVL4:
  64              	.L2:
  29:main.c        ****         
  30:main.c        ****     for(;;)
  31:main.c        ****     {
  32:main.c        ****         /* Place your application code here. */
  33:main.c        **** 
  34:main.c        ****         do
  35:main.c        ****         {
  36:main.c        ****             result=I2C_MasterSendRestart(SlaveAddress,I2C_WRITE_XFER_MODE);//es un cero
  65              		.loc 1 36 0 discriminator 1
  66 0020 0021     		movs	r1, #0
  67 0022 6020     		movs	r0, #96
  68 0024 FFF7FEFF 		bl	I2C_MasterSendRestart
  69              	.LVL5:
  70 0028 204B     		ldr	r3, .L7+4
  71 002a 1870     		strb	r0, [r3]
  37:main.c        ****             
  38:main.c        ****         }
  39:main.c        ****         while(result!=I2C_MSTR_NO_ERROR);
  72              		.loc 1 39 0 discriminator 1
  73 002c 0028     		cmp	r0, #0
  74 002e F7D1     		bne	.L2
  40:main.c        ****         
ARM GAS  C:\Users\NICOLA~1\AppData\Local\Temp\ccaOqkwZ.s 			page 3


  41:main.c        ****         I2C_MasterWriteByte(0x02);//Direccion de memoria inicial
  75              		.loc 1 41 0
  76 0030 0220     		movs	r0, #2
  77 0032 FFF7FEFF 		bl	I2C_MasterWriteByte
  78              	.LVL6:
  42:main.c        ****         I2C_MasterSendRestart(SlaveAddress,I2C_READ_XFER_MODE);
  79              		.loc 1 42 0
  80 0036 0121     		movs	r1, #1
  81 0038 6020     		movs	r0, #96
  82 003a FFF7FEFF 		bl	I2C_MasterSendRestart
  83              	.LVL7:
  84              	.LBB2:
  43:main.c        ****         for(uint8 i=0;i<3;i++){
  85              		.loc 1 43 0
  86 003e 0024     		movs	r4, #0
  87 0040 06E0     		b	.L3
  88              	.LVL8:
  89              	.L4:
  44:main.c        ****         
  45:main.c        ****         Tabla[i]=I2C_MasterReadByte(I2C_ACK_DATA);
  90              		.loc 1 45 0 discriminator 3
  91 0042 0120     		movs	r0, #1
  92 0044 FFF7FEFF 		bl	I2C_MasterReadByte
  93              	.LVL9:
  94 0048 194B     		ldr	r3, .L7+8
  95 004a 1855     		strb	r0, [r3, r4]
  43:main.c        ****         for(uint8 i=0;i<3;i++){
  96              		.loc 1 43 0 discriminator 3
  97 004c 0134     		adds	r4, r4, #1
  98              	.LVL10:
  99 004e E4B2     		uxtb	r4, r4
 100              	.LVL11:
 101              	.L3:
  43:main.c        ****         for(uint8 i=0;i<3;i++){
 102              		.loc 1 43 0 is_stmt 0 discriminator 1
 103 0050 022C     		cmp	r4, #2
 104 0052 F6D9     		bls	.L4
 105              	.LBE2:
  46:main.c        ****         
  47:main.c        ****         }
  48:main.c        ****         
  49:main.c        ****         Tabla[3]=I2C_MasterReadByte(I2C_NAK_DATA);
 106              		.loc 1 49 0 is_stmt 1
 107 0054 0020     		movs	r0, #0
 108 0056 FFF7FEFF 		bl	I2C_MasterReadByte
 109              	.LVL12:
 110 005a 154C     		ldr	r4, .L7+8
 111              	.LVL13:
 112 005c E070     		strb	r0, [r4, #3]
  50:main.c        ****         I2C_MasterSendStop();
 113              		.loc 1 50 0
 114 005e FFF7FEFF 		bl	I2C_MasterSendStop
 115              	.LVL14:
  51:main.c        ****         angulo=(uint16)Tabla[0];
 116              		.loc 1 51 0
 117 0062 2278     		ldrb	r2, [r4]	@ zero_extendqisi2
 118 0064 134D     		ldr	r5, .L7+12
ARM GAS  C:\Users\NICOLA~1\AppData\Local\Temp\ccaOqkwZ.s 			page 4


  52:main.c        ****         angulo=angulo<<8;
  53:main.c        ****         angulo=angulo|Tabla[1];
 119              		.loc 1 53 0
 120 0066 6378     		ldrb	r3, [r4, #1]	@ zero_extendqisi2
 121 0068 43EA0223 		orr	r3, r3, r2, lsl #8
 122 006c 2B80     		strh	r3, [r5]	@ movhi
  54:main.c        ****         LCD_Position(1,1);
 123              		.loc 1 54 0
 124 006e 0121     		movs	r1, #1
 125 0070 0846     		mov	r0, r1
 126 0072 FFF7FEFF 		bl	LCD_Position
 127              	.LVL15:
  55:main.c        ****         LCD_PrintDecUint16(angulo);
 128              		.loc 1 55 0
 129 0076 2888     		ldrh	r0, [r5]
 130 0078 FFF7FEFF 		bl	LCD_PrintU32Number
 131              	.LVL16:
  56:main.c        ****         LCD_Position(1,0);
 132              		.loc 1 56 0
 133 007c 0021     		movs	r1, #0
 134 007e 0120     		movs	r0, #1
 135 0080 FFF7FEFF 		bl	LCD_Position
 136              	.LVL17:
  57:main.c        ****         LCD_PrintDecUint16(angulo);
 137              		.loc 1 57 0
 138 0084 2888     		ldrh	r0, [r5]
 139 0086 FFF7FEFF 		bl	LCD_PrintU32Number
 140              	.LVL18:
  58:main.c        ****         LCD_Position(1,3);
 141              		.loc 1 58 0
 142 008a 0321     		movs	r1, #3
 143 008c 0120     		movs	r0, #1
 144 008e FFF7FEFF 		bl	LCD_Position
 145              	.LVL19:
  59:main.c        ****         LCD_PutChar('.');
 146              		.loc 1 59 0
 147 0092 2E20     		movs	r0, #46
 148 0094 FFF7FEFF 		bl	LCD_PutChar
 149              	.LVL20:
  60:main.c        ****         
  61:main.c        ****         LCD_PrintNumber(Tabla[2]);
 150              		.loc 1 61 0
 151 0098 A078     		ldrb	r0, [r4, #2]	@ zero_extendqisi2
 152 009a FFF7FEFF 		bl	LCD_PrintU32Number
 153              	.LVL21:
  62:main.c        ****         /*
  63:main.c        ****         I2C_MasterWriteByte(0x1);//direccion de memoria
  64:main.c        ****         I2C_MasterSendRestart(SlaveAddress,I2C_READ_XFER_MODE);
  65:main.c        ****         result=I2C_MasterReadByte(I2C_NAK_DATA);
  66:main.c        ****         I2C_MasterSendStop();
  67:main.c        ****         
  68:main.c        ****         
  69:main.c        ****         LCD_PrintString("resultado:");
  70:main.c        ****         LCD_Position(1,2);
  71:main.c        ****         LCD_PrintNumber(result);*/
  72:main.c        ****         CyDelay(1000);
 154              		.loc 1 72 0
ARM GAS  C:\Users\NICOLA~1\AppData\Local\Temp\ccaOqkwZ.s 			page 5


 155 009e 4FF47A70 		mov	r0, #1000
 156 00a2 FFF7FEFF 		bl	CyDelay
 157              	.LVL22:
  73:main.c        ****        
  74:main.c        ****     }
 158              		.loc 1 74 0
 159 00a6 BBE7     		b	.L2
 160              	.L8:
 161              		.align	2
 162              	.L7:
 163 00a8 00000000 		.word	.LC0
 164 00ac 00000000 		.word	result
 165 00b0 00000000 		.word	Tabla
 166 00b4 00000000 		.word	angulo
 167              		.cfi_endproc
 168              	.LFE63:
 169              		.size	main, .-main
 170              		.comm	angulo,2,2
 171              		.comm	Tabla,4,4
 172              		.comm	result,1,1
 173              		.section	.rodata.str1.4,"aMS",%progbits,1
 174              		.align	2
 175              	.LC0:
 176 0000 72657375 		.ascii	"resultado:\000"
 176      6C746164 
 176      6F3A00
 177              		.text
 178              	.Letext0:
 179              		.file 2 "c:\\program files (x86)\\cypress\\psoc creator\\4.2\\psoc creator\\import\\gnu\\arm\\5.4.
 180              		.file 3 "c:\\program files (x86)\\cypress\\psoc creator\\4.2\\psoc creator\\import\\gnu\\arm\\5.4.
 181              		.file 4 "Generated_Source\\PSoC5/cytypes.h"
 182              		.file 5 "Generated_Source\\PSoC5/core_cm3.h"
 183              		.file 6 "Generated_Source\\PSoC5/I2C.h"
 184              		.file 7 "Generated_Source\\PSoC5/LCD.h"
 185              		.file 8 "Generated_Source\\PSoC5/CyLib.h"